(lp0
(iplugins.title_reader
URL
p1
(dp2
S'url'
p3
S'http://www.aftonbladet.se'
p4
sS'nick'
p5
S'dk_!~dk@c-d4a5e255.026-105-73766c1.cust.bredbandsbolaget.se'
p6
sS'title'
p7
S'Aftonbladet: Sveriges nyhetsportal'
p8
sS'timestamp'
p9
S'test'
p10
sba(iplugins.title_reader
URL
p11
(dp12
S'url'
p13
S'http://www.free6.com'
p14
sS'nick'
p15
S'Bio|wrk!~jakob.sun@ume-gw.ume2.se.bredband.com'
p16
sS'title'
p17
S'Free6.com'
p18
sS'timestamp'
p19
S'test'
p20
sba.