(lp0
S'%s \xc3\xa4r ett fetto'
p1
aS'Du \xc3\xa4r s\xc3\xa5 \xc3\xa4cklig %s, ja du!'
p2
aS'%s is %s.'
p3
aS'%s \xe4r till m\xe4nskligheten vad sandpapper \xe4r f\xf6r toalettbes\xf6ken'
p4
aS'%s \xe4r f\xf6r m\xe4nskligheten vad sandpapper \xe4r f\xf6r toalettbes\xf6ken'
p5
aS'%s \xe4r rund'
p6
aS'%s \xc3\xa4r en smutsig sk\xc3\xa5ning.'
p7
aS'Om %s slutade lukta illa skulle flygande grisar migrera fr\xe5n kylan i helvetet.'
p8
aS'Ni vet alla dom d\xe4r blondinsk\xe4mten? Dom handlar om %s.'
p9
aS'%s \xe4r son till sin bror.'
p10
aS'%s \xe4r r\xe4tt kass.'
p11
aS'%s kan inte stava till parallell.'
p12
aS'Tillvaron g\xe5r mot dr\xe4glig n\xe4r %s n\xe4rvaro g\xe5r mot noll.'
p13
aS'%s \xe4r en level 9 paladin.'
p14
aS'Det var.. nej jag orkar inte skriva n\xe5got roligt. Jag bara hatar dig %s. Hatar dig som bara fan. Jag hoppas att du d\xf6r, din inavlade familj likas\xe5. J\xe4vla skith\xf6g. Det b\xe4sta du kommer g\xf6ra \xe4r att ruttna under marken ditt f\xf6rbannade \xe4ckel.'
p15
aS"%s l\xe4gger till 'dock' i slutet av varje mening f\xf6r att verka smartare, oavsett om det passar d\xe4r eller en l\xe5ter halvt vettigt."
p16
aS'%s stavar fel p\xe5 "ens".'
p17
aS'%s har myror i byxorna. Bokstavligen, han njuter av det.'
p18
aS'%s \xc3\xa4r sin egen faster'
p19
aS'%d %s %s'
p20
aS'(Y %s) ==> #f'
p21
aS'%ss mamma \xc3\xa4r en pappa'
p22
aS'Ni vet alla de d\xc3\xa4r blondinsk\xc3\xa4mten? De handlar om %s.'
p23
aS'%s \xe4r en anal spr\xe5kfascist'
p24
aS'%s f\xc3\xa5r plats i sin navel'
p25
aS'det var %s som fes'
p26
aS'%s: i am rubber you are glue, your words bounce off me and stick to you'
p27
aS'%s anv\xe4nder internet explorer'
p28
aS'%s anv\xc3\xa4nder firefox'
p29
aS'%s k\xc3\xb6r compis som prim\xc3\xa4r arbetsstation'
p30
aS'%s gillar fontanellsex'
p31
aS'%s anv\xe4nder /amsg kommandot i mirc.'
p32
aS'%s warezar genom kazaa'
p33
aS'%s utvecklar i vbscript'
p34
aS'H{%s} = 0'
p35
aS'%s \xc3\xa4r en eufemism'
p36
aS'%s har bullar i ugnen'
p37
aS'%s \xe4ter frivilligt p\xe5 donken.'
p38
aS'%s har bandat behind-the-scenes till skilda v\xc3\xa4rldar'
p39
aS'%s har blandband med Sven-Ingvars'
p40
aS'%s'
p41
aS'%s \xc3\xa4r %s'
p42
aS'%s \xc3\xa4r Ulfalizer '
p43
aS'%s samlar p\xc3\xa5 br\xc3\xb6drostar'
p44
aS'%s \xe4r HACKERMAN!!!!!!!1111'
p45
aS'%s vill vara Joker fr\xc3\xa5n Rederiet'
p46
aS'%s vet inte hur man anv\xc3\xa4nder ehuru'
p47
aS'%s \xe4r f\xf6r cp f\xf6r cp-listan'
p48
aS'%s \xc3\xa4ter ugglor med senap.'
p49
aS'%s \xe4r en saltgurka'
p50
aS'%s: men h\xe5ll k\xe4ften.'
p51
aS'%s, en norrman och en isl\xc3\xa4nning gick in p\xc3\xa5 en bar...'
p52
aS'%s \xe4r Gudrun Schyman.'
p53
aS'%s: din pappa ringde, han \xc3\xa4r gravid.'
p54
aS'%s \xe4r h\xf6gst level i tibia.'
p55
aS'%s \xe4r en br.'
p56
aS'%s ser n\xe4stan ut som serp'
p57
aS'%s kan vara lugn, J-ohaN \xe4r v\xe4rre!'
p58
aS'%s bajsar regelbundet'
p59
aS'%s sitter och kissar'
p60
aS'%s kissar p\xe5 kanten'
p61
aS'%s \xe4ter soppa med gaffel'
p62
aS'%s har \xe4ppelknyckarbyxor'
p63
aS'%s \xc3\xa4r inte med i kommunistiska ungdomsf\xc3\xb6rbundet'
p64
aS'%s \xe4r spet\xe4lsk.'
p65
aS'%s \xc3\xa4r en hyvens karl. en riktig f\xc3\xb6rebild f\xc3\xb6r ungdomen. han dansar bra ocks\xc3\xa5.'
p66
aS'%s \xe4r en n\xf6rd'
p67
aS'%s \xe4r inte komplett'
p68
aS'serp \xc3\xa4r s\xc3\xa4mre \xc3\xa4n %s'
p69
aS'pest eller %s'
p70
aS'ur askan i %s'
p71
aS'Hellre ett hack iballen \xe4n %s i hallen'
p72
aS'liten %s f\xc3\xa4ller ofta stort lass'
p73
aS'man ska inte ropa %s innan man kommit \xf6ver b\xe4ckenet'
p74
aS'%s \xe4r \xe4ldre \xe4n teetow'
p75
aS'Forskare har uppt\xe4ckt ett nytt asteroid-b\xe4lte i form av cheese balls kretsande runt %ss feta mage'
p76
aS'%s skulle r\xf6stat p\xe5 Giuliani om han vore amerikan'
p77
aS'%s ser inte skillnad p\xc3\xa5 en spegel och serp'
p78
aS'%s tycker att alla insults \xe4r klockrena'
p79
aS'%shej jag heter botnik och jag \xc3\xa4r helt buggfri'
p80
aS'%s \xe4r v\xe4rldens b\xe4sta d\xe5liga exempel'
p81
aS'test \xc3\xa5\xc3\xa4\xc3\xb6 %s'
p82
aS'j\xc3\xa4vla %s'
p83
aS'%s is not intended for use in homes with children'
p84
aS'CAUTION! %s'
p85
aS'%s \xc3\xa4r s\xc3\xa5 ful att han aktiverar serps highlight'
p86
aS'%s liknar en jude'
p87
aS'%s fick sparken fr\xe5n samhall'
p88
aS'%s failade kv\xe4llskursen i datorkunskap p\xe5 komvux'
p89
aS'%s fick sitt dator-k\xf6rkort indrag'
p90
aS'%s gillar julnicks'
p91
aS'%s \xe4r en l\xf6k'
p92
aS'%s jobbar \xe5t microsoft'
p93
aS'%s t\xe4nder p\xe5 Uncle Ben'
p94
aS'%s \xe4r Stallmans sk\xe4gg'
p95
aS'%s t\xe4nkte inte s\xe4ga det h\xf6gt, men han har just str\xe4ckkollat Harry Potter 2 och 3'
p96
aS'%s liek mudkips.'
p97
aS'%s \xe4r medlem i Fi'
p98
aS'%s tror att serp har stor bokstav i b\xc3\xb6rjan av sitt nick'
p99
aS'%s \xe4r tr\xe5kigare \xe4n att sitta uppe mitt i natten en tisdag i november och inte ha n\xe5got alls att g\xf6ra'
p100
aS'%s k\xf6r svenskt windows'
p101
aS'%s skriver skitl\xe5nga koder.'
p102
aS'%s kan inte alla c++-koderna! Hahaha!'
p103
aS'%s f\xc3\xa5r aldrig n\xc3\xa5gra julklappar.'
p104
aS'%ss klocka g\xc3\xa5r fel'
p105
aS'%ss insults \xe4r totalt v\xe4rdel\xf6sa'
p106
aS'%s diggar Mircrosoft Bob'
p107
aS'%s gjorde en "Biohaxard".'
p108
aS'%ss luktar som en gammal avdankad k\xe4rring!'
p109
aS'%s < *'
p110
aS'%s har tv\xe5 pappor, dom f\xe5r inte gifta sig'
p111
aS'%s har tv\xe5 pappor, dom f\xe5r inte gifta sig med honom'
p112
aS'%s kan inte stava till kvalit\xc3\xa9'
p113
aS'%s \xc3\xa4r pretenti\xc3\xb6s nog att orka stava r\xc3\xa4tt till kvalit\xc3\xa9'
p114
aS'%s \xe4r l\xe5ngsammare \xe4n botnik'
p115
aS'ZEROblue t\xe4nder p\xe5 %s'
p116
aS'%s \xc3\xa4r b\xc3\xa4ttre \xc3\xa4n olsner'
p117
aS'%s_krejzy_cs_kid@hotmail.com'
p118
aS'%s ber om PHP-hj\xe4lp p\xe5 sweclockers'
p119
aS'%s brukar runka till VisualBasic-kod'
p120
aS'%ss enda kompis \xe4r Bonzi Buddy.'
p121
aS'%s hackar s\xe4mre \xe4n Ramzi'
p122
aS'.addinsult %s \xe4r r\xe4tt dum.'
p123
aS'.addinsult %%s \xe4r som %s'
p124
aS'%s gillar inte chips'
p125
aS'%s \xe4r inte det minsta n\xf6rdig'
p126
aS'%s luktar kaffe'
p127
aS'%s \xe4r fulare \xe4n perlkod'
p128
aS'%s har k\xf6nsherpes i \xf6rat'
p129
aS'%s gillar tjockisar'
p130
aS'%s kan skriva hello world p\xe5 10 minuter.'
p131
aS'%s t\xe4nder p\xe5 ZEROblue '
p132
aS'%s vet inte hur man anv\xe4nder en br\xf6drost'
p133
aS'%s har klarat ut Daikatana 22 g\xe5nger.'
p134
aS'%s kommer att d\xf6 ensam'
p135
aS'%s \xe4r f\xf6r dum f\xf6r bubble sort'
p136
aS'%s f\xc3\xb6rst\xc3\xa5r inte svenska.'
p137
aS'%s sk\xf6ter inte sin intimhygien'
p138
aS'%s \xe4r kristen'
p139
aS'%s \xe4r ett f\xf6rbannat j\xe4vla r\xf6vh\xe5l med liten penis. %s borde d\xf6 och brinna i helvetet'
p140
aS'%s har blivit v\xe5ldtagen av hello world :('
p141
aS'%s b\xc3\xb6rjade precis med programmering, och blir v\xc3\xa5ldtagen h\xc3\xa5rd av hello wordl :('
p142
aS'%s \xe4r ganska v\xe4rdALL GLORY TO THE HYPNOTOAD!'
p143
aS'%s kodar BASIC hela n\xc3\xa4tterna.'
p144
aS'%s \xe4r %ss pappa'
p145
aS'%s and Babsan up in a tree. F U C K i N G'
p146
aS'%s \xe4r s\xe5 dum att han f\xe5r skr\xe4p i tangentbordet p\xe5 sin iPhone.'
p147
aS'%s \xe4r s\xe5 dum att han k\xf6pte en iphone'
p148
aS'%s \xc3\xa4r dum.'
p149
aS'%s mamma s\xe4ljer sin kropp p\xe5 pricerunner'
p150
aS'%s f\xc3\xa5r inte g\xc3\xa5 p\xc3\xa5 LAN-party f\xc3\xb6r %ss mamma.'
p151
aS'%s tror att insultfunktionen \xe4r til lf\xf6r chat'
p152
aS'%ss mamma anv\xe4nder macintosh!'
p153
aS'%s \xe4r b\xe4st'
p154
aS'%s har r\xe4tt'
p155
aS'%s saboterar f\xc3\xb6rol\xc3\xa4mningsdatabasen.'
p156
aS'%s saboterar f\xc3\xb6rol\xc3\xa4mpningsdatabasen.'
p157
aS'%s g\xe5r konstigt'
p158
aS'det var %s som kasta'
p159
aS'%s \xc3\xa4r muslim'
p160
aS'%s \xe4r religi\xf6s'
p161
aS'%s har unixsk\xe4gg.'
p162
aS'%s fick U p\xe5 en filfak kurs'
p163
aS'%s har inte alla poler i h\xf6ger halvplan'
p164
aS'%s k\xf6r med julnick i november, vilket homo'
p165
aS'%ss pappa ringde, han ar gravid'
p166
aS'%s, HAHAHAHAHAHAHAH'
p167
aS'%s............. fniss'
p168
aS'%s har v\xe4rldens st\xf6rsta labia'
p169
aS'%s har 7bitar i sin byte'
p170
aS'%s har skrivit botnik !'
p171
aS'%s ser ut som Linda Rosing!'
p172
aS'%s har inte internet'
p173
aS'%s har isdn'
p174
aS'%s gillar star trek'
p175
aS'%s gillar Madonna'
p176
aS'%s st\xe4nger av datorn p\xe5 power-knappen'
p177
aS'%s har turboknapp p\xc3\xa5 sin dator'
p178
aS'%s \xc3\xa4r en kebab'
p179
aS'%s \xe4r en kuf'
p180
aS'%s lyssnar p\xe5 \xe4ppelknyckarjazz'
p181
aS'%s \xc3\xa4r en twittrare'
p182
aS'%s \xc3\xa4r en riktig twittrare han'
p183
aS'%s sent you an invitation using Hug Me on Facebook'
p184
aS'%s \xe4r lite eljest'
p185
aS'%s \xe4r snel'
p186
aS'%s \xc3\xa4r ett sprutluder'
p187
aS'%s anv\xe4nder rogaine f\xf6r sk\xe4ggv\xe4xten'
p188
aS'%s \xe4r s\xe4mre \xe4n Fi5KuS.'
p189
aS'Om %s heter pierre, s\xc3\xa5 \xc3\xa4r han s\xc3\xa4mst.'
p190
aS'%s njuter av att bli straffknullad av elefanter'
p191
aS'indierna i cyd-poolen luktar b\xc3\xa4ttre \xc3\xa4n %s'
p192
aS'%s gillar kulor'
p193
aS'%s programmerar i BASIC'
p194
aS'det var b\xc3\xa4ttre f\xc3\xb6rr, framf\xc3\xb6rallt innan %s f\xc3\xb6ddes'
p195
aS'\x01ACTION g\xc3\xb6r en rej\xc3\xa4l facepalm vid blotta tanken p\xc3\xa5 %s\x01'
p196
aS'%s \xe4r socialdemokrat'
p197
aS'%s har ett konto p\xe5 fragbite'
p198
aS'%s tycker magnus betn\xe9r \xe4r rolig'
p199
aS'%s skriver rubrikerna till extra \xc3\xb6sterg\xc3\xb6tland'
p200
aS'%s r\xc3\xb6stade p\xc3\xa5 kungen i senaste riksdagsvalet'
p201
aS'%s anv\xc3\xa4nder ord/uttryck p\xc3\xa5 ett felaktigt s\xc3\xa4tt som hen h\xc3\xb6rt p\xc3\xa5 bussen.'
p202
aS'%s anv\xc3\xa4nder fat16'
p203
aS'%s \xc3\xa4r redan bload'
p204
aS'inneh\xe5llet i %s skalle g\xe5r att komprimera b\xe4ttre \xe4n en bmp-bild'
p205
aS'%s s\xe4ger cd-skiva'
p206
aS'dum-%s \xc3\xa4r en tautologi'
p207
aS'%s \xe4r distr\xe4'
p208
aS'%s defragmenterar sina SSD diskar.'
p209
aS'%s har startat en butik och s\xc3\xb6ker nu kassa medarbetare.'
p210
aS'%s startar butiker ist\xe4llet f\xf6r att \xf6ppna dem.'
p211
aS'%s bor i tyskland'
p212
aS'%s tycker om att spamma .insult'
p213
aS'%s lol'
p214
aS'%s argumenterar som Wendy Wright.'
p215
aS'%s vill sex-chatta med fr\xc3\xb6ken ur'
p216
aS'%s namn bakl\xe4nges blir "penis".'
p217
aS'emote kastar kottar p\xc3\xa5 %s'
p218
aS'Till och med rohmann \xc3\xa4r b\xc3\xa4ttre \xc3\xa4n %s......'
p219
aS'%sr s\xe4mst'
p220
aS'%s s\xe4mst'
p221
aS'void *%s = NULL; '
p222
aS'%s klickar p\xe5 banners'
p223
aS'%s blir lurad av maskin\xf6versatta phishing-mail'
p224
aS'%s s\xe4rskriver'
p225
aS'%s f\xf6ljer inte OSI-modellen'
p226
aS'%s k\xf6per cykel p\xe5 Biltema'
p227
aS'%s st\xf6djer bara IPX'
p228
aS'%s \xe4r emo och stolt \xf6ver det'
p229
aS'%s anv\xe4nder mIRC'
p230
aS'%s surfar med Internet Explorer'
p231
aS'%s fick ingen CD'
p232
aS'%s kan inte skriva program i C'
p233
aS'%s tycker att /s/ \xe4r en d\xe5lig image board'
p234
aS'%s har gr\xf6n text i sin terminal f\xf6r att det ska se "coolt" ut'
p235
aS'%s har en Matrix-sk\xe4rmsl\xe4ckare'
p236
aS'%s tycker att namn med utformningen smeknamN^ \xe4r coola'
p237
aS'%s skriver DCC SEND "startkeylogger" 0 0 0'
p238
aS'%s anv\xe4nder anti-virus'
p239
aS'%s anv\xe4nder rm -rf utan att t\xe4nka efter'
p240
aS'%s luktar ost'
p241
aS'%s \xe4r d\xe5lig'
p242
aS'%s gillar tentakler'
p243
aS'%s h\xe4nger p\xe5 /y/'
p244
aS'%s laddar ner gratis sk\xe4rmsl\xe4ckare'
p245
aS'%s tycker att Victoria Silvstedt ser bra ut'
p246
aS'%s anv\xe4nder www.free6.com som porrsida'
p247
aS'%s har msn.com som startsida'
p248
aS'%s lyssnar p\xe5 Rix FM'
p249
aS'%s lyssnar p\xe5 Basshunter'
p250
aS'%s g\xf6r kramrutor p\xe5 DH'
p251
aS'%s tycker att In Flames \xe4r det b\xe4sta bandet som finns'
p252
aS'%s g\xf6r hemsidor i ASP'
p253
aS'%s har sin skivsamling i Access'
p254
aS'%s \xe4r med i en CS-klan'
p255
aS'%s \xe4r inte level 80'
p256
aS'%s g\xe5r p\xe5 Plaza'
p257
aS'%s har inte f\xe5ngat alla Pok\xe9mon'
p258
aS'%s tycker kallar seriella portar f\xf6r "gammeldags portar".'
p259
aS'%s anv\xe4nder .addinsult utan att korrekturl\xe4sa'
p260
aS'%s kallar optiska m\xf6ss f\xf6r laserm\xf6ss.'
p261
aS'%s v\xe4ntar tills andra duschat f\xe4rdigt i allm\xe4nna duschar'
p262
aS'%s tycker att laserdome \xe4r kul'
p263
aS'%s f\xf6redrar airsoft framf\xf6r paintball'
p264
aS'%s har inte spelat Final Fantasy'
p265
aS'%s har varken h\xf6rt talas om eller spelat Myst.'
p266
aS'%s tycker att nya Need for Speed \xe4r b\xe4ttre \xe4n de gamla.'
p267
aS'%s spelar hellre spel \xe4n tweakar sitt operativsystem'
p268
aS'%s tycker att sex \xe4r b\xe4ttre \xe4n programmering.'
p269
aS'%s har bara 1 dator'
p270
aS'%s t\xe4nder p\xe5 falukorvsscenen i F\xe4bodj\xe4ntan.'
p271
aS'%s tycker att warez-scenen har coola regler och att alla d\xe4r \xe4r coola.'
p272
aS'%s seedar inte'
p273
aS'%s tycker att Fear of the Dark \xe4r Iron Maidens b\xe4sta l\xe5t.'
p274
aS'%s k\xf6per sin musik'
p275
aS'%s streamar filmer lagligt p\xe5 Internet.'
p276
aS'%s har bouncer-VHOST i stil med jag.aeger.pa.cs.nu'
p277
aS'%s h\xe4nger p\xe5 QuakeNet.'
p278
aS'%s anv\xe4nder font-taggen i HTML.'
p279
aS'%s anv\xe4nder blink-taggen i HTML.'
p280
aS'%s anv\xe4nder marquee-taggen i HTML.'
p281
aS'%s skrev inte sin f\xf6rsta hemsida i notepad'
p282
aS'%s g\xf6r hemsidor i Frontpage.'
p283
aS'%s tycker att Flash \xe4r bra.'
p284
aS'%s f\xe5r placebo-fyllor.'
p285
aS'%s raggar p\xe5 fjortisar.'
p286
aS'%s h\xe4nger i St\xe5ngebro.'
p287
aS'%s \xe4r vegetarian.'
p288
aS'%s har testat att dricka cider med sugr\xf6r.'
p289
aS'%s har f\xf6rs\xf6kt g\xf6ra r\xf6kbomber med salpeter, salt och toarullar.'
p290
aS'%s \xe4r dricker cider.'
p291
aS'%s dricker cider.'
p292
aS'%s anv\xe4nder alltid 2 sugr\xf6r "f\xf6r det smakar b\xe4ttre d\xe5"'
p293
aS'%s betalar TV-avgiften.'
p294
aS'%s ringer Dells support.'
p295
aS'%s har aldrig blivit sexuellt upphetsad av tv\xe5 stycken Voodoo2 i SLI.'
p296
aS'%s l\xe4mnar kvar After Eight papper i paketet'
p297
aS'%s har mj\xf6lk i kaffet.'
p298
aS'%s visste aldrig vilket ljudkort han skulle v\xe4lja n\xe4r han konfigurerade spel i MS-DOS.'
p299
aS'%s hade sv\xe5righeter med att h\xe4nga med i datorkunskapen i skolan.'
p300
aS'%s l\xe4nkar j\xe4mt dagens och g\xe5rddagens Tjuvlyssnat och xkcd fast man redan l\xe4st dem.'
p301
aS'%s tycker att mp3 l\xe5ter bra.'
p302
aS'...och f\xf6rloraren \xe4r: %s!'
p303
aS'%s spelar Tomb Raider bara f\xf6r att Lara Croft har stora br\xf6st.'
p304
aS'%s l\xe4ser IDG.'
p305
aS'%s trycker p\xe5 alla knappar helt slumpm\xe4ssigt i fighting-spel.'
p306
aS'%s kan inte h\xe4rma hur ett uppringt modem l\xe5ter.'
p307
aS'%s anv\xe4nder manuell v\xe4xling i racingsimulatorer f\xf6r att verka tuff'
p308
aS'%s f\xf6rst\xe5r inte sk\xe4mten i xkcd.'
p309
aS'%s spelar spel p\xe5 Facebook'
p310
aS'%s k\xf6r program med namn i stil med Registry Cleaner XP Pro.'
p311
aS'%s har en Tokio Hotel-t-shirt.'
p312
aS'%s tycker att kajal \xe4r snyggt p\xe5 killar.'
p313
aS'%s vet vad kajal \xe4r.'
p314
aS'%s sover p\xe5 LAN'
p315
aS'%s s\xe5g ofta p\xe5 Kanal Lokal n\xe4r det fanns.'
p316
aS'%s anv\xe4nder ordet "d\xe5ligare"'
p317
aS'%s anv\xe4nder ordet "gamlare"'
p318
aS'%s vet inte var alla fl\xf6jtarna finns i f\xf6rsta v\xe4rlden i Supera Mario Bros 3.'
p319
aS'%s st\xe4nger av datorn n\xe4r %s ska sova'
p320
aS'%s l\xe4gger allt nerladdat p\xe5 skrivbordet'
p321
aS'%s har ett skrivbord p\xe5 datorn.'
p322
aS'%ss mamma \xe4r en pappa.'
p323
aS'Den d\xe4r bortgl\xf6mda jackan i kapprummet \xe4r %ss.'
p324
aS'%s slarvar med indenteringen.'
p325
aS'%s f\xe5r segmenteringsfel.'
p326
aS'%s vet inte n\xe4r han ska anv\xe4nda "de" respektive "dem"'
p327
aS'%s: ett nej \xe4r ett nej!'
p328
aS'%s har inget b\xc3\xa4ttre f\xc3\xb6r sig \xc3\xa4n att l\xc3\xa4gga till insults'
p329
aS'%s \xc3\xa4r lika ostabil som en b\xc3\xa5t byggd av Mare.'
p330
aS'%s vet inte vem Erik Persson var.'
p331
aS'%s \xe4r med i MUF.'
p332
aS'%s kan inte h\xc3\xa4fva \xc3\xb6l'
p333
aS'%s p\xc3\xa5minner om Gudrun Schyman'
p334
aS'%s sk\xf6t Palme.'
p335
aS'%s har ingen ugn'
p336
aS'%s har sin spis ovanp\xe5 kylsk\xe5pet.'
p337
aS'%s sitter ner och kissar.'
p338
aS'%s kan inte stava till "addinsult".'
p339
aS'%s \xc3\xa4r en one minute man'
p340
aS'%s taggar inte!'
p341
aS'%ss mamma \xc3\xa4r lurvig'
p342
aS'%ss mamma \xc3\xa4r laggar'
p343
aS'%s g\xc3\xb6r s\xc3\xa4mre l\xc3\xa5tar \xc3\xa4n Markoolio'
p344
aS'%s kommer inte fr\xc3\xa5n Stockholm.'
p345
aS'%s kommer fr\xc3\xa5n Stockholm'
p346
aS'%ss f\xc3\xb6r\xc3\xa4ldrar \xc3\xa4r syskon'
p347
aS'%s \xc3\xa4r en feeder'
p348
aS'%s g\xc3\xb6r musik i Fruity Loops'
p349
aS'%s f\xe5r kallsup vid \xf6lh\xe4fvning'
p350
aS'%s \xe4r ett litet cp-mongo!'
p351
aS'%s tror pi b\xf6rjar p\xe5 3.99!'
p352
aS'Ibland undrar man om %s ens vet om att jorden \xe4r rund.'
p353
aS'%s ditt lilla fittluder..'
p354
aS'%s luktar curry blandat med banans\xe5s.'
p355
aS'Den d\xe4r %s borde upps\xf6ka v\xe5rd innan han skadar sin omgivning med sin tr\xf6ghet.'
p356
aS'%s: hej hopp det feta nylle'
p357
aS'%s: hej hopp ditt feta nylle'
p358
aS'%s har ingen profilbild p\xe5 Facebook'
p359
aS'%s \xc3\xa4r s\xc3\xa4mst'
p360
aS'%s \xc3\xa4r verkligen j\xc3\xa4ttekass'
p361
aS'%s \xe4r smutsig.'
p362
aS'%s tar botniks insults seri\xc3\xb6st och f\xc3\xb6rsvarar sig'
p363
aS'%s traverscapsar hela tiden.'
p364
aS'%s rukar till efterlyst'
p365
aS'%s runkar till efterlyst'
p366
aS'it is not the case that %s \xc3\xa4lskar k\xc3\xb6tt som fan'
p367
aS'%s surfar med IE6'
p368
aS'%s surfar med Mosaic.'
p369
aS'%s dricker kaffe med lillfingret ut i v\xe4dret'
p370
aS'%s l\xe4gger till d\xe5liga insults'
p371
aS'%s \xc3\xa4r s\xc3\xa5 tjock att han fyller upp /dev/null'
p372
aS'%s \xc3\xa4r banne mig bra p\xc3\xa5 det mesta.'
p373
aS'%s \xe4r av noll och intet v\xe4rde'
p374
aS'%s \xc3\xa4r O(\xea\x9d\x8e)'
p375
aS'%s har sm\xc3\xa5 f\xc3\xb6tter'
p376
aS'%s vet inte hur man faltar tv\xc3\xa5 funktioner'
p377
aS'%s har en liten snopp'
p378
aS'%s k\xc3\xb6r med suspensoar'
p379
aS'%s luktar fl\xc3\xa4der.'
p380
aS'%s fights like a dairy farmer'
p381
aS'%ss mamma \xe4r s\xe5 ful att n\xe4r hon skulle t\xe4vla i en t\xe4vling f\xf6r fula sade domaren "Ledsen, inga proffs".'
p382
aS'%s skriver wiki n\xe4r han menar wikipedia, vilken j\xe4vla kamel'
p383
aS'%s h\xe4nger p\xe5 Lunarstorm.'
p384
aS'%s brukar avbryta konversationer med "Hej, urs\xe4kta att jag st\xf6r igen men jag ville bara ber\xe4tta att..."'
p385
aS'%s vill inte ha bild.'
p386
aS'Hej, %s! Jag tr\xe4ffade dina f\xf6r\xe4ldrar ig\xe5r, det var riktigt trevliga killar!'
p387
aS'%s gillar TDDC10'
p388
aS'%s \xc3\xa4r en one second man'
p389
aS'%s \xe4r skribent p\xe5 Metro.'
p390
aS'%s tycker att Susanne M\xf6ller \xe4r en bra spelreporter'
p391
aS'%ss stj\xc3\xa4rt \xc3\xa4r en INOUT'
p392
aS'%s.Loves.Cock.XXX.DVDRip.XviD-XCiTE'
p393
aS"(is-%s '%s) -> nil"
p394
aS'det finns ett %s-k\xc3\xa4rl p\xc3\xa5 \xc3\xa5tervinningsstationerna'
p395
aS'botnik failar med regex och det \xc3\xa4r ditt fel, %s'
p396
aS'Alla barnern lekte gruppsex f\xc3\xb6rutom %s, f\xc3\xb6r han hade f\xc3\xb6r liten snopp'
p397
aS'%s dricker kaffe'
p398
aS'%s%s%s%s%s%s, faen, d\xc3\xa4r svor jag igen'
p399
aS'rm -rf /home/%s/porn/ funkar inte, d\xc3\xa5 bibloteket \xc3\xa4r f\xc3\xb6r stort'
p400
aS'%s jobbar \xc3\xa5t staten'
p401
aS'%s: NEJ!'
p402
aS'%s kan inte skilja p\xc3\xa5 en PMOS- respektive NMOS-transistor'
p403
aS'%s gillar printf i php'
p404
aS'%s tycker att JavaScript \xc3\xa4r ett vackert, cleant spr\xc3\xa5k.'
p405
aS'%s mamma har en oavg\xf6rbar utrymmeskomplexitet'
p406
aS'%s pickar scout i AP.'
p407
aS'%s vet inte var C4 ligger'
p408
aS'%s g\xc3\xa5r ofta vilse p\xc3\xa5 Internet'
p409
aS'%s jobbar som support hos Telia'
p410
aS'%s \xc3\xa4r f\xc3\xb6r tjock f\xc3\xb6r att se sin egen snopp'
p411
aS'%s spelar FPS p\xe5 konsol'
p412
aS'%s har mobil med kontantkort'
p413
aS'%s l\xc3\xa4ser sin e-post p\xc3\xa5 www.hotmale.com'
p414
aS'%ss n\xc3\xa4sa luktar!'
p415
aS'Tacka inte %s, tacka Skycab!'
p416
aS'%s plockar upp saker fr\xc3\xa5n hans f\xc3\xb6tter och \xc3\xa4ter dem mitt framf\xc3\xb6r en stor publik.'
p417
aS'%s tycker att hampy \xe4r b\xe4st'
p418
aS'%s borde jobba p\xe5 industri'
p419
aS'k\xf6tthuvud %s'
p420
aS'%s blir varm i brallan av teletubbies'
p421
aS'%s har en liten kuk, precis som % juh.'
p422
aS'%s har en liten kuk, precis som %s juh.'
p423
aS'%s \xc3\xa4r h\xc3\xa4r. serp \xc3\xa4r d\xc3\xa5lig.'
p424
aS'%s spelar oboe'
p425
aS'%s \xe4r muslim'
p426
aS'%s \xc3\xa4r ful p\xc3\xa5 insidan'
p427
aS'%s s\xc3\xa4rskriver \xc3\xa4ndam\xc3\xa5l till enda m\xc3\xa5l'
p428
aS'%s vet inte ens om att jorden \xe4r rund.'
p429
aS'%s \xe4r duktig'
p430
aS'%s \xe4r scientolog.'
p431
aS'%s vet inte skillnad p\xc3\xa5 car och cdr'
p432
aS'%s b\xc3\xb6rjade med morfin f\xc3\xb6r att bli en Power Ranger'
p433
aS'%s tycker att C++ \xc3\xa4r ett bra programmeringsspr\xc3\xa5k'
p434
aS'%s k\xc3\xb6re med longjmp, for speed'
p435
aS'%s anv\xc3\xa4nder magnetband som cacheminne'
p436
aS'Bara Nyken \xe4r s\xe4mre \xe4n %s.'
p437
aS'%s exekverar stacken'
p438
aS"ett anagram av '%s' \xe4r 's\xe4mst'"
p439
aS'%s har nedsatt intelligens'
p440
a.