(iplugins.pylisp
Environment
p0
(dp1
S'dictionary'
p2
(dp3
(iplugins.pylisp
Symbol
p4
(dp5
S'name'
p6
S'stimes'
p7
sb(iplugins.pylisp
Lambda
p8
(dp9
S'expression'
p10
(iplugins.pylisp
ExpressionBody
p11
(dp12
S'expressions'
p13
(iplugins.pylisp
ConsCell
p14
(dp15
S'car'
p16
(iplugins.pylisp
ConsCell
p17
(dp18
g16
(iplugins.pylisp
Symbol
p19
(dp20
g6
S'if'
p21
sbsS'cdr'
p22
(iplugins.pylisp
ConsCell
p23
(dp24
g16
(iplugins.pylisp
ConsCell
p25
(dp26
g16
(iplugins.pylisp
Symbol
p27
(dp28
g6
S'='
p29
sbsg22
(iplugins.pylisp
ConsCell
p30
(dp31
g16
(iplugins.pylisp
Symbol
p32
(dp33
g6
S'n'
p34
sbsg22
(iplugins.pylisp
ConsCell
p35
(dp36
g16
(iplugins.pylisp
Integer
p37
(dp38
S'value'
p39
I1
sbsg22
(iplugins.pylisp
Nil
p40
(dp41
bsbsbsbsg22
(iplugins.pylisp
ConsCell
p42
(dp43
g16
(iplugins.pylisp
Symbol
p44
(dp45
g6
S's'
p46
sbsg22
(iplugins.pylisp
ConsCell
p47
(dp48
g16
(iplugins.pylisp
ConsCell
p49
(dp50
g16
(iplugins.pylisp
Symbol
p51
(dp52
g6
S'str-append'
p53
sbsg22
(iplugins.pylisp
ConsCell
p54
(dp55
g16
(iplugins.pylisp
ConsCell
p56
(dp57
g16
(iplugins.pylisp
Symbol
p58
(dp59
g6
S'stimes'
p60
sbsg22
(iplugins.pylisp
ConsCell
p61
(dp62
g16
(iplugins.pylisp
ConsCell
p63
(dp64
g16
(iplugins.pylisp
Symbol
p65
(dp66
g6
S'-'
p67
sbsg22
(iplugins.pylisp
ConsCell
p68
(dp69
g16
(iplugins.pylisp
Symbol
p70
(dp71
g6
g34
sbsg22
(iplugins.pylisp
ConsCell
p72
(dp73
g16
(iplugins.pylisp
Integer
p74
(dp75
g39
I1
sbsg22
(iplugins.pylisp
Nil
p76
(dp77
bsbsbsbsg22
(iplugins.pylisp
ConsCell
p78
(dp79
g16
(iplugins.pylisp
Symbol
p80
(dp81
g6
g46
sbsg22
(iplugins.pylisp
Nil
p82
(dp83
bsbsbsbsg22
(iplugins.pylisp
ConsCell
p84
(dp85
g16
(iplugins.pylisp
Symbol
p86
(dp87
g6
g46
sbsg22
(iplugins.pylisp
Nil
p88
(dp89
bsbsbsbsg22
(iplugins.pylisp
Nil
p90
(dp91
bsbsbsbsbsg22
(iplugins.pylisp
Nil
p92
(dp93
bsbsbsS'parameters'
p94
(iplugins.pylisp
ConsCell
p95
(dp96
g16
(iplugins.pylisp
Symbol
p97
(dp98
g6
g34
sbsg22
(iplugins.pylisp
ConsCell
p99
(dp100
g16
(iplugins.pylisp
Symbol
p101
(dp102
g6
g46
sbsg22
(iplugins.pylisp
Nil
p103
(dp104
bsbsbsS'env'
p105
g0
sbs(iplugins.pylisp
Symbol
p106
(dp107
S'name'
p108
S'runpa'
p109
sb(iplugins.pylisp
Dot
p110
(dp111
bs(iplugins.pylisp
Symbol
p112
(dp113
S'name'
p114
S'rest'
p115
sb(iplugins.pylisp
NativeFunction
p116
(dp117
S'function'
p118
cplugins.pylisp
cdr_func
p119
sS'num_args'
p120
I1
sg114
S'cdr'
p121
sbs(iplugins.pylisp
Symbol
p122
(dp123
g114
S'sleep'
p124
sb(iplugins.pylisp
Lambda
p125
(dp126
g10
(iplugins.pylisp
ExpressionBody
p127
(dp128
g13
(iplugins.pylisp
ConsCell
p129
(dp130
g16
(iplugins.pylisp
ConsCell
p131
(dp132
g16
(iplugins.pylisp
Symbol
p133
(dp134
g6
S'if'
p135
sbsg22
(iplugins.pylisp
ConsCell
p136
(dp137
g16
(iplugins.pylisp
ConsCell
p138
(dp139
g16
(iplugins.pylisp
Symbol
p140
(dp141
g6
S'>'
p142
sbsg22
(iplugins.pylisp
ConsCell
p143
(dp144
g16
(iplugins.pylisp
ConsCell
p145
(dp146
g16
(iplugins.pylisp
Symbol
p147
(dp148
g6
S'rand'
p149
sbsg22
(iplugins.pylisp
ConsCell
p150
(dp151
g16
(iplugins.pylisp
Integer
p152
(dp153
g39
I10
sbsg22
(iplugins.pylisp
Nil
p154
(dp155
bsbsbsg22
(iplugins.pylisp
ConsCell
p156
(dp157
g16
(iplugins.pylisp
ConsCell
p158
(dp159
g16
(iplugins.pylisp
Symbol
p160
(dp161
g6
S'/'
p162
sbsg22
(iplugins.pylisp
ConsCell
p163
(dp164
g16
(iplugins.pylisp
Integer
p165
(dp166
g39
I10
sbsg22
(iplugins.pylisp
ConsCell
p167
(dp168
g16
(iplugins.pylisp
Integer
p169
(dp170
g39
I2
sbsg22
(iplugins.pylisp
Nil
p171
(dp172
bsbsbsbsg22
(iplugins.pylisp
Nil
p173
(dp174
bsbsbsbsg22
(iplugins.pylisp
ConsCell
p175
(dp176
g16
(iplugins.pylisp
ConsCell
p177
(dp178
g16
(iplugins.pylisp
Symbol
p179
(dp180
g6
S'str-append'
p181
sbsg22
(iplugins.pylisp
ConsCell
p182
(dp183
g16
(iplugins.pylisp
Symbol
p184
(dp185
g6
g34
sbsg22
(iplugins.pylisp
ConsCell
p186
(dp187
g16
(iplugins.pylisp
String
p188
(dp189
g39
S' ska sova sova sova som en gris!'
p190
sbsg22
(iplugins.pylisp
Nil
p191
(dp192
bsbsbsbsg22
(iplugins.pylisp
ConsCell
p193
(dp194
g16
(iplugins.pylisp
ConsCell
p195
(dp196
g16
(iplugins.pylisp
Symbol
p197
(dp198
g6
S'str-append'
p199
sbsg22
(iplugins.pylisp
ConsCell
p200
(dp201
g16
(iplugins.pylisp
Symbol
p202
(dp203
g6
g34
sbsg22
(iplugins.pylisp
ConsCell
p204
(dp205
g16
(iplugins.pylisp
String
p206
(dp207
g39
S' ska sitta och kolla p\xc3\xa5 porr ett tag till, dj\xc3\xa4vla gris fettichunge!'
p208
sbsg22
(iplugins.pylisp
Nil
p209
(dp210
bsbsbsbsg22
(iplugins.pylisp
Nil
p211
(dp212
bsbsbsbsbsg22
(iplugins.pylisp
Nil
p213
(dp214
bsbsbsg94
(iplugins.pylisp
ConsCell
p215
(dp216
g16
(iplugins.pylisp
Symbol
p217
(dp218
g6
g34
sbsg22
(iplugins.pylisp
Nil
p219
(dp220
bsbsg105
g0
sbs(iplugins.pylisp
Symbol
p221
(dp222
S'name'
p223
S'matnamn'
p224
sb(iplugins.pylisp
Lambda
p225
(dp226
g10
(iplugins.pylisp
ExpressionBody
p227
(dp228
g13
(iplugins.pylisp
ConsCell
p229
(dp230
g16
(iplugins.pylisp
ConsCell
p231
(dp232
g16
(iplugins.pylisp
Symbol
p233
(dp234
g6
S'car'
p235
sbsg22
(iplugins.pylisp
ConsCell
p236
(dp237
g16
(iplugins.pylisp
ConsCell
p238
(dp239
g16
(iplugins.pylisp
Symbol
p240
(dp241
g6
S'str-split'
p242
sbsg22
(iplugins.pylisp
ConsCell
p243
(dp244
g16
(iplugins.pylisp
ConsCell
p245
(dp246
g16
(iplugins.pylisp
Symbol
p247
(dp248
g6
S'command'
p249
sbsg22
(iplugins.pylisp
ConsCell
p250
(dp251
g16
(iplugins.pylisp
String
p252
(dp253
g39
S'title'
p254
sbsg22
(iplugins.pylisp
ConsCell
p255
(dp256
g16
(iplugins.pylisp
ConsCell
p257
(dp258
g16
(iplugins.pylisp
Symbol
p259
(dp260
g6
S'command'
p261
sbsg22
(iplugins.pylisp
ConsCell
p262
(dp263
g16
(iplugins.pylisp
String
p264
(dp265
g39
S'mattips'
p266
sbsg22
(iplugins.pylisp
ConsCell
p267
(dp268
g16
(iplugins.pylisp
String
p269
(dp270
g39
S'lispnik'
p271
sbsg22
(iplugins.pylisp
Nil
p272
(dp273
bsbsbsbsg22
(iplugins.pylisp
Nil
p274
(dp275
bsbsbsbsg22
(iplugins.pylisp
ConsCell
p276
(dp277
g16
(iplugins.pylisp
String
p278
(dp279
g39
S' - '
p280
sbsg22
(iplugins.pylisp
Nil
p281
(dp282
bsbsbsbsg22
(iplugins.pylisp
Nil
p283
(dp284
bsbsbsg22
(iplugins.pylisp
Nil
p285
(dp286
bsbsbsg94
(iplugins.pylisp
Nil
p287
(dp288
bsg105
g0
sbs(iplugins.pylisp
Symbol
p289
(dp290
S'name'
p291
S'hed|'
p292
sb(iplugins.pylisp
ConsCell
p293
(dp294
S'car'
p295
(iplugins.pylisp
Symbol
p296
(dp297
g291
S'\xe4ter'
p298
sbsS'cdr'
p299
(iplugins.pylisp
ConsCell
p300
(dp301
g295
(iplugins.pylisp
Symbol
p302
(dp303
g291
S'gr\xf6t,'
p304
sbsg299
(iplugins.pylisp
ConsCell
p305
(dp306
g295
(iplugins.pylisp
Symbol
p307
(dp308
g291
S'brb'
p309
sbsg299
(iplugins.pylisp
Nil
p310
(dp311
bsbsbsbs(iplugins.pylisp
Symbol
p312
(dp313
S'name'
p314
S'add'
p315
sb(iplugins.pylisp
Lambda
p316
(dp317
S'expression'
p318
(iplugins.pylisp
ExpressionBody
p319
(dp320
S'expressions'
p321
(iplugins.pylisp
ConsCell
p322
(dp323
S'car'
p324
(iplugins.pylisp
ConsCell
p325
(dp326
g324
(iplugins.pylisp
Symbol
p327
(dp328
S'name'
p329
S'-'
p330
sbsS'cdr'
p331
(iplugins.pylisp
ConsCell
p332
(dp333
g324
(iplugins.pylisp
Symbol
p334
(dp335
g329
S'a'
p336
sbsg331
(iplugins.pylisp
ConsCell
p337
(dp338
g324
(iplugins.pylisp
ConsCell
p339
(dp340
g324
(iplugins.pylisp
Symbol
p341
(dp342
g329
g330
sbsg331
(iplugins.pylisp
ConsCell
p343
(dp344
g324
(iplugins.pylisp
Integer
p345
(dp346
S'value'
p347
I0
sbsg331
(iplugins.pylisp
ConsCell
p348
(dp349
g324
(iplugins.pylisp
Symbol
p350
(dp351
g329
S'b'
p352
sbsg331
(iplugins.pylisp
Nil
p353
(dp354
bsbsbsbsg331
(iplugins.pylisp
Nil
p355
(dp356
bsbsbsbsg331
(iplugins.pylisp
Nil
p357
(dp358
bsbsbsS'parameters'
p359
(iplugins.pylisp
ConsCell
p360
(dp361
g324
(iplugins.pylisp
Symbol
p362
(dp363
g329
g336
sbsg331
(iplugins.pylisp
ConsCell
p364
(dp365
g324
(iplugins.pylisp
Symbol
p366
(dp367
g329
g352
sbsg331
(iplugins.pylisp
Nil
p368
(dp369
bsbsbsS'env'
p370
g0
sbs(iplugins.pylisp
Symbol
p371
(dp372
S'name'
p373
S'dxrandom'
p374
sb(iplugins.pylisp
Lambda
p375
(dp376
S'expression'
p377
(iplugins.pylisp
ExpressionBody
p378
(dp379
S'expressions'
p380
(iplugins.pylisp
ConsCell
p381
(dp382
S'car'
p383
(iplugins.pylisp
ConsCell
p384
(dp385
g383
(iplugins.pylisp
Symbol
p386
(dp387
g373
S'dxtitle'
p388
sbsS'cdr'
p389
(iplugins.pylisp
ConsCell
p390
(dp391
g383
(iplugins.pylisp
ConsCell
p392
(dp393
g383
(iplugins.pylisp
Symbol
p394
(dp395
g373
S'rand'
p396
sbsg389
(iplugins.pylisp
ConsCell
p397
(dp398
g383
(iplugins.pylisp
Integer
p399
(dp400
S'value'
p401
I20000
sbsg389
(iplugins.pylisp
Nil
p402
(dp403
bsbsbsg389
(iplugins.pylisp
Nil
p404
(dp405
bsbsbsg389
(iplugins.pylisp
Nil
p406
(dp407
bsbsbsS'parameters'
p408
(iplugins.pylisp
Nil
p409
(dp410
bsS'env'
p411
g0
sbs(iplugins.pylisp
Symbol
p412
(dp413
g108
S'flindeberg'
p414
sb(iplugins.pylisp
String
p415
(dp416
g39
S'Error 404: flindeberg not found'
p417
sbs(iplugins.pylisp
Symbol
p418
(dp419
S'name'
p420
S'factorial'
p421
sb(iplugins.pylisp
Lambda
p422
(dp423
S'expression'
p424
(iplugins.pylisp
ExpressionBody
p425
(dp426
S'expressions'
p427
(iplugins.pylisp
ConsCell
p428
(dp429
S'car'
p430
(iplugins.pylisp
ConsCell
p431
(dp432
g430
(iplugins.pylisp
Symbol
p433
(dp434
g114
S'if'
p435
sbsg121
(iplugins.pylisp
ConsCell
p436
(dp437
g430
(iplugins.pylisp
ConsCell
p438
(dp439
g430
(iplugins.pylisp
Symbol
p440
(dp441
g114
S'='
p442
sbsg121
(iplugins.pylisp
ConsCell
p443
(dp444
g430
(iplugins.pylisp
Symbol
p445
(dp446
g114
S'x'
p447
sbsg121
(iplugins.pylisp
ConsCell
p448
(dp449
g430
(iplugins.pylisp
Integer
p450
(dp451
S'value'
p452
I1
sbsg121
(iplugins.pylisp
Nil
p453
(dp454
bsbsbsbsg121
(iplugins.pylisp
ConsCell
p455
(dp456
g430
(iplugins.pylisp
Integer
p457
(dp458
g452
I1
sbsg121
(iplugins.pylisp
ConsCell
p459
(dp460
g430
(iplugins.pylisp
ConsCell
p461
(dp462
g430
(iplugins.pylisp
Symbol
p463
(dp464
g114
S'*'
p465
sbsg121
(iplugins.pylisp
ConsCell
p466
(dp467
g430
(iplugins.pylisp
Symbol
p468
(dp469
g114
g447
sbsg121
(iplugins.pylisp
ConsCell
p470
(dp471
g430
(iplugins.pylisp
ConsCell
p472
(dp473
g430
(iplugins.pylisp
Symbol
p474
(dp475
g114
S'factorial'
p476
sbsg121
(iplugins.pylisp
ConsCell
p477
(dp478
g430
(iplugins.pylisp
ConsCell
p479
(dp480
g430
(iplugins.pylisp
Symbol
p481
(dp482
g114
S'-'
p483
sbsg121
(iplugins.pylisp
ConsCell
p484
(dp485
g430
(iplugins.pylisp
Symbol
p486
(dp487
g114
g447
sbsg121
(iplugins.pylisp
ConsCell
p488
(dp489
g430
(iplugins.pylisp
Integer
p490
(dp491
g452
I1
sbsg121
(iplugins.pylisp
Nil
p492
(dp493
bsbsbsbsg121
(iplugins.pylisp
Nil
p494
(dp495
bsbsbsg121
(iplugins.pylisp
Nil
p496
(dp497
bsbsbsbsg121
(iplugins.pylisp
Nil
p498
(dp499
bsbsbsbsbsg121
(iplugins.pylisp
Nil
p500
(dp501
bsbsbsS'parameters'
p502
(iplugins.pylisp
ConsCell
p503
(dp504
g430
(iplugins.pylisp
Symbol
p505
(dp506
g114
g447
sbsg121
(iplugins.pylisp
Nil
p507
(dp508
bsbsS'env'
p509
g0
sbs(iplugins.pylisp
Symbol
p510
(dp511
S'name'
p512
S'add-2'
p513
sb(iplugins.pylisp
Lambda
p514
(dp515
S'expression'
p516
(iplugins.pylisp
ExpressionBody
p517
(dp518
S'expressions'
p519
(iplugins.pylisp
ConsCell
p520
(dp521
S'car'
p522
(iplugins.pylisp
ConsCell
p523
(dp524
g522
(iplugins.pylisp
Symbol
p525
(dp526
g512
S'+'
p527
sbsS'cdr'
p528
(iplugins.pylisp
ConsCell
p529
(dp530
g522
(iplugins.pylisp
Symbol
p531
(dp532
g512
S'a'
p533
sbsg528
(iplugins.pylisp
ConsCell
p534
(dp535
g522
(iplugins.pylisp
Integer
p536
(dp537
S'value'
p538
I2
sbsg528
(iplugins.pylisp
Nil
p539
(dp540
bsbsbsbsg528
(iplugins.pylisp
Nil
p541
(dp542
bsbsbsS'parameters'
p543
(iplugins.pylisp
ConsCell
p544
(dp545
g522
(iplugins.pylisp
Symbol
p546
(dp547
g512
g533
sbsg528
(iplugins.pylisp
Nil
p548
(dp549
bsbsS'env'
p550
g0
sbs(iplugins.pylisp
Symbol
p551
(dp552
S'name'
p553
S'mod'
p554
sb(iplugins.pylisp
Lambda
p555
(dp556
S'expression'
p557
(iplugins.pylisp
ExpressionBody
p558
(dp559
S'expressions'
p560
(iplugins.pylisp
ConsCell
p561
(dp562
S'car'
p563
(iplugins.pylisp
ConsCell
p564
(dp565
g563
(iplugins.pylisp
Symbol
p566
(dp567
g553
S'-'
p568
sbsS'cdr'
p569
(iplugins.pylisp
ConsCell
p570
(dp571
g563
(iplugins.pylisp
Symbol
p572
(dp573
g553
S'a'
p574
sbsg569
(iplugins.pylisp
ConsCell
p575
(dp576
g563
(iplugins.pylisp
ConsCell
p577
(dp578
g563
(iplugins.pylisp
Symbol
p579
(dp580
g553
S'*'
p581
sbsg569
(iplugins.pylisp
ConsCell
p582
(dp583
g563
(iplugins.pylisp
ConsCell
p584
(dp585
g563
(iplugins.pylisp
Symbol
p586
(dp587
g553
S'/'
p588
sbsg569
(iplugins.pylisp
ConsCell
p589
(dp590
g563
(iplugins.pylisp
Symbol
p591
(dp592
g553
g574
sbsg569
(iplugins.pylisp
ConsCell
p593
(dp594
g563
(iplugins.pylisp
Symbol
p595
(dp596
g553
S'b'
p597
sbsg569
(iplugins.pylisp
Nil
p598
(dp599
bsbsbsbsg569
(iplugins.pylisp
ConsCell
p600
(dp601
g563
(iplugins.pylisp
Symbol
p602
(dp603
g553
g597
sbsg569
(iplugins.pylisp
Nil
p604
(dp605
bsbsbsbsg569
(iplugins.pylisp
Nil
p606
(dp607
bsbsbsbsg569
(iplugins.pylisp
Nil
p608
(dp609
bsbsbsS'parameters'
p610
(iplugins.pylisp
ConsCell
p611
(dp612
g563
(iplugins.pylisp
Symbol
p613
(dp614
g553
g574
sbsg569
(iplugins.pylisp
ConsCell
p615
(dp616
g563
(iplugins.pylisp
Symbol
p617
(dp618
g553
g597
sbsg569
(iplugins.pylisp
Nil
p619
(dp620
bsbsbsS'env'
p621
g0
sbs(iplugins.pylisp
Symbol
p622
(dp623
g6
S'fakultet'
p624
sb(iplugins.pylisp
Lambda
p625
(dp626
g10
(iplugins.pylisp
ExpressionBody
p627
(dp628
g13
(iplugins.pylisp
ConsCell
p629
(dp630
g16
(iplugins.pylisp
ConsCell
p631
(dp632
g16
(iplugins.pylisp
Symbol
p633
(dp634
g6
S'factorial'
p635
sbsg22
(iplugins.pylisp
ConsCell
p636
(dp637
g16
(iplugins.pylisp
Symbol
p638
(dp639
g6
g34
sbsg22
(iplugins.pylisp
Nil
p640
(dp641
bsbsbsg22
(iplugins.pylisp
Nil
p642
(dp643
bsbsbsg94
(iplugins.pylisp
ConsCell
p644
(dp645
g16
(iplugins.pylisp
Symbol
p646
(dp647
g6
g34
sbsg22
(iplugins.pylisp
Nil
p648
(dp649
bsbsg105
g0
sbs(iplugins.pylisp
Symbol
p650
(dp651
S'name'
p652
S'level'
p653
sb(iplugins.pylisp
Integer
p654
(dp655
S'value'
p656
I2
sbs(iplugins.pylisp
Symbol
p657
(dp658
g291
S'*bananfisk*'
p659
sb(iplugins.pylisp
Integer
p660
(dp661
S'value'
p662
I1
sbs(iplugins.pylisp
Quoted
p663
(dp664
S'quoted_expression'
p665
(iplugins.pylisp
Symbol
p666
(dp667
g512
g533
sbsb(iplugins.pylisp
Integer
p668
(dp669
g538
I2
sbs(iplugins.pylisp
Symbol
p670
(dp671
S'name'
p672
S't'
p673
sb(iplugins.pylisp
True
p674
(dp675
bs(iplugins.pylisp
Symbol
p676
(dp677
g108
S'nsfw'
p678
sb(iplugins.pylisp
Lambda
p679
(dp680
S'expression'
p681
(iplugins.pylisp
ExpressionBody
p682
(dp683
S'expressions'
p684
(iplugins.pylisp
ConsCell
p685
(dp686
S'car'
p687
(iplugins.pylisp
ConsCell
p688
(dp689
g687
(iplugins.pylisp
Symbol
p690
(dp691
g108
S'zip'
p692
sbsS'cdr'
p693
(iplugins.pylisp
ConsCell
p694
(dp695
g687
(iplugins.pylisp
ConsCell
p696
(dp697
g687
(iplugins.pylisp
Symbol
p698
(dp699
g108
S'copies'
p700
sbsg693
(iplugins.pylisp
ConsCell
p701
(dp702
g687
(iplugins.pylisp
Symbol
p703
(dp704
g108
S'n'
p705
sbsg693
(iplugins.pylisp
ConsCell
p706
(dp707
g687
(iplugins.pylisp
Symbol
p708
(dp709
g108
S'boobs'
p710
sbsg693
(iplugins.pylisp
Nil
p711
(dp712
bsbsbsbsg693
(iplugins.pylisp
ConsCell
p713
(dp714
g687
(iplugins.pylisp
ConsCell
p715
(dp716
g687
(iplugins.pylisp
Symbol
p717
(dp718
g108
S'copies'
p719
sbsg693
(iplugins.pylisp
ConsCell
p720
(dp721
g687
(iplugins.pylisp
Symbol
p722
(dp723
g108
g705
sbsg693
(iplugins.pylisp
ConsCell
p724
(dp725
g687
(iplugins.pylisp
Symbol
p726
(dp727
g108
S'kuk'
p728
sbsg693
(iplugins.pylisp
Nil
p729
(dp730
bsbsbsbsg693
(iplugins.pylisp
Nil
p731
(dp732
bsbsbsbsg693
(iplugins.pylisp
Nil
p733
(dp734
bsbsbsS'parameters'
p735
(iplugins.pylisp
ConsCell
p736
(dp737
g687
(iplugins.pylisp
Symbol
p738
(dp739
g108
g705
sbsg693
(iplugins.pylisp
Nil
p740
(dp741
bsbsS'env'
p742
g0
sbs(iplugins.pylisp
Symbol
p743
(dp744
S'name'
p745
S'google'
p746
sb(iplugins.pylisp
Lambda
p747
(dp748
S'expression'
p749
(iplugins.pylisp
ExpressionBody
p750
(dp751
S'expressions'
p752
(iplugins.pylisp
ConsCell
p753
(dp754
S'car'
p755
(iplugins.pylisp
ConsCell
p756
(dp757
g755
(iplugins.pylisp
Symbol
p758
(dp759
g745
S'command'
p760
sbsS'cdr'
p761
(iplugins.pylisp
ConsCell
p762
(dp763
g755
(iplugins.pylisp
String
p764
(dp765
S'value'
p766
S'google'
p767
sbsg761
(iplugins.pylisp
ConsCell
p768
(dp769
g755
(iplugins.pylisp
Symbol
p770
(dp771
g745
S's'
p772
sbsg761
(iplugins.pylisp
Nil
p773
(dp774
bsbsbsbsg761
(iplugins.pylisp
Nil
p775
(dp776
bsbsbsS'parameters'
p777
(iplugins.pylisp
ConsCell
p778
(dp779
g755
(iplugins.pylisp
Symbol
p780
(dp781
g745
g772
sbsg761
(iplugins.pylisp
Nil
p782
(dp783
bsbsS'env'
p784
g0
sbs(iplugins.pylisp
Symbol
p785
(dp786
S'name'
p787
S'grul'
p788
sb(iplugins.pylisp
Symbol
p789
(dp790
g787
S'ensam'
p791
sbs(iplugins.pylisp
Symbol
p792
(dp793
g291
S'fisk'
p794
sb(iplugins.pylisp
Lambda
p795
(dp796
S'expression'
p797
(iplugins.pylisp
ExpressionBody
p798
(dp799
S'expressions'
p800
(iplugins.pylisp
ConsCell
p801
(dp802
g295
(iplugins.pylisp
ConsCell
p803
(dp804
g295
(iplugins.pylisp
Symbol
p805
(dp806
g291
S'print'
p807
sbsg299
(iplugins.pylisp
ConsCell
p808
(dp809
g295
(iplugins.pylisp
String
p810
(dp811
g662
S'mm, fisk!'
p812
sbsg299
(iplugins.pylisp
Nil
p813
(dp814
bsbsbsg299
(iplugins.pylisp
Nil
p815
(dp816
bsbsbsS'parameters'
p817
(iplugins.pylisp
Nil
p818
(dp819
bsS'env'
p820
g0
sbs(iplugins.pylisp
Symbol
p821
(dp822
g291
S'Sebban'
p823
sb(iplugins.pylisp
ConsCell
p824
(dp825
g295
(iplugins.pylisp
Symbol
p826
(dp827
g291
S'EFG'
p828
sbsg299
(iplugins.pylisp
Nil
p829
(dp830
bsbs(iplugins.pylisp
Symbol
p831
(dp832
g745
S'reduce'
p833
sb(iplugins.pylisp
Lambda
p834
(dp835
g749
(iplugins.pylisp
ExpressionBody
p836
(dp837
g752
(iplugins.pylisp
ConsCell
p838
(dp839
g755
(iplugins.pylisp
ConsCell
p840
(dp841
g755
(iplugins.pylisp
Symbol
p842
(dp843
g745
S'if'
p844
sbsg761
(iplugins.pylisp
ConsCell
p845
(dp846
g755
(iplugins.pylisp
ConsCell
p847
(dp848
g755
(iplugins.pylisp
Symbol
p849
(dp850
g745
S'endp'
p851
sbsg761
(iplugins.pylisp
ConsCell
p852
(dp853
g755
(iplugins.pylisp
ConsCell
p854
(dp855
g755
(iplugins.pylisp
Symbol
p856
(dp857
g745
S'cdr'
p858
sbsg761
(iplugins.pylisp
ConsCell
p859
(dp860
g755
(iplugins.pylisp
Symbol
p861
(dp862
g745
S'l'
p863
sbsg761
(iplugins.pylisp
Nil
p864
(dp865
bsbsbsg761
(iplugins.pylisp
Nil
p866
(dp867
bsbsbsg761
(iplugins.pylisp
ConsCell
p868
(dp869
g755
(iplugins.pylisp
ConsCell
p870
(dp871
g755
(iplugins.pylisp
Symbol
p872
(dp873
g745
S'car'
p874
sbsg761
(iplugins.pylisp
ConsCell
p875
(dp876
g755
(iplugins.pylisp
Symbol
p877
(dp878
g745
g863
sbsg761
(iplugins.pylisp
Nil
p879
(dp880
bsbsbsg761
(iplugins.pylisp
ConsCell
p881
(dp882
g755
(iplugins.pylisp
ConsCell
p883
(dp884
g755
(iplugins.pylisp
Symbol
p885
(dp886
g745
S'f'
p887
sbsg761
(iplugins.pylisp
ConsCell
p888
(dp889
g755
(iplugins.pylisp
ConsCell
p890
(dp891
g755
(iplugins.pylisp
Symbol
p892
(dp893
g745
S'car'
p894
sbsg761
(iplugins.pylisp
ConsCell
p895
(dp896
g755
(iplugins.pylisp
Symbol
p897
(dp898
g745
g863
sbsg761
(iplugins.pylisp
Nil
p899
(dp900
bsbsbsg761
(iplugins.pylisp
ConsCell
p901
(dp902
g755
(iplugins.pylisp
ConsCell
p903
(dp904
g755
(iplugins.pylisp
Symbol
p905
(dp906
g745
S'reduce'
p907
sbsg761
(iplugins.pylisp
ConsCell
p908
(dp909
g755
(iplugins.pylisp
Symbol
p910
(dp911
g745
g887
sbsg761
(iplugins.pylisp
ConsCell
p912
(dp913
g755
(iplugins.pylisp
ConsCell
p914
(dp915
g755
(iplugins.pylisp
Symbol
p916
(dp917
g745
S'cdr'
p918
sbsg761
(iplugins.pylisp
ConsCell
p919
(dp920
g755
(iplugins.pylisp
Symbol
p921
(dp922
g745
g863
sbsg761
(iplugins.pylisp
Nil
p923
(dp924
bsbsbsg761
(iplugins.pylisp
Nil
p925
(dp926
bsbsbsbsg761
(iplugins.pylisp
Nil
p927
(dp928
bsbsbsbsg761
(iplugins.pylisp
Nil
p929
(dp930
bsbsbsbsbsg761
(iplugins.pylisp
Nil
p931
(dp932
bsbsbsg777
(iplugins.pylisp
ConsCell
p933
(dp934
g755
(iplugins.pylisp
Symbol
p935
(dp936
g745
g887
sbsg761
(iplugins.pylisp
ConsCell
p937
(dp938
g755
(iplugins.pylisp
Symbol
p939
(dp940
g745
g863
sbsg761
(iplugins.pylisp
Nil
p941
(dp942
bsbsbsg784
g0
sbs(iplugins.pylisp
Symbol
p943
(dp944
g6
S'str-join'
p945
sb(iplugins.pylisp
Lambda
p946
(dp947
g10
(iplugins.pylisp
ExpressionBody
p948
(dp949
g13
(iplugins.pylisp
ConsCell
p950
(dp951
g16
(iplugins.pylisp
ConsCell
p952
(dp953
g16
(iplugins.pylisp
Symbol
p954
(dp955
g6
S'reduce'
p956
sbsg22
(iplugins.pylisp
ConsCell
p957
(dp958
g16
(iplugins.pylisp
ConsCell
p959
(dp960
g16
(iplugins.pylisp
Symbol
p961
(dp962
g6
S'lambda'
p963
sbsg22
(iplugins.pylisp
ConsCell
p964
(dp965
g16
(iplugins.pylisp
ConsCell
p966
(dp967
g16
(iplugins.pylisp
Symbol
p968
(dp969
g6
S'a'
p970
sbsg22
(iplugins.pylisp
ConsCell
p971
(dp972
g16
(iplugins.pylisp
Symbol
p973
(dp974
g6
S'b'
p975
sbsg22
(iplugins.pylisp
Nil
p976
(dp977
bsbsbsg22
(iplugins.pylisp
ConsCell
p978
(dp979
g16
(iplugins.pylisp
ConsCell
p980
(dp981
g16
(iplugins.pylisp
Symbol
p982
(dp983
g6
S'str-append'
p984
sbsg22
(iplugins.pylisp
ConsCell
p985
(dp986
g16
(iplugins.pylisp
Symbol
p987
(dp988
g6
g970
sbsg22
(iplugins.pylisp
ConsCell
p989
(dp990
g16
(iplugins.pylisp
ConsCell
p991
(dp992
g16
(iplugins.pylisp
Symbol
p993
(dp994
g6
S'str-append'
p995
sbsg22
(iplugins.pylisp
ConsCell
p996
(dp997
g16
(iplugins.pylisp
Symbol
p998
(dp999
g6
g46
sbsg22
(iplugins.pylisp
ConsCell
p1000
(dp1001
g16
(iplugins.pylisp
Symbol
p1002
(dp1003
g6
g975
sbsg22
(iplugins.pylisp
Nil
p1004
(dp1005
bsbsbsbsg22
(iplugins.pylisp
Nil
p1006
(dp1007
bsbsbsbsg22
(iplugins.pylisp
Nil
p1008
(dp1009
bsbsbsbsg22
(iplugins.pylisp
ConsCell
p1010
(dp1011
g16
(iplugins.pylisp
Symbol
p1012
(dp1013
g6
S'l'
p1014
sbsg22
(iplugins.pylisp
Nil
p1015
(dp1016
bsbsbsbsg22
(iplugins.pylisp
Nil
p1017
(dp1018
bsbsbsg94
(iplugins.pylisp
ConsCell
p1019
(dp1020
g16
(iplugins.pylisp
Symbol
p1021
(dp1022
g6
g1014
sbsg22
(iplugins.pylisp
ConsCell
p1023
(dp1024
g16
(iplugins.pylisp
Symbol
p1025
(dp1026
g6
g46
sbsg22
(iplugins.pylisp
Nil
p1027
(dp1028
bsbsbsg105
g0
sbs(iplugins.pylisp
Symbol
p1029
(dp1030
g787
S'dvd4GB'
p1031
sb(iplugins.pylisp
Integer
p1032
(dp1033
S'value'
p1034
I42
sbs(iplugins.pylisp
Symbol
p1035
(dp1036
g745
S'second'
p1037
sb(iplugins.pylisp
Lambda
p1038
(dp1039
g749
(iplugins.pylisp
ExpressionBody
p1040
(dp1041
g752
(iplugins.pylisp
ConsCell
p1042
(dp1043
g755
(iplugins.pylisp
ConsCell
p1044
(dp1045
g755
(iplugins.pylisp
Symbol
p1046
(dp1047
g745
S'nth'
p1048
sbsg761
(iplugins.pylisp
ConsCell
p1049
(dp1050
g755
(iplugins.pylisp
Symbol
p1051
(dp1052
g745
g863
sbsg761
(iplugins.pylisp
ConsCell
p1053
(dp1054
g755
(iplugins.pylisp
Integer
p1055
(dp1056
g766
I1
sbsg761
(iplugins.pylisp
Nil
p1057
(dp1058
bsbsbsbsg761
(iplugins.pylisp
Nil
p1059
(dp1060
bsbsbsg777
(iplugins.pylisp
ConsCell
p1061
(dp1062
g755
(iplugins.pylisp
Symbol
p1063
(dp1064
g745
g863
sbsg761
(iplugins.pylisp
Nil
p1065
(dp1066
bsbsg784
g0
sbs(iplugins.pylisp
Symbol
p1067
(dp1068
S'name'
p1069
S'k\xc3\xb6tt'
p1070
sb(iplugins.pylisp
Symbol
p1071
(dp1072
g1069
S'\xe7\xb2\xbe\xe8\x82\x89'
p1073
sbs(iplugins.pylisp
Symbol
p1074
(dp1075
g512
S'abc'
p1076
sb(iplugins.pylisp
Lambda
p1077
(dp1078
g797
(iplugins.pylisp
ExpressionBody
p1079
(dp1080
g800
(iplugins.pylisp
ConsCell
p1081
(dp1082
g295
(iplugins.pylisp
ConsCell
p1083
(dp1084
g295
(iplugins.pylisp
Symbol
p1085
(dp1086
g291
S'abc'
p1087
sbsg299
(iplugins.pylisp
ConsCell
p1088
(dp1089
g295
(iplugins.pylisp
Symbol
p1090
(dp1091
g291
S'x'
p1092
sbsg299
(iplugins.pylisp
Nil
p1093
(dp1094
bsbsbsg299
(iplugins.pylisp
Nil
p1095
(dp1096
bsbsbsg817
(iplugins.pylisp
ConsCell
p1097
(dp1098
g295
(iplugins.pylisp
Symbol
p1099
(dp1100
g291
g1092
sbsg299
(iplugins.pylisp
Nil
p1101
(dp1102
bsbsg820
g0
sbs(iplugins.pylisp
Symbol
p1103
(dp1104
g6
S'k\xc3\xb6p'
p1105
sb(iplugins.pylisp
Lambda
p1106
(dp1107
g10
(iplugins.pylisp
ExpressionBody
p1108
(dp1109
g13
(iplugins.pylisp
ConsCell
p1110
(dp1111
g16
(iplugins.pylisp
ConsCell
p1112
(dp1113
g16
(iplugins.pylisp
Symbol
p1114
(dp1115
g6
S'str-append'
p1116
sbsg22
(iplugins.pylisp
ConsCell
p1117
(dp1118
g16
(iplugins.pylisp
String
p1119
(dp1120
g39
S'k'
p1121
sbsg22
(iplugins.pylisp
ConsCell
p1122
(dp1123
g16
(iplugins.pylisp
ConsCell
p1124
(dp1125
g16
(iplugins.pylisp
Symbol
p1126
(dp1127
g6
S'str-append'
p1128
sbsg22
(iplugins.pylisp
ConsCell
p1129
(dp1130
g16
(iplugins.pylisp
ConsCell
p1131
(dp1132
g16
(iplugins.pylisp
Symbol
p1133
(dp1134
g6
S'stimes'
p1135
sbsg22
(iplugins.pylisp
ConsCell
p1136
(dp1137
g16
(iplugins.pylisp
Symbol
p1138
(dp1139
g6
g34
sbsg22
(iplugins.pylisp
ConsCell
p1140
(dp1141
g16
(iplugins.pylisp
String
p1142
(dp1143
g39
S'\xc3\xb6'
p1144
sbsg22
(iplugins.pylisp
Nil
p1145
(dp1146
bsbsbsbsg22
(iplugins.pylisp
ConsCell
p1147
(dp1148
g16
(iplugins.pylisp
String
p1149
(dp1150
g39
S'p'
p1151
sbsg22
(iplugins.pylisp
Nil
p1152
(dp1153
bsbsbsbsg22
(iplugins.pylisp
Nil
p1154
(dp1155
bsbsbsbsg22
(iplugins.pylisp
Nil
p1156
(dp1157
bsbsbsg94
(iplugins.pylisp
ConsCell
p1158
(dp1159
g16
(iplugins.pylisp
Symbol
p1160
(dp1161
g6
g34
sbsg22
(iplugins.pylisp
Nil
p1162
(dp1163
bsbsg105
g0
sbs(iplugins.pylisp
Symbol
p1164
(dp1165
g114
S'caaar'
p1166
sb(iplugins.pylisp
Lambda
p1167
(dp1168
g424
(iplugins.pylisp
ExpressionBody
p1169
(dp1170
g427
(iplugins.pylisp
ConsCell
p1171
(dp1172
g430
(iplugins.pylisp
ConsCell
p1173
(dp1174
g430
(iplugins.pylisp
Symbol
p1175
(dp1176
g114
S'car'
p1177
sbsg121
(iplugins.pylisp
ConsCell
p1178
(dp1179
g430
(iplugins.pylisp
ConsCell
p1180
(dp1181
g430
(iplugins.pylisp
Symbol
p1182
(dp1183
g114
S'car'
p1184
sbsg121
(iplugins.pylisp
ConsCell
p1185
(dp1186
g430
(iplugins.pylisp
ConsCell
p1187
(dp1188
g430
(iplugins.pylisp
Symbol
p1189
(dp1190
g114
S'car'
p1191
sbsg121
(iplugins.pylisp
ConsCell
p1192
(dp1193
g430
(iplugins.pylisp
Symbol
p1194
(dp1195
g114
g447
sbsg121
(iplugins.pylisp
Nil
p1196
(dp1197
bsbsbsg121
(iplugins.pylisp
Nil
p1198
(dp1199
bsbsbsg121
(iplugins.pylisp
Nil
p1200
(dp1201
bsbsbsg121
(iplugins.pylisp
Nil
p1202
(dp1203
bsbsbsg502
(iplugins.pylisp
ConsCell
p1204
(dp1205
g430
(iplugins.pylisp
Symbol
p1206
(dp1207
g114
g447
sbsg121
(iplugins.pylisp
Nil
p1208
(dp1209
bsbsg509
g0
sbs(iplugins.pylisp
Symbol
p1210
(dp1211
g329
S'+'
p1212
sb(iplugins.pylisp
Lambda
p1213
(dp1214
S'expression'
p1215
(iplugins.pylisp
ExpressionBody
p1216
(dp1217
S'expressions'
p1218
(iplugins.pylisp
ConsCell
p1219
(dp1220
S'car'
p1221
(iplugins.pylisp
ConsCell
p1222
(dp1223
g1221
(iplugins.pylisp
Symbol
p1224
(dp1225
S'name'
p1226
S'-'
p1227
sbsS'cdr'
p1228
(iplugins.pylisp
ConsCell
p1229
(dp1230
g1221
(iplugins.pylisp
Symbol
p1231
(dp1232
g1226
S'a'
p1233
sbsg1228
(iplugins.pylisp
ConsCell
p1234
(dp1235
g1221
(iplugins.pylisp
ConsCell
p1236
(dp1237
g1221
(iplugins.pylisp
Symbol
p1238
(dp1239
g1226
g1227
sbsg1228
(iplugins.pylisp
ConsCell
p1240
(dp1241
g1221
(iplugins.pylisp
Integer
p1242
(dp1243
S'value'
p1244
I0
sbsg1228
(iplugins.pylisp
ConsCell
p1245
(dp1246
g1221
(iplugins.pylisp
Symbol
p1247
(dp1248
g1226
S'b'
p1249
sbsg1228
(iplugins.pylisp
Nil
p1250
(dp1251
bsbsbsbsg1228
(iplugins.pylisp
Nil
p1252
(dp1253
bsbsbsbsg1228
(iplugins.pylisp
Nil
p1254
(dp1255
bsbsbsS'parameters'
p1256
(iplugins.pylisp
ConsCell
p1257
(dp1258
g1221
(iplugins.pylisp
Symbol
p1259
(dp1260
g1226
g1233
sbsg1228
(iplugins.pylisp
ConsCell
p1261
(dp1262
g1221
(iplugins.pylisp
Symbol
p1263
(dp1264
g1226
g1249
sbsg1228
(iplugins.pylisp
Nil
p1265
(dp1266
bsbsbsS'env'
p1267
g0
sbs(iplugins.pylisp
Symbol
p1268
(dp1269
S'name'
p1270
S'magic-8-ball'
p1271
sb(iplugins.pylisp
Lambda
p1272
(dp1273
S'expression'
p1274
(iplugins.pylisp
ExpressionBody
p1275
(dp1276
S'expressions'
p1277
(iplugins.pylisp
ConsCell
p1278
(dp1279
S'car'
p1280
(iplugins.pylisp
ConsCell
p1281
(dp1282
g1280
(iplugins.pylisp
Symbol
p1283
(dp1284
g1270
S'nth'
p1285
sbsS'cdr'
p1286
(iplugins.pylisp
ConsCell
p1287
(dp1288
g1280
(iplugins.pylisp
Quoted
p1289
(dp1290
S'quoted_expression'
p1291
(iplugins.pylisp
ConsCell
p1292
(dp1293
g1280
(iplugins.pylisp
String
p1294
(dp1295
S'value'
p1296
S'As I see it, yes'
p1297
sbsg1286
(iplugins.pylisp
ConsCell
p1298
(dp1299
g1280
(iplugins.pylisp
String
p1300
(dp1301
g1296
S'It is certain'
p1302
sbsg1286
(iplugins.pylisp
ConsCell
p1303
(dp1304
g1280
(iplugins.pylisp
String
p1305
(dp1306
g1296
S'It is decidedly so'
p1307
sbsg1286
(iplugins.pylisp
ConsCell
p1308
(dp1309
g1280
(iplugins.pylisp
String
p1310
(dp1311
g1296
S'Most likely'
p1312
sbsg1286
(iplugins.pylisp
ConsCell
p1313
(dp1314
g1280
(iplugins.pylisp
String
p1315
(dp1316
g1296
S'Outlook good'
p1317
sbsg1286
(iplugins.pylisp
ConsCell
p1318
(dp1319
g1280
(iplugins.pylisp
String
p1320
(dp1321
g1296
S'Signs point to yes'
p1322
sbsg1286
(iplugins.pylisp
ConsCell
p1323
(dp1324
g1280
(iplugins.pylisp
String
p1325
(dp1326
g1296
S'Without a doubt'
p1327
sbsg1286
(iplugins.pylisp
ConsCell
p1328
(dp1329
g1280
(iplugins.pylisp
String
p1330
(dp1331
g1296
S'Yes'
p1332
sbsg1286
(iplugins.pylisp
ConsCell
p1333
(dp1334
g1280
(iplugins.pylisp
String
p1335
(dp1336
g1296
S'Yes - definitely'
p1337
sbsg1286
(iplugins.pylisp
ConsCell
p1338
(dp1339
g1280
(iplugins.pylisp
String
p1340
(dp1341
g1296
S'You may rely on it'
p1342
sbsg1286
(iplugins.pylisp
ConsCell
p1343
(dp1344
g1280
(iplugins.pylisp
String
p1345
(dp1346
g1296
S'Reply hazy, try again'
p1347
sbsg1286
(iplugins.pylisp
ConsCell
p1348
(dp1349
g1280
(iplugins.pylisp
String
p1350
(dp1351
g1296
S'Ask again later'
p1352
sbsg1286
(iplugins.pylisp
ConsCell
p1353
(dp1354
g1280
(iplugins.pylisp
String
p1355
(dp1356
g1296
S'Better not tell you now'
p1357
sbsg1286
(iplugins.pylisp
ConsCell
p1358
(dp1359
g1280
(iplugins.pylisp
String
p1360
(dp1361
g1296
S'Cannot predict now'
p1362
sbsg1286
(iplugins.pylisp
ConsCell
p1363
(dp1364
g1280
(iplugins.pylisp
String
p1365
(dp1366
g1296
S'Concentrace and ask again'
p1367
sbsg1286
(iplugins.pylisp
ConsCell
p1368
(dp1369
g1280
(iplugins.pylisp
String
p1370
(dp1371
g1296
S"Don't count on it"
p1372
sbsg1286
(iplugins.pylisp
ConsCell
p1373
(dp1374
g1280
(iplugins.pylisp
String
p1375
(dp1376
g1296
S'My reply is no'
p1377
sbsg1286
(iplugins.pylisp
ConsCell
p1378
(dp1379
g1280
(iplugins.pylisp
String
p1380
(dp1381
g1296
S'My sources say no'
p1382
sbsg1286
(iplugins.pylisp
ConsCell
p1383
(dp1384
g1280
(iplugins.pylisp
String
p1385
(dp1386
g1296
S'Outlook not so good'
p1387
sbsg1286
(iplugins.pylisp
ConsCell
p1388
(dp1389
g1280
(iplugins.pylisp
String
p1390
(dp1391
g1296
S'Very doubtful'
p1392
sbsg1286
(iplugins.pylisp
Nil
p1393
(dp1394
bsbsbsbsbsbsbsbsbsbsbsbsbsbsbsbsbsbsbsbsbsbsg1286
(iplugins.pylisp
ConsCell
p1395
(dp1396
g1280
(iplugins.pylisp
ConsCell
p1397
(dp1398
g1280
(iplugins.pylisp
Symbol
p1399
(dp1400
g1270
S'rand'
p1401
sbsg1286
(iplugins.pylisp
ConsCell
p1402
(dp1403
g1280
(iplugins.pylisp
Integer
p1404
(dp1405
g1296
I20
sbsg1286
(iplugins.pylisp
Nil
p1406
(dp1407
bsbsbsg1286
(iplugins.pylisp
Nil
p1408
(dp1409
bsbsbsbsg1286
(iplugins.pylisp
Nil
p1410
(dp1411
bsbsbsS'parameters'
p1412
(iplugins.pylisp
Nil
p1413
(dp1414
bsS'env'
p1415
g0
sbs(iplugins.pylisp
Symbol
p1416
(dp1417
S'name'
p1418
S'kuk'
p1419
sb(iplugins.pylisp
Symbol
p1420
(dp1421
g108
S'C===========8'
p1422
sbs(iplugins.pylisp
Symbol
p1423
(dp1424
g1069
S'festern'
p1425
sb(iplugins.pylisp
ConsCell
p1426
(dp1427
S'car'
p1428
(iplugins.pylisp
Symbol
p1429
(dp1430
g1069
S'\xc3\xb6l'
p1431
sbsS'cdr'
p1432
(iplugins.pylisp
Symbol
p1433
(dp1434
g1069
S'k\xc3\xb6tt'
p1435
sbsbs(iplugins.pylisp
Symbol
p1436
(dp1437
g108
S'inversern'
p1438
sb(iplugins.pylisp
Lambda
p1439
(dp1440
g681
(iplugins.pylisp
ExpressionBody
p1441
(dp1442
g684
(iplugins.pylisp
ConsCell
p1443
(dp1444
g687
(iplugins.pylisp
ConsCell
p1445
(dp1446
g687
(iplugins.pylisp
Symbol
p1447
(dp1448
g108
S'if'
p1449
sbsg693
(iplugins.pylisp
ConsCell
p1450
(dp1451
g687
(iplugins.pylisp
ConsCell
p1452
(dp1453
g687
(iplugins.pylisp
Symbol
p1454
(dp1455
g108
S'eq'
p1456
sbsg693
(iplugins.pylisp
ConsCell
p1457
(dp1458
g687
(iplugins.pylisp
Symbol
p1459
(dp1460
g108
S'inputern'
p1461
sbsg693
(iplugins.pylisp
ConsCell
p1462
(dp1463
g687
(iplugins.pylisp
Quoted
p1464
(dp1465
S'quoted_expression'
p1466
(iplugins.pylisp
Symbol
p1467
(dp1468
g108
S'b\xc3\xa4st'
p1469
sbsbsg693
(iplugins.pylisp
Nil
p1470
(dp1471
bsbsbsbsg693
(iplugins.pylisp
ConsCell
p1472
(dp1473
g687
(iplugins.pylisp
Quoted
p1474
(dp1475
g1466
(iplugins.pylisp
Symbol
p1476
(dp1477
g108
S's\xc3\xa4mst'
p1478
sbsbsg693
(iplugins.pylisp
ConsCell
p1479
(dp1480
g687
(iplugins.pylisp
Quoted
p1481
(dp1482
g1466
(iplugins.pylisp
Symbol
p1483
(dp1484
g108
S'b\xc3\xa4st'
p1485
sbsbsg693
(iplugins.pylisp
Nil
p1486
(dp1487
bsbsbsbsbsg693
(iplugins.pylisp
Nil
p1488
(dp1489
bsbsbsg735
(iplugins.pylisp
ConsCell
p1490
(dp1491
g687
(iplugins.pylisp
Symbol
p1492
(dp1493
g108
S'inputern'
p1494
sbsg693
(iplugins.pylisp
Nil
p1495
(dp1496
bsbsg742
g0
sbs(iplugins.pylisp
Symbol
p1497
(dp1498
g1270
S'eight-ball'
p1499
sb(iplugins.pylisp
Integer
p1500
(dp1501
g1296
I123
sbs(iplugins.pylisp
Symbol
p1502
(dp1503
g745
S'boobs'
p1504
sb(iplugins.pylisp
ConsCell
p1505
(dp1506
g755
(iplugins.pylisp
Symbol
p1507
(dp1508
g745
S'\xc2\xa0'
p1509
sbsg761
(iplugins.pylisp
ConsCell
p1510
(dp1511
g755
(iplugins.pylisp
Symbol
p1512
(dp1513
g745
S'\xc2\xb7'
p1514
sbsg761
(iplugins.pylisp
ConsCell
p1515
(dp1516
g755
(iplugins.pylisp
Symbol
p1517
(dp1518
g745
S'\xc2\xa0Y\xc2\xa0'
p1519
sbsg761
(iplugins.pylisp
ConsCell
p1520
(dp1521
g755
(iplugins.pylisp
Symbol
p1522
(dp1523
g745
S'\xc2\xb7'
p1524
sbsg761
(iplugins.pylisp
ConsCell
p1525
(dp1526
g755
(iplugins.pylisp
Symbol
p1527
(dp1528
g745
S'\xc2\xa0'
p1529
sbsg761
(iplugins.pylisp
Nil
p1530
(dp1531
bsbsbsbsbsbs(iplugins.pylisp
Symbol
p1532
(dp1533
g1069
S'boll'
p1534
sb(iplugins.pylisp
Integer
p1535
(dp1536
S'value'
p1537
I3
sbs(iplugins.pylisp
Symbol
p1538
(dp1539
g291
S'blubb'
p1540
sb(iplugins.pylisp
Lambda
p1541
(dp1542
S'expression'
p1543
(iplugins.pylisp
ExpressionBody
p1544
(dp1545
S'expressions'
p1546
(iplugins.pylisp
ConsCell
p1547
(dp1548
S'car'
p1549
(iplugins.pylisp
Symbol
p1550
(dp1551
S'name'
p1552
S'blubb'
p1553
sbsS'cdr'
p1554
(iplugins.pylisp
Nil
p1555
(dp1556
bsbsbsS'parameters'
p1557
(iplugins.pylisp
Nil
p1558
(dp1559
bsS'env'
p1560
g0
sbs(iplugins.pylisp
Symbol
p1561
(dp1562
g1270
S'nth'
p1563
sb(iplugins.pylisp
Lambda
p1564
(dp1565
S'expression'
p1566
(iplugins.pylisp
ExpressionBody
p1567
(dp1568
S'expressions'
p1569
(iplugins.pylisp
ConsCell
p1570
(dp1571
S'car'
p1572
(iplugins.pylisp
ConsCell
p1573
(dp1574
g1572
(iplugins.pylisp
Symbol
p1575
(dp1576
S'name'
p1577
S'if'
p1578
sbsS'cdr'
p1579
(iplugins.pylisp
ConsCell
p1580
(dp1581
g1572
(iplugins.pylisp
ConsCell
p1582
(dp1583
g1572
(iplugins.pylisp
Symbol
p1584
(dp1585
g1577
S'='
p1586
sbsg1579
(iplugins.pylisp
ConsCell
p1587
(dp1588
g1572
(iplugins.pylisp
Symbol
p1589
(dp1590
g1577
S'n'
p1591
sbsg1579
(iplugins.pylisp
ConsCell
p1592
(dp1593
g1572
(iplugins.pylisp
Integer
p1594
(dp1595
S'value'
p1596
I0
sbsg1579
(iplugins.pylisp
Nil
p1597
(dp1598
bsbsbsbsg1579
(iplugins.pylisp
ConsCell
p1599
(dp1600
g1572
(iplugins.pylisp
ConsCell
p1601
(dp1602
g1572
(iplugins.pylisp
Symbol
p1603
(dp1604
g1577
S'car'
p1605
sbsg1579
(iplugins.pylisp
ConsCell
p1606
(dp1607
g1572
(iplugins.pylisp
Symbol
p1608
(dp1609
g1577
S'l'
p1610
sbsg1579
(iplugins.pylisp
Nil
p1611
(dp1612
bsbsbsg1579
(iplugins.pylisp
ConsCell
p1613
(dp1614
g1572
(iplugins.pylisp
ConsCell
p1615
(dp1616
g1572
(iplugins.pylisp
Symbol
p1617
(dp1618
g1577
S'nth'
p1619
sbsg1579
(iplugins.pylisp
ConsCell
p1620
(dp1621
g1572
(iplugins.pylisp
ConsCell
p1622
(dp1623
g1572
(iplugins.pylisp
Symbol
p1624
(dp1625
g1577
S'-'
p1626
sbsg1579
(iplugins.pylisp
ConsCell
p1627
(dp1628
g1572
(iplugins.pylisp
Symbol
p1629
(dp1630
g1577
g1591
sbsg1579
(iplugins.pylisp
ConsCell
p1631
(dp1632
g1572
(iplugins.pylisp
Integer
p1633
(dp1634
g1596
I1
sbsg1579
(iplugins.pylisp
Nil
p1635
(dp1636
bsbsbsbsg1579
(iplugins.pylisp
ConsCell
p1637
(dp1638
g1572
(iplugins.pylisp
ConsCell
p1639
(dp1640
g1572
(iplugins.pylisp
Symbol
p1641
(dp1642
g1577
S'rest'
p1643
sbsg1579
(iplugins.pylisp
ConsCell
p1644
(dp1645
g1572
(iplugins.pylisp
Symbol
p1646
(dp1647
g1577
g1610
sbsg1579
(iplugins.pylisp
Nil
p1648
(dp1649
bsbsbsg1579
(iplugins.pylisp
Nil
p1650
(dp1651
bsbsbsbsg1579
(iplugins.pylisp
Nil
p1652
(dp1653
bsbsbsbsbsg1579
(iplugins.pylisp
Nil
p1654
(dp1655
bsbsbsS'parameters'
p1656
(iplugins.pylisp
ConsCell
p1657
(dp1658
g1572
(iplugins.pylisp
Symbol
p1659
(dp1660
g1577
g1591
sbsg1579
(iplugins.pylisp
ConsCell
p1661
(dp1662
g1572
(iplugins.pylisp
Symbol
p1663
(dp1664
g1577
g1610
sbsg1579
(iplugins.pylisp
Nil
p1665
(dp1666
bsbsbsS'env'
p1667
g0
sbs(iplugins.pylisp
Symbol
p1668
(dp1669
g6
S'nom-mat'
p1670
sb(iplugins.pylisp
Lambda
p1671
(dp1672
g10
(iplugins.pylisp
ExpressionBody
p1673
(dp1674
g13
(iplugins.pylisp
ConsCell
p1675
(dp1676
g16
(iplugins.pylisp
ConsCell
p1677
(dp1678
g16
(iplugins.pylisp
Symbol
p1679
(dp1680
g6
S'nomrate'
p1681
sbsg22
(iplugins.pylisp
ConsCell
p1682
(dp1683
g16
(iplugins.pylisp
ConsCell
p1684
(dp1685
g16
(iplugins.pylisp
Symbol
p1686
(dp1687
g6
S'matnamn'
p1688
sbsg22
(iplugins.pylisp
Nil
p1689
(dp1690
bsbsg22
(iplugins.pylisp
Nil
p1691
(dp1692
bsbsbsg22
(iplugins.pylisp
Nil
p1693
(dp1694
bsbsbsg94
(iplugins.pylisp
Nil
p1695
(dp1696
bsg105
g0
sbs(iplugins.pylisp
Symbol
p1697
(dp1698
g114
S'caar'
p1699
sb(iplugins.pylisp
Lambda
p1700
(dp1701
g424
(iplugins.pylisp
ExpressionBody
p1702
(dp1703
g427
(iplugins.pylisp
ConsCell
p1704
(dp1705
g430
(iplugins.pylisp
ConsCell
p1706
(dp1707
g430
(iplugins.pylisp
Symbol
p1708
(dp1709
g114
S'car'
p1710
sbsg121
(iplugins.pylisp
ConsCell
p1711
(dp1712
g430
(iplugins.pylisp
ConsCell
p1713
(dp1714
g430
(iplugins.pylisp
Symbol
p1715
(dp1716
g114
S'car'
p1717
sbsg121
(iplugins.pylisp
ConsCell
p1718
(dp1719
g430
(iplugins.pylisp
Symbol
p1720
(dp1721
g114
g447
sbsg121
(iplugins.pylisp
Nil
p1722
(dp1723
bsbsbsg121
(iplugins.pylisp
Nil
p1724
(dp1725
bsbsbsg121
(iplugins.pylisp
Nil
p1726
(dp1727
bsbsbsg502
(iplugins.pylisp
ConsCell
p1728
(dp1729
g430
(iplugins.pylisp
Symbol
p1730
(dp1731
g114
g447
sbsg121
(iplugins.pylisp
Nil
p1732
(dp1733
bsbsg509
g0
sbs(iplugins.pylisp
Symbol
p1734
(dp1735
g1418
S'c'
p1736
sb(iplugins.pylisp
Symbol
p1737
(dp1738
g1418
S'feta'
p1739
sbs(iplugins.pylisp
Symbol
p1740
(dp1741
g1069
S'*random-number*'
p1742
sb(iplugins.pylisp
Integer
p1743
(dp1744
g1537
I4
sbs(iplugins.pylisp
Symbol
p1745
(dp1746
g1418
S'postlund'
p1747
sb(iplugins.pylisp
String
p1748
(dp1749
g39
S'B========================================================================================================================D'
p1750
sbs(iplugins.pylisp
Symbol
p1751
(dp1752
g745
S'filter'
p1753
sb(iplugins.pylisp
Lambda
p1754
(dp1755
g749
(iplugins.pylisp
ExpressionBody
p1756
(dp1757
g752
(iplugins.pylisp
ConsCell
p1758
(dp1759
g755
(iplugins.pylisp
ConsCell
p1760
(dp1761
g755
(iplugins.pylisp
Symbol
p1762
(dp1763
g745
S'if'
p1764
sbsg761
(iplugins.pylisp
ConsCell
p1765
(dp1766
g755
(iplugins.pylisp
ConsCell
p1767
(dp1768
g755
(iplugins.pylisp
Symbol
p1769
(dp1770
g745
S'endp'
p1771
sbsg761
(iplugins.pylisp
ConsCell
p1772
(dp1773
g755
(iplugins.pylisp
Symbol
p1774
(dp1775
g745
g863
sbsg761
(iplugins.pylisp
Nil
p1776
(dp1777
bsbsbsg761
(iplugins.pylisp
ConsCell
p1778
(dp1779
g755
(iplugins.pylisp
Symbol
p1780
(dp1781
g745
S'nil'
p1782
sbsg761
(iplugins.pylisp
ConsCell
p1783
(dp1784
g755
(iplugins.pylisp
ConsCell
p1785
(dp1786
g755
(iplugins.pylisp
Symbol
p1787
(dp1788
g745
S'if'
p1789
sbsg761
(iplugins.pylisp
ConsCell
p1790
(dp1791
g755
(iplugins.pylisp
ConsCell
p1792
(dp1793
g755
(iplugins.pylisp
Symbol
p1794
(dp1795
g745
g887
sbsg761
(iplugins.pylisp
ConsCell
p1796
(dp1797
g755
(iplugins.pylisp
ConsCell
p1798
(dp1799
g755
(iplugins.pylisp
Symbol
p1800
(dp1801
g745
S'car'
p1802
sbsg761
(iplugins.pylisp
ConsCell
p1803
(dp1804
g755
(iplugins.pylisp
Symbol
p1805
(dp1806
g745
g863
sbsg761
(iplugins.pylisp
Nil
p1807
(dp1808
bsbsbsg761
(iplugins.pylisp
Nil
p1809
(dp1810
bsbsbsg761
(iplugins.pylisp
ConsCell
p1811
(dp1812
g755
(iplugins.pylisp
ConsCell
p1813
(dp1814
g755
(iplugins.pylisp
Symbol
p1815
(dp1816
g745
S'cons'
p1817
sbsg761
(iplugins.pylisp
ConsCell
p1818
(dp1819
g755
(iplugins.pylisp
ConsCell
p1820
(dp1821
g755
(iplugins.pylisp
Symbol
p1822
(dp1823
g745
S'car'
p1824
sbsg761
(iplugins.pylisp
ConsCell
p1825
(dp1826
g755
(iplugins.pylisp
Symbol
p1827
(dp1828
g745
g863
sbsg761
(iplugins.pylisp
Nil
p1829
(dp1830
bsbsbsg761
(iplugins.pylisp
ConsCell
p1831
(dp1832
g755
(iplugins.pylisp
ConsCell
p1833
(dp1834
g755
(iplugins.pylisp
Symbol
p1835
(dp1836
g745
S'filter'
p1837
sbsg761
(iplugins.pylisp
ConsCell
p1838
(dp1839
g755
(iplugins.pylisp
Symbol
p1840
(dp1841
g745
g887
sbsg761
(iplugins.pylisp
ConsCell
p1842
(dp1843
g755
(iplugins.pylisp
ConsCell
p1844
(dp1845
g755
(iplugins.pylisp
Symbol
p1846
(dp1847
g745
S'cdr'
p1848
sbsg761
(iplugins.pylisp
ConsCell
p1849
(dp1850
g755
(iplugins.pylisp
Symbol
p1851
(dp1852
g745
g863
sbsg761
(iplugins.pylisp
Nil
p1853
(dp1854
bsbsbsg761
(iplugins.pylisp
Nil
p1855
(dp1856
bsbsbsbsg761
(iplugins.pylisp
Nil
p1857
(dp1858
bsbsbsbsg761
(iplugins.pylisp
ConsCell
p1859
(dp1860
g755
(iplugins.pylisp
ConsCell
p1861
(dp1862
g755
(iplugins.pylisp
Symbol
p1863
(dp1864
g745
S'filter'
p1865
sbsg761
(iplugins.pylisp
ConsCell
p1866
(dp1867
g755
(iplugins.pylisp
Symbol
p1868
(dp1869
g745
g887
sbsg761
(iplugins.pylisp
ConsCell
p1870
(dp1871
g755
(iplugins.pylisp
ConsCell
p1872
(dp1873
g755
(iplugins.pylisp
Symbol
p1874
(dp1875
g745
S'cdr'
p1876
sbsg761
(iplugins.pylisp
ConsCell
p1877
(dp1878
g755
(iplugins.pylisp
Symbol
p1879
(dp1880
g745
g863
sbsg761
(iplugins.pylisp
Nil
p1881
(dp1882
bsbsbsg761
(iplugins.pylisp
Nil
p1883
(dp1884
bsbsbsbsg761
(iplugins.pylisp
Nil
p1885
(dp1886
bsbsbsbsbsg761
(iplugins.pylisp
Nil
p1887
(dp1888
bsbsbsbsbsg761
(iplugins.pylisp
Nil
p1889
(dp1890
bsbsbsg777
(iplugins.pylisp
ConsCell
p1891
(dp1892
g755
(iplugins.pylisp
Symbol
p1893
(dp1894
g745
g887
sbsg761
(iplugins.pylisp
ConsCell
p1895
(dp1896
g755
(iplugins.pylisp
Symbol
p1897
(dp1898
g745
g863
sbsg761
(iplugins.pylisp
Nil
p1899
(dp1900
bsbsbsg784
g0
sbs(iplugins.pylisp
Symbol
p1901
(dp1902
g1418
S'length'
p1903
sb(iplugins.pylisp
Lambda
p1904
(dp1905
S'expression'
p1906
(iplugins.pylisp
ExpressionBody
p1907
(dp1908
S'expressions'
p1909
(iplugins.pylisp
ConsCell
p1910
(dp1911
S'car'
p1912
(iplugins.pylisp
ConsCell
p1913
(dp1914
g1912
(iplugins.pylisp
Symbol
p1915
(dp1916
g1418
S'if'
p1917
sbsS'cdr'
p1918
(iplugins.pylisp
ConsCell
p1919
(dp1920
g1912
(iplugins.pylisp
ConsCell
p1921
(dp1922
g1912
(iplugins.pylisp
Symbol
p1923
(dp1924
g1418
S'endp'
p1925
sbsg1918
(iplugins.pylisp
ConsCell
p1926
(dp1927
g1912
(iplugins.pylisp
Symbol
p1928
(dp1929
g1418
S'l'
p1930
sbsg1918
(iplugins.pylisp
Nil
p1931
(dp1932
bsbsbsg1918
(iplugins.pylisp
ConsCell
p1933
(dp1934
g1912
(iplugins.pylisp
Integer
p1935
(dp1936
S'value'
p1937
I0
sbsg1918
(iplugins.pylisp
ConsCell
p1938
(dp1939
g1912
(iplugins.pylisp
ConsCell
p1940
(dp1941
g1912
(iplugins.pylisp
Symbol
p1942
(dp1943
g1418
S'-'
p1944
sbsg1918
(iplugins.pylisp
ConsCell
p1945
(dp1946
g1912
(iplugins.pylisp
Integer
p1947
(dp1948
g1937
I1
sbsg1918
(iplugins.pylisp
ConsCell
p1949
(dp1950
g1912
(iplugins.pylisp
ConsCell
p1951
(dp1952
g1912
(iplugins.pylisp
Symbol
p1953
(dp1954
g1418
g1944
sbsg1918
(iplugins.pylisp
ConsCell
p1955
(dp1956
g1912
(iplugins.pylisp
Integer
p1957
(dp1958
g1937
I0
sbsg1918
(iplugins.pylisp
ConsCell
p1959
(dp1960
g1912
(iplugins.pylisp
ConsCell
p1961
(dp1962
g1912
(iplugins.pylisp
Symbol
p1963
(dp1964
g1418
S'length'
p1965
sbsg1918
(iplugins.pylisp
ConsCell
p1966
(dp1967
g1912
(iplugins.pylisp
ConsCell
p1968
(dp1969
g1912
(iplugins.pylisp
Symbol
p1970
(dp1971
g1418
S'cdr'
p1972
sbsg1918
(iplugins.pylisp
ConsCell
p1973
(dp1974
g1912
(iplugins.pylisp
Symbol
p1975
(dp1976
g1418
g1930
sbsg1918
(iplugins.pylisp
Nil
p1977
(dp1978
bsbsbsg1918
(iplugins.pylisp
Nil
p1979
(dp1980
bsbsbsg1918
(iplugins.pylisp
Nil
p1981
(dp1982
bsbsbsbsg1918
(iplugins.pylisp
Nil
p1983
(dp1984
bsbsbsbsg1918
(iplugins.pylisp
Nil
p1985
(dp1986
bsbsbsbsbsg1918
(iplugins.pylisp
Nil
p1987
(dp1988
bsbsbsS'parameters'
p1989
(iplugins.pylisp
ConsCell
p1990
(dp1991
g1912
(iplugins.pylisp
Symbol
p1992
(dp1993
g1418
g1930
sbsg1918
(iplugins.pylisp
Nil
p1994
(dp1995
bsbsS'env'
p1996
g0
sbs(iplugins.pylisp
Symbol
p1997
(dp1998
g114
S'first'
p1999
sb(iplugins.pylisp
NativeFunction
p2000
(dp2001
g118
cplugins.pylisp
car_func
p2002
sg120
I1
sg114
g430
sbs(iplugins.pylisp
Symbol
p2003
(dp2004
g291
S'cadr'
p2005
sb(iplugins.pylisp
Lambda
p2006
(dp2007
g797
(iplugins.pylisp
ExpressionBody
p2008
(dp2009
g800
(iplugins.pylisp
ConsCell
p2010
(dp2011
g295
(iplugins.pylisp
ConsCell
p2012
(dp2013
g295
(iplugins.pylisp
Symbol
p2014
(dp2015
g291
S'car'
p2016
sbsg299
(iplugins.pylisp
ConsCell
p2017
(dp2018
g295
(iplugins.pylisp
ConsCell
p2019
(dp2020
g295
(iplugins.pylisp
Symbol
p2021
(dp2022
g291
S'cdr'
p2023
sbsg299
(iplugins.pylisp
ConsCell
p2024
(dp2025
g295
(iplugins.pylisp
Symbol
p2026
(dp2027
g291
S'l'
p2028
sbsg299
(iplugins.pylisp
Nil
p2029
(dp2030
bsbsbsg299
(iplugins.pylisp
Nil
p2031
(dp2032
bsbsbsg299
(iplugins.pylisp
Nil
p2033
(dp2034
bsbsbsg817
(iplugins.pylisp
ConsCell
p2035
(dp2036
g295
(iplugins.pylisp
Symbol
p2037
(dp2038
g291
g2028
sbsg299
(iplugins.pylisp
Nil
p2039
(dp2040
bsbsg820
g0
sbs(iplugins.pylisp
Symbol
p2041
(dp2042
g420
S'>='
p2043
sb(iplugins.pylisp
Lambda
p2044
(dp2045
S'expression'
p2046
(iplugins.pylisp
ExpressionBody
p2047
(dp2048
S'expressions'
p2049
(iplugins.pylisp
ConsCell
p2050
(dp2051
S'car'
p2052
(iplugins.pylisp
ConsCell
p2053
(dp2054
g2052
(iplugins.pylisp
Symbol
p2055
(dp2056
g420
S'or'
p2057
sbsS'cdr'
p2058
(iplugins.pylisp
ConsCell
p2059
(dp2060
g2052
(iplugins.pylisp
ConsCell
p2061
(dp2062
g2052
(iplugins.pylisp
Symbol
p2063
(dp2064
g420
S'>'
p2065
sbsg2058
(iplugins.pylisp
ConsCell
p2066
(dp2067
g2052
(iplugins.pylisp
Symbol
p2068
(dp2069
g420
S'a'
p2070
sbsg2058
(iplugins.pylisp
ConsCell
p2071
(dp2072
g2052
(iplugins.pylisp
Symbol
p2073
(dp2074
g420
S'b'
p2075
sbsg2058
(iplugins.pylisp
Nil
p2076
(dp2077
bsbsbsbsg2058
(iplugins.pylisp
ConsCell
p2078
(dp2079
g2052
(iplugins.pylisp
ConsCell
p2080
(dp2081
g2052
(iplugins.pylisp
Symbol
p2082
(dp2083
g420
S'='
p2084
sbsg2058
(iplugins.pylisp
ConsCell
p2085
(dp2086
g2052
(iplugins.pylisp
Symbol
p2087
(dp2088
g420
g2070
sbsg2058
(iplugins.pylisp
ConsCell
p2089
(dp2090
g2052
(iplugins.pylisp
Symbol
p2091
(dp2092
g420
g2075
sbsg2058
(iplugins.pylisp
Nil
p2093
(dp2094
bsbsbsbsg2058
(iplugins.pylisp
Nil
p2095
(dp2096
bsbsbsbsg2058
(iplugins.pylisp
Nil
p2097
(dp2098
bsbsbsS'parameters'
p2099
(iplugins.pylisp
ConsCell
p2100
(dp2101
g2052
(iplugins.pylisp
Symbol
p2102
(dp2103
g420
g2070
sbsg2058
(iplugins.pylisp
ConsCell
p2104
(dp2105
g2052
(iplugins.pylisp
Symbol
p2106
(dp2107
g420
g2075
sbsg2058
(iplugins.pylisp
Nil
p2108
(dp2109
bsbsbsS'env'
p2110
g0
sbs(iplugins.pylisp
Symbol
p2111
(dp2112
g1069
S's\xc3\xa4mst?'
p2113
sb(iplugins.pylisp
Lambda
p2114
(dp2115
S'expression'
p2116
(iplugins.pylisp
ExpressionBody
p2117
(dp2118
S'expressions'
p2119
(iplugins.pylisp
ConsCell
p2120
(dp2121
g1428
(iplugins.pylisp
ConsCell
p2122
(dp2123
g1428
(iplugins.pylisp
Symbol
p2124
(dp2125
g1069
S'eq'
p2126
sbsg1432
(iplugins.pylisp
ConsCell
p2127
(dp2128
g1428
(iplugins.pylisp
Symbol
p2129
(dp2130
g1069
S'person'
p2131
sbsg1432
(iplugins.pylisp
ConsCell
p2132
(dp2133
g1428
(iplugins.pylisp
Quoted
p2134
(dp2135
S'quoted_expression'
p2136
(iplugins.pylisp
Symbol
p2137
(dp2138
g1069
S'tjoff'
p2139
sbsbsg1432
(iplugins.pylisp
Nil
p2140
(dp2141
bsbsbsbsg1432
(iplugins.pylisp
Nil
p2142
(dp2143
bsbsbsS'parameters'
p2144
(iplugins.pylisp
ConsCell
p2145
(dp2146
g1428
(iplugins.pylisp
Symbol
p2147
(dp2148
g1069
S'person'
p2149
sbsg1432
(iplugins.pylisp
Nil
p2150
(dp2151
bsbsS'env'
p2152
g0
sbs(iplugins.pylisp
Symbol
p2153
(dp2154
g6
S'xyz'
p2155
sb(iplugins.pylisp
String
p2156
(dp2157
g39
S'\x02\x033,5F\xc3\x84RGER\x03\x02'
p2158
sbs(iplugins.pylisp
Symbol
p2159
(dp2160
g6
S'helpkuk'
p2161
sb(iplugins.pylisp
Lambda
p2162
(dp2163
g10
(iplugins.pylisp
ExpressionBody
p2164
(dp2165
g13
(iplugins.pylisp
ConsCell
p2166
(dp2167
g16
(iplugins.pylisp
ConsCell
p2168
(dp2169
g16
(iplugins.pylisp
Symbol
p2170
(dp2171
g6
S'if'
p2172
sbsg22
(iplugins.pylisp
ConsCell
p2173
(dp2174
g16
(iplugins.pylisp
ConsCell
p2175
(dp2176
g16
(iplugins.pylisp
Symbol
p2177
(dp2178
g6
g142
sbsg22
(iplugins.pylisp
ConsCell
p2179
(dp2180
g16
(iplugins.pylisp
Symbol
p2181
(dp2182
g6
g34
sbsg22
(iplugins.pylisp
ConsCell
p2183
(dp2184
g16
(iplugins.pylisp
Integer
p2185
(dp2186
g39
I0
sbsg22
(iplugins.pylisp
Nil
p2187
(dp2188
bsbsbsbsg22
(iplugins.pylisp
ConsCell
p2189
(dp2190
g16
(iplugins.pylisp
ConsCell
p2191
(dp2192
g16
(iplugins.pylisp
Symbol
p2193
(dp2194
g6
S'helpkuk'
p2195
sbsg22
(iplugins.pylisp
ConsCell
p2196
(dp2197
g16
(iplugins.pylisp
ConsCell
p2198
(dp2199
g16
(iplugins.pylisp
Symbol
p2200
(dp2201
g6
g67
sbsg22
(iplugins.pylisp
ConsCell
p2202
(dp2203
g16
(iplugins.pylisp
Symbol
p2204
(dp2205
g6
g34
sbsg22
(iplugins.pylisp
ConsCell
p2206
(dp2207
g16
(iplugins.pylisp
Integer
p2208
(dp2209
g39
I1
sbsg22
(iplugins.pylisp
Nil
p2210
(dp2211
bsbsbsbsg22
(iplugins.pylisp
ConsCell
p2212
(dp2213
g16
(iplugins.pylisp
ConsCell
p2214
(dp2215
g16
(iplugins.pylisp
Symbol
p2216
(dp2217
g6
S'str-append'
p2218
sbsg22
(iplugins.pylisp
ConsCell
p2219
(dp2220
g16
(iplugins.pylisp
String
p2221
(dp2222
g39
g29
sbsg22
(iplugins.pylisp
ConsCell
p2223
(dp2224
g16
(iplugins.pylisp
Symbol
p2225
(dp2226
g6
g970
sbsg22
(iplugins.pylisp
Nil
p2227
(dp2228
bsbsbsbsg22
(iplugins.pylisp
Nil
p2229
(dp2230
bsbsbsbsg22
(iplugins.pylisp
ConsCell
p2231
(dp2232
g16
(iplugins.pylisp
ConsCell
p2233
(dp2234
g16
(iplugins.pylisp
Symbol
p2235
(dp2236
g6
S'str-append'
p2237
sbsg22
(iplugins.pylisp
ConsCell
p2238
(dp2239
g16
(iplugins.pylisp
String
p2240
(dp2241
g39
S'B'
p2242
sbsg22
(iplugins.pylisp
ConsCell
p2243
(dp2244
g16
(iplugins.pylisp
Symbol
p2245
(dp2246
g6
g970
sbsg22
(iplugins.pylisp
Nil
p2247
(dp2248
bsbsbsbsg22
(iplugins.pylisp
Nil
p2249
(dp2250
bsbsbsbsbsg22
(iplugins.pylisp
Nil
p2251
(dp2252
bsbsbsg94
(iplugins.pylisp
ConsCell
p2253
(dp2254
g16
(iplugins.pylisp
Symbol
p2255
(dp2256
g6
g34
sbsg22
(iplugins.pylisp
ConsCell
p2257
(dp2258
g16
(iplugins.pylisp
Symbol
p2259
(dp2260
g6
g970
sbsg22
(iplugins.pylisp
Nil
p2261
(dp2262
bsbsbsg105
g0
sbs(iplugins.pylisp
Symbol
p2263
(dp2264
g787
S'funcall'
p2265
sb(iplugins.pylisp
Macro
p2266
(dp2267
S'expression'
p2268
(iplugins.pylisp
ConsCell
p2269
(dp2270
S'car'
p2271
(iplugins.pylisp
Symbol
p2272
(dp2273
g787
S'cons'
p2274
sbsS'cdr'
p2275
(iplugins.pylisp
ConsCell
p2276
(dp2277
g2271
(iplugins.pylisp
Symbol
p2278
(dp2279
g787
S'f'
p2280
sbsg2275
(iplugins.pylisp
ConsCell
p2281
(dp2282
g2271
(iplugins.pylisp
Symbol
p2283
(dp2284
g787
S'args'
p2285
sbsg2275
(iplugins.pylisp
Nil
p2286
(dp2287
bsbsbsbsS'parameters'
p2288
(iplugins.pylisp
ConsCell
p2289
(dp2290
g2271
(iplugins.pylisp
Symbol
p2291
(dp2292
g787
g2280
sbsg2275
(iplugins.pylisp
ConsCell
p2293
(dp2294
g2271
(iplugins.pylisp
Symbol
p2295
(dp2296
g787
S'args'
p2297
sbsg2275
(iplugins.pylisp
Nil
p2298
(dp2299
bsbsbsS'env'
p2300
g0
sbs(iplugins.pylisp
Symbol
p2301
(dp2302
g553
S'sgd'
p2303
sb(iplugins.pylisp
Lambda
p2304
(dp2305
g557
(iplugins.pylisp
ExpressionBody
p2306
(dp2307
g560
(iplugins.pylisp
ConsCell
p2308
(dp2309
g563
(iplugins.pylisp
ConsCell
p2310
(dp2311
g563
(iplugins.pylisp
Symbol
p2312
(dp2313
g553
S'if'
p2314
sbsg569
(iplugins.pylisp
ConsCell
p2315
(dp2316
g563
(iplugins.pylisp
ConsCell
p2317
(dp2318
g563
(iplugins.pylisp
Symbol
p2319
(dp2320
g553
S'<='
p2321
sbsg569
(iplugins.pylisp
ConsCell
p2322
(dp2323
g563
(iplugins.pylisp
Symbol
p2324
(dp2325
g553
g574
sbsg569
(iplugins.pylisp
ConsCell
p2326
(dp2327
g563
(iplugins.pylisp
Symbol
p2328
(dp2329
g553
g597
sbsg569
(iplugins.pylisp
Nil
p2330
(dp2331
bsbsbsbsg569
(iplugins.pylisp
ConsCell
p2332
(dp2333
g563
(iplugins.pylisp
ConsCell
p2334
(dp2335
g563
(iplugins.pylisp
Symbol
p2336
(dp2337
g553
S'sgd'
p2338
sbsg569
(iplugins.pylisp
ConsCell
p2339
(dp2340
g563
(iplugins.pylisp
Symbol
p2341
(dp2342
g553
g597
sbsg569
(iplugins.pylisp
ConsCell
p2343
(dp2344
g563
(iplugins.pylisp
Symbol
p2345
(dp2346
g553
g574
sbsg569
(iplugins.pylisp
Nil
p2347
(dp2348
bsbsbsbsg569
(iplugins.pylisp
ConsCell
p2349
(dp2350
g563
(iplugins.pylisp
ConsCell
p2351
(dp2352
g563
(iplugins.pylisp
Symbol
p2353
(dp2354
g553
S'if'
p2355
sbsg569
(iplugins.pylisp
ConsCell
p2356
(dp2357
g563
(iplugins.pylisp
ConsCell
p2358
(dp2359
g563
(iplugins.pylisp
Symbol
p2360
(dp2361
g553
S'='
p2362
sbsg569
(iplugins.pylisp
ConsCell
p2363
(dp2364
g563
(iplugins.pylisp
Symbol
p2365
(dp2366
g553
g597
sbsg569
(iplugins.pylisp
ConsCell
p2367
(dp2368
g563
(iplugins.pylisp
Integer
p2369
(dp2370
S'value'
p2371
I0
sbsg569
(iplugins.pylisp
Nil
p2372
(dp2373
bsbsbsbsg569
(iplugins.pylisp
ConsCell
p2374
(dp2375
g563
(iplugins.pylisp
Symbol
p2376
(dp2377
g553
g574
sbsg569
(iplugins.pylisp
ConsCell
p2378
(dp2379
g563
(iplugins.pylisp
ConsCell
p2380
(dp2381
g563
(iplugins.pylisp
Symbol
p2382
(dp2383
g553
S'sgd'
p2384
sbsg569
(iplugins.pylisp
ConsCell
p2385
(dp2386
g563
(iplugins.pylisp
Symbol
p2387
(dp2388
g553
g597
sbsg569
(iplugins.pylisp
ConsCell
p2389
(dp2390
g563
(iplugins.pylisp
ConsCell
p2391
(dp2392
g563
(iplugins.pylisp
Symbol
p2393
(dp2394
g553
S'mod'
p2395
sbsg569
(iplugins.pylisp
ConsCell
p2396
(dp2397
g563
(iplugins.pylisp
Symbol
p2398
(dp2399
g553
g574
sbsg569
(iplugins.pylisp
ConsCell
p2400
(dp2401
g563
(iplugins.pylisp
Symbol
p2402
(dp2403
g553
g597
sbsg569
(iplugins.pylisp
Nil
p2404
(dp2405
bsbsbsbsg569
(iplugins.pylisp
Nil
p2406
(dp2407
bsbsbsbsg569
(iplugins.pylisp
Nil
p2408
(dp2409
bsbsbsbsbsg569
(iplugins.pylisp
Nil
p2410
(dp2411
bsbsbsbsbsg569
(iplugins.pylisp
Nil
p2412
(dp2413
bsbsbsg610
(iplugins.pylisp
ConsCell
p2414
(dp2415
g563
(iplugins.pylisp
Symbol
p2416
(dp2417
g553
g574
sbsg569
(iplugins.pylisp
ConsCell
p2418
(dp2419
g563
(iplugins.pylisp
Symbol
p2420
(dp2421
g553
g597
sbsg569
(iplugins.pylisp
Nil
p2422
(dp2423
bsbsbsg621
g0
sbs(iplugins.pylisp
Symbol
p2424
(dp2425
g108
S'zip'
p2426
sb(iplugins.pylisp
Lambda
p2427
(dp2428
g681
(iplugins.pylisp
ExpressionBody
p2429
(dp2430
g684
(iplugins.pylisp
ConsCell
p2431
(dp2432
g687
(iplugins.pylisp
ConsCell
p2433
(dp2434
g687
(iplugins.pylisp
Symbol
p2435
(dp2436
g108
S'if'
p2437
sbsg693
(iplugins.pylisp
ConsCell
p2438
(dp2439
g687
(iplugins.pylisp
ConsCell
p2440
(dp2441
g687
(iplugins.pylisp
Symbol
p2442
(dp2443
g108
S'or'
p2444
sbsg693
(iplugins.pylisp
ConsCell
p2445
(dp2446
g687
(iplugins.pylisp
ConsCell
p2447
(dp2448
g687
(iplugins.pylisp
Symbol
p2449
(dp2450
g108
S'endp'
p2451
sbsg693
(iplugins.pylisp
ConsCell
p2452
(dp2453
g687
(iplugins.pylisp
Symbol
p2454
(dp2455
g108
S'la'
p2456
sbsg693
(iplugins.pylisp
Nil
p2457
(dp2458
bsbsbsg693
(iplugins.pylisp
ConsCell
p2459
(dp2460
g687
(iplugins.pylisp
ConsCell
p2461
(dp2462
g687
(iplugins.pylisp
Symbol
p2463
(dp2464
g108
S'endp'
p2465
sbsg693
(iplugins.pylisp
ConsCell
p2466
(dp2467
g687
(iplugins.pylisp
Symbol
p2468
(dp2469
g108
S'lb'
p2470
sbsg693
(iplugins.pylisp
Nil
p2471
(dp2472
bsbsbsg693
(iplugins.pylisp
Nil
p2473
(dp2474
bsbsbsbsg693
(iplugins.pylisp
ConsCell
p2475
(dp2476
g687
(iplugins.pylisp
Symbol
p2477
(dp2478
g108
S'nil'
p2479
sbsg693
(iplugins.pylisp
ConsCell
p2480
(dp2481
g687
(iplugins.pylisp
ConsCell
p2482
(dp2483
g687
(iplugins.pylisp
Symbol
p2484
(dp2485
g108
S'cons'
p2486
sbsg693
(iplugins.pylisp
ConsCell
p2487
(dp2488
g687
(iplugins.pylisp
ConsCell
p2489
(dp2490
g687
(iplugins.pylisp
Symbol
p2491
(dp2492
g108
S'cons'
p2493
sbsg693
(iplugins.pylisp
ConsCell
p2494
(dp2495
g687
(iplugins.pylisp
ConsCell
p2496
(dp2497
g687
(iplugins.pylisp
Symbol
p2498
(dp2499
g108
S'car'
p2500
sbsg693
(iplugins.pylisp
ConsCell
p2501
(dp2502
g687
(iplugins.pylisp
Symbol
p2503
(dp2504
g108
S'la'
p2505
sbsg693
(iplugins.pylisp
Nil
p2506
(dp2507
bsbsbsg693
(iplugins.pylisp
ConsCell
p2508
(dp2509
g687
(iplugins.pylisp
ConsCell
p2510
(dp2511
g687
(iplugins.pylisp
Symbol
p2512
(dp2513
g108
S'car'
p2514
sbsg693
(iplugins.pylisp
ConsCell
p2515
(dp2516
g687
(iplugins.pylisp
Symbol
p2517
(dp2518
g108
S'lb'
p2519
sbsg693
(iplugins.pylisp
Nil
p2520
(dp2521
bsbsbsg693
(iplugins.pylisp
Nil
p2522
(dp2523
bsbsbsbsg693
(iplugins.pylisp
ConsCell
p2524
(dp2525
g687
(iplugins.pylisp
ConsCell
p2526
(dp2527
g687
(iplugins.pylisp
Symbol
p2528
(dp2529
g108
S'zip'
p2530
sbsg693
(iplugins.pylisp
ConsCell
p2531
(dp2532
g687
(iplugins.pylisp
ConsCell
p2533
(dp2534
g687
(iplugins.pylisp
Symbol
p2535
(dp2536
g108
S'cdr'
p2537
sbsg693
(iplugins.pylisp
ConsCell
p2538
(dp2539
g687
(iplugins.pylisp
Symbol
p2540
(dp2541
g108
S'la'
p2542
sbsg693
(iplugins.pylisp
Nil
p2543
(dp2544
bsbsbsg693
(iplugins.pylisp
ConsCell
p2545
(dp2546
g687
(iplugins.pylisp
ConsCell
p2547
(dp2548
g687
(iplugins.pylisp
Symbol
p2549
(dp2550
g108
S'cdr'
p2551
sbsg693
(iplugins.pylisp
ConsCell
p2552
(dp2553
g687
(iplugins.pylisp
Symbol
p2554
(dp2555
g108
S'lb'
p2556
sbsg693
(iplugins.pylisp
Nil
p2557
(dp2558
bsbsbsg693
(iplugins.pylisp
Nil
p2559
(dp2560
bsbsbsbsg693
(iplugins.pylisp
Nil
p2561
(dp2562
bsbsbsbsg693
(iplugins.pylisp
Nil
p2563
(dp2564
bsbsbsbsbsg693
(iplugins.pylisp
Nil
p2565
(dp2566
bsbsbsg735
(iplugins.pylisp
ConsCell
p2567
(dp2568
g687
(iplugins.pylisp
Symbol
p2569
(dp2570
g108
S'la'
p2571
sbsg693
(iplugins.pylisp
ConsCell
p2572
(dp2573
g687
(iplugins.pylisp
Symbol
p2574
(dp2575
g108
S'lb'
p2576
sbsg693
(iplugins.pylisp
Nil
p2577
(dp2578
bsbsbsg742
g0
sbs(iplugins.pylisp
Symbol
p2579
(dp2580
g1418
S'spam'
p2581
sb(iplugins.pylisp
Lambda
p2582
(dp2583
g1906
(iplugins.pylisp
ExpressionBody
p2584
(dp2585
g1909
(iplugins.pylisp
ConsCell
p2586
(dp2587
g1912
(iplugins.pylisp
ConsCell
p2588
(dp2589
g1912
(iplugins.pylisp
Symbol
p2590
(dp2591
g1418
S'print'
p2592
sbsg1918
(iplugins.pylisp
ConsCell
p2593
(dp2594
g1912
(iplugins.pylisp
ConsCell
p2595
(dp2596
g1912
(iplugins.pylisp
Symbol
p2597
(dp2598
g1418
S'print'
p2599
sbsg1918
(iplugins.pylisp
ConsCell
p2600
(dp2601
g1912
(iplugins.pylisp
ConsCell
p2602
(dp2603
g1912
(iplugins.pylisp
Symbol
p2604
(dp2605
g1418
S'print'
p2606
sbsg1918
(iplugins.pylisp
ConsCell
p2607
(dp2608
g1912
(iplugins.pylisp
ConsCell
p2609
(dp2610
g1912
(iplugins.pylisp
Symbol
p2611
(dp2612
g1418
S'print'
p2613
sbsg1918
(iplugins.pylisp
ConsCell
p2614
(dp2615
g1912
(iplugins.pylisp
ConsCell
p2616
(dp2617
g1912
(iplugins.pylisp
Symbol
p2618
(dp2619
g1418
S'print'
p2620
sbsg1918
(iplugins.pylisp
ConsCell
p2621
(dp2622
g1912
(iplugins.pylisp
ConsCell
p2623
(dp2624
g1912
(iplugins.pylisp
Symbol
p2625
(dp2626
g1418
S'print'
p2627
sbsg1918
(iplugins.pylisp
ConsCell
p2628
(dp2629
g1912
(iplugins.pylisp
ConsCell
p2630
(dp2631
g1912
(iplugins.pylisp
Symbol
p2632
(dp2633
g1418
S'print'
p2634
sbsg1918
(iplugins.pylisp
ConsCell
p2635
(dp2636
g1912
(iplugins.pylisp
ConsCell
p2637
(dp2638
g1912
(iplugins.pylisp
Symbol
p2639
(dp2640
g1418
S'print'
p2641
sbsg1918
(iplugins.pylisp
ConsCell
p2642
(dp2643
g1912
(iplugins.pylisp
ConsCell
p2644
(dp2645
g1912
(iplugins.pylisp
Symbol
p2646
(dp2647
g1418
S'print'
p2648
sbsg1918
(iplugins.pylisp
ConsCell
p2649
(dp2650
g1912
(iplugins.pylisp
ConsCell
p2651
(dp2652
g1912
(iplugins.pylisp
Symbol
p2653
(dp2654
g1418
S'print'
p2655
sbsg1918
(iplugins.pylisp
ConsCell
p2656
(dp2657
g1912
(iplugins.pylisp
Symbol
p2658
(dp2659
g1418
S'string'
p2660
sbsg1918
(iplugins.pylisp
Nil
p2661
(dp2662
bsbsbsg1918
(iplugins.pylisp
Nil
p2663
(dp2664
bsbsbsg1918
(iplugins.pylisp
Nil
p2665
(dp2666
bsbsbsg1918
(iplugins.pylisp
Nil
p2667
(dp2668
bsbsbsg1918
(iplugins.pylisp
Nil
p2669
(dp2670
bsbsbsg1918
(iplugins.pylisp
Nil
p2671
(dp2672
bsbsbsg1918
(iplugins.pylisp
Nil
p2673
(dp2674
bsbsbsg1918
(iplugins.pylisp
Nil
p2675
(dp2676
bsbsbsg1918
(iplugins.pylisp
Nil
p2677
(dp2678
bsbsbsg1918
(iplugins.pylisp
Nil
p2679
(dp2680
bsbsbsg1918
(iplugins.pylisp
Nil
p2681
(dp2682
bsbsbsg1989
(iplugins.pylisp
ConsCell
p2683
(dp2684
g1912
(iplugins.pylisp
Symbol
p2685
(dp2686
g1418
S'string'
p2687
sbsg1918
(iplugins.pylisp
Nil
p2688
(dp2689
bsbsg1996
g0
sbs(iplugins.pylisp
Symbol
p2690
(dp2691
g108
S'copies'
p2692
sb(iplugins.pylisp
Lambda
p2693
(dp2694
g681
(iplugins.pylisp
ExpressionBody
p2695
(dp2696
g684
(iplugins.pylisp
ConsCell
p2697
(dp2698
g687
(iplugins.pylisp
ConsCell
p2699
(dp2700
g687
(iplugins.pylisp
Symbol
p2701
(dp2702
g108
S'if'
p2703
sbsg693
(iplugins.pylisp
ConsCell
p2704
(dp2705
g687
(iplugins.pylisp
ConsCell
p2706
(dp2707
g687
(iplugins.pylisp
Symbol
p2708
(dp2709
g108
S'='
p2710
sbsg693
(iplugins.pylisp
ConsCell
p2711
(dp2712
g687
(iplugins.pylisp
Symbol
p2713
(dp2714
g108
g705
sbsg693
(iplugins.pylisp
ConsCell
p2715
(dp2716
g687
(iplugins.pylisp
Integer
p2717
(dp2718
S'value'
p2719
I0
sbsg693
(iplugins.pylisp
Nil
p2720
(dp2721
bsbsbsbsg693
(iplugins.pylisp
ConsCell
p2722
(dp2723
g687
(iplugins.pylisp
Symbol
p2724
(dp2725
g108
S'nil'
p2726
sbsg693
(iplugins.pylisp
ConsCell
p2727
(dp2728
g687
(iplugins.pylisp
ConsCell
p2729
(dp2730
g687
(iplugins.pylisp
Symbol
p2731
(dp2732
g108
S'cons'
p2733
sbsg693
(iplugins.pylisp
ConsCell
p2734
(dp2735
g687
(iplugins.pylisp
Symbol
p2736
(dp2737
g108
S'x'
p2738
sbsg693
(iplugins.pylisp
ConsCell
p2739
(dp2740
g687
(iplugins.pylisp
ConsCell
p2741
(dp2742
g687
(iplugins.pylisp
Symbol
p2743
(dp2744
g108
S'copies'
p2745
sbsg693
(iplugins.pylisp
ConsCell
p2746
(dp2747
g687
(iplugins.pylisp
ConsCell
p2748
(dp2749
g687
(iplugins.pylisp
Symbol
p2750
(dp2751
g108
S'-'
p2752
sbsg693
(iplugins.pylisp
ConsCell
p2753
(dp2754
g687
(iplugins.pylisp
Symbol
p2755
(dp2756
g108
g705
sbsg693
(iplugins.pylisp
ConsCell
p2757
(dp2758
g687
(iplugins.pylisp
Integer
p2759
(dp2760
g2719
I1
sbsg693
(iplugins.pylisp
Nil
p2761
(dp2762
bsbsbsbsg693
(iplugins.pylisp
ConsCell
p2763
(dp2764
g687
(iplugins.pylisp
Symbol
p2765
(dp2766
g108
g2738
sbsg693
(iplugins.pylisp
Nil
p2767
(dp2768
bsbsbsbsg693
(iplugins.pylisp
Nil
p2769
(dp2770
bsbsbsbsg693
(iplugins.pylisp
Nil
p2771
(dp2772
bsbsbsbsbsg693
(iplugins.pylisp
Nil
p2773
(dp2774
bsbsbsg735
(iplugins.pylisp
ConsCell
p2775
(dp2776
g687
(iplugins.pylisp
Symbol
p2777
(dp2778
g108
g705
sbsg693
(iplugins.pylisp
ConsCell
p2779
(dp2780
g687
(iplugins.pylisp
Symbol
p2781
(dp2782
g108
g2738
sbsg693
(iplugins.pylisp
Nil
p2783
(dp2784
bsbsbsg742
g0
sbs(iplugins.pylisp
Symbol
p2785
(dp2786
g6
S'lol'
p2787
sb(iplugins.pylisp
Lambda
p2788
(dp2789
g10
(iplugins.pylisp
ExpressionBody
p2790
(dp2791
g13
(iplugins.pylisp
ConsCell
p2792
(dp2793
g16
(iplugins.pylisp
ConsCell
p2794
(dp2795
g16
(iplugins.pylisp
Symbol
p2796
(dp2797
g6
S'str-append'
p2798
sbsg22
(iplugins.pylisp
ConsCell
p2799
(dp2800
g16
(iplugins.pylisp
String
p2801
(dp2802
g39
g1014
sbsg22
(iplugins.pylisp
ConsCell
p2803
(dp2804
g16
(iplugins.pylisp
ConsCell
p2805
(dp2806
g16
(iplugins.pylisp
Symbol
p2807
(dp2808
g6
S'str-append'
p2809
sbsg22
(iplugins.pylisp
ConsCell
p2810
(dp2811
g16
(iplugins.pylisp
ConsCell
p2812
(dp2813
g16
(iplugins.pylisp
Symbol
p2814
(dp2815
g6
S'stimes'
p2816
sbsg22
(iplugins.pylisp
ConsCell
p2817
(dp2818
g16
(iplugins.pylisp
Symbol
p2819
(dp2820
g6
g34
sbsg22
(iplugins.pylisp
ConsCell
p2821
(dp2822
g16
(iplugins.pylisp
String
p2823
(dp2824
g39
S'o'
p2825
sbsg22
(iplugins.pylisp
Nil
p2826
(dp2827
bsbsbsbsg22
(iplugins.pylisp
ConsCell
p2828
(dp2829
g16
(iplugins.pylisp
String
p2830
(dp2831
g39
g1014
sbsg22
(iplugins.pylisp
Nil
p2832
(dp2833
bsbsbsbsg22
(iplugins.pylisp
Nil
p2834
(dp2835
bsbsbsbsg22
(iplugins.pylisp
Nil
p2836
(dp2837
bsbsbsg94
(iplugins.pylisp
ConsCell
p2838
(dp2839
g16
(iplugins.pylisp
Symbol
p2840
(dp2841
g6
g34
sbsg22
(iplugins.pylisp
Nil
p2842
(dp2843
bsbsg105
g0
sbs(iplugins.pylisp
Symbol
p2844
(dp2845
S'name'
p2846
S'do-twice'
p2847
sb(iplugins.pylisp
Macro
p2848
(dp2849
S'expression'
p2850
(iplugins.pylisp
ConsCell
p2851
(dp2852
S'car'
p2853
(iplugins.pylisp
Symbol
p2854
(dp2855
g2846
S'+'
p2856
sbsS'cdr'
p2857
(iplugins.pylisp
ConsCell
p2858
(dp2859
g2853
(iplugins.pylisp
Symbol
p2860
(dp2861
g2846
S'a'
p2862
sbsg2857
(iplugins.pylisp
ConsCell
p2863
(dp2864
g2853
(iplugins.pylisp
Symbol
p2865
(dp2866
g2846
g2862
sbsg2857
(iplugins.pylisp
Nil
p2867
(dp2868
bsbsbsbsS'parameters'
p2869
(iplugins.pylisp
ConsCell
p2870
(dp2871
g2853
(iplugins.pylisp
Symbol
p2872
(dp2873
g2846
g2862
sbsg2857
(iplugins.pylisp
Nil
p2874
(dp2875
bsbsS'env'
p2876
g0
sbs(iplugins.pylisp
Symbol
p2877
(dp2878
g108
S'pi'
p2879
sb(iplugins.pylisp
Integer
p2880
(dp2881
g2719
I4
sbs(iplugins.pylisp
Symbol
p2882
(dp2883
g108
S'hej'
p2884
sb(iplugins.pylisp
Symbol
p2885
(dp2886
g108
S'hejehej'
p2887
sbs(iplugins.pylisp
Symbol
p2888
(dp2889
S'name'
p2890
S'>'
p2891
sb(iplugins.pylisp
Lambda
p2892
(dp2893
g2046
(iplugins.pylisp
ExpressionBody
p2894
(dp2895
g2049
(iplugins.pylisp
ConsCell
p2896
(dp2897
g2052
(iplugins.pylisp
ConsCell
p2898
(dp2899
g2052
(iplugins.pylisp
Symbol
p2900
(dp2901
g420
S'not'
p2902
sbsg2058
(iplugins.pylisp
ConsCell
p2903
(dp2904
g2052
(iplugins.pylisp
ConsCell
p2905
(dp2906
g2052
(iplugins.pylisp
Symbol
p2907
(dp2908
g420
S'or'
p2909
sbsg2058
(iplugins.pylisp
ConsCell
p2910
(dp2911
g2052
(iplugins.pylisp
ConsCell
p2912
(dp2913
g2052
(iplugins.pylisp
Symbol
p2914
(dp2915
g420
S'<'
p2916
sbsg2058
(iplugins.pylisp
ConsCell
p2917
(dp2918
g2052
(iplugins.pylisp
Symbol
p2919
(dp2920
g420
g2070
sbsg2058
(iplugins.pylisp
ConsCell
p2921
(dp2922
g2052
(iplugins.pylisp
Symbol
p2923
(dp2924
g420
g2075
sbsg2058
(iplugins.pylisp
Nil
p2925
(dp2926
bsbsbsbsg2058
(iplugins.pylisp
ConsCell
p2927
(dp2928
g2052
(iplugins.pylisp
ConsCell
p2929
(dp2930
g2052
(iplugins.pylisp
Symbol
p2931
(dp2932
g420
g2084
sbsg2058
(iplugins.pylisp
ConsCell
p2933
(dp2934
g2052
(iplugins.pylisp
Symbol
p2935
(dp2936
g420
g2070
sbsg2058
(iplugins.pylisp
ConsCell
p2937
(dp2938
g2052
(iplugins.pylisp
Symbol
p2939
(dp2940
g420
g2075
sbsg2058
(iplugins.pylisp
Nil
p2941
(dp2942
bsbsbsbsg2058
(iplugins.pylisp
Nil
p2943
(dp2944
bsbsbsbsg2058
(iplugins.pylisp
Nil
p2945
(dp2946
bsbsbsg2058
(iplugins.pylisp
Nil
p2947
(dp2948
bsbsbsg2099
(iplugins.pylisp
ConsCell
p2949
(dp2950
g2052
(iplugins.pylisp
Symbol
p2951
(dp2952
g420
g2070
sbsg2058
(iplugins.pylisp
ConsCell
p2953
(dp2954
g2052
(iplugins.pylisp
Symbol
p2955
(dp2956
g420
g2075
sbsg2058
(iplugins.pylisp
Nil
p2957
(dp2958
bsbsbsg2110
g0
sbs(iplugins.pylisp
Symbol
p2959
(dp2960
g512
S'testing'
p2961
sb(iplugins.pylisp
Lambda
p2962
(dp2963
g516
(iplugins.pylisp
ExpressionBody
p2964
(dp2965
g519
(iplugins.pylisp
ConsCell
p2966
(dp2967
g522
(iplugins.pylisp
ConsCell
p2968
(dp2969
g522
(iplugins.pylisp
Symbol
p2970
(dp2971
g512
g527
sbsg528
(iplugins.pylisp
ConsCell
p2972
(dp2973
g522
(iplugins.pylisp
Symbol
p2974
(dp2975
g512
g533
sbsg528
(iplugins.pylisp
ConsCell
p2976
(dp2977
g522
(iplugins.pylisp
Integer
p2978
(dp2979
g538
I2
sbsg528
(iplugins.pylisp
Nil
p2980
(dp2981
bsbsbsbsg528
(iplugins.pylisp
Nil
p2982
(dp2983
bsbsbsg543
(iplugins.pylisp
ConsCell
p2984
(dp2985
g522
(iplugins.pylisp
Symbol
p2986
(dp2987
g512
g533
sbsg528
(iplugins.pylisp
Nil
p2988
(dp2989
bsbsg550
g0
sbs(iplugins.pylisp
Symbol
p2990
(dp2991
g787
S'xvid700MB'
p2992
sb(iplugins.pylisp
Integer
p2993
(dp2994
g1034
I42
sbs(iplugins.pylisp
Symbol
p2995
(dp2996
g1577
S'rand-func'
p2997
sb(iplugins.pylisp
Lambda
p2998
(dp2999
g1566
(iplugins.pylisp
ExpressionBody
p3000
(dp3001
g1569
(iplugins.pylisp
ConsCell
p3002
(dp3003
g1572
(iplugins.pylisp
ConsCell
p3004
(dp3005
g1572
(iplugins.pylisp
Symbol
p3006
(dp3007
g1577
S'let'
p3008
sbsg1579
(iplugins.pylisp
ConsCell
p3009
(dp3010
g1572
(iplugins.pylisp
ConsCell
p3011
(dp3012
g1572
(iplugins.pylisp
ConsCell
p3013
(dp3014
g1572
(iplugins.pylisp
Symbol
p3015
(dp3016
g1577
S'functions'
p3017
sbsg1579
(iplugins.pylisp
ConsCell
p3018
(dp3019
g1572
(iplugins.pylisp
ConsCell
p3020
(dp3021
g1572
(iplugins.pylisp
Symbol
p3022
(dp3023
g1577
S'list'
p3024
sbsg1579
(iplugins.pylisp
ConsCell
p3025
(dp3026
g1572
(iplugins.pylisp
Symbol
p3027
(dp3028
g1577
S'+'
p3029
sbsg1579
(iplugins.pylisp
ConsCell
p3030
(dp3031
g1572
(iplugins.pylisp
Symbol
p3032
(dp3033
g1577
S'dxrandom'
p3034
sbsg1579
(iplugins.pylisp
ConsCell
p3035
(dp3036
g1572
(iplugins.pylisp
Symbol
p3037
(dp3038
g1577
S'nsfw'
p3039
sbsg1579
(iplugins.pylisp
Nil
p3040
(dp3041
bsbsbsbsbsg1579
(iplugins.pylisp
Nil
p3042
(dp3043
bsbsbsg1579
(iplugins.pylisp
Nil
p3044
(dp3045
bsbsg1579
(iplugins.pylisp
ConsCell
p3046
(dp3047
g1572
(iplugins.pylisp
ConsCell
p3048
(dp3049
g1572
(iplugins.pylisp
Symbol
p3050
(dp3051
g1577
S'nth'
p3052
sbsg1579
(iplugins.pylisp
ConsCell
p3053
(dp3054
g1572
(iplugins.pylisp
ConsCell
p3055
(dp3056
g1572
(iplugins.pylisp
Symbol
p3057
(dp3058
g1577
S'rand'
p3059
sbsg1579
(iplugins.pylisp
ConsCell
p3060
(dp3061
g1572
(iplugins.pylisp
ConsCell
p3062
(dp3063
g1572
(iplugins.pylisp
Symbol
p3064
(dp3065
g1577
S'length'
p3066
sbsg1579
(iplugins.pylisp
ConsCell
p3067
(dp3068
g1572
(iplugins.pylisp
Symbol
p3069
(dp3070
g1577
S'functions'
p3071
sbsg1579
(iplugins.pylisp
Nil
p3072
(dp3073
bsbsbsg1579
(iplugins.pylisp
Nil
p3074
(dp3075
bsbsbsg1579
(iplugins.pylisp
ConsCell
p3076
(dp3077
g1572
(iplugins.pylisp
Symbol
p3078
(dp3079
g1577
S'functions'
p3080
sbsg1579
(iplugins.pylisp
Nil
p3081
(dp3082
bsbsbsbsg1579
(iplugins.pylisp
Nil
p3083
(dp3084
bsbsbsbsg1579
(iplugins.pylisp
Nil
p3085
(dp3086
bsbsbsg1656
(iplugins.pylisp
Nil
p3087
(dp3088
bsg1667
g0
sbs(iplugins.pylisp
Symbol
p3089
(dp3090
g745
S'favtitle'
p3091
sb(iplugins.pylisp
Lambda
p3092
(dp3093
g749
(iplugins.pylisp
ExpressionBody
p3094
(dp3095
g752
(iplugins.pylisp
ConsCell
p3096
(dp3097
g755
(iplugins.pylisp
ConsCell
p3098
(dp3099
g755
(iplugins.pylisp
Symbol
p3100
(dp3101
g745
S'command'
p3102
sbsg761
(iplugins.pylisp
ConsCell
p3103
(dp3104
g755
(iplugins.pylisp
String
p3105
(dp3106
g766
S'title'
p3107
sbsg761
(iplugins.pylisp
ConsCell
p3108
(dp3109
g755
(iplugins.pylisp
ConsCell
p3110
(dp3111
g755
(iplugins.pylisp
Symbol
p3112
(dp3113
g745
S'command'
p3114
sbsg761
(iplugins.pylisp
ConsCell
p3115
(dp3116
g755
(iplugins.pylisp
Symbol
p3117
(dp3118
g745
S'name'
p3119
sbsg761
(iplugins.pylisp
ConsCell
p3120
(dp3121
g755
(iplugins.pylisp
String
p3122
(dp3123
g766
S'lispnik'
p3124
sbsg761
(iplugins.pylisp
Nil
p3125
(dp3126
bsbsbsbsg761
(iplugins.pylisp
Nil
p3127
(dp3128
bsbsbsbsg761
(iplugins.pylisp
Nil
p3129
(dp3130
bsbsbsg777
(iplugins.pylisp
ConsCell
p3131
(dp3132
g755
(iplugins.pylisp
Symbol
p3133
(dp3134
g745
S'name'
p3135
sbsg761
(iplugins.pylisp
Nil
p3136
(dp3137
bsbsg784
g0
sbs(iplugins.pylisp
Symbol
p3138
(dp3139
g291
S'cadadr'
p3140
sb(iplugins.pylisp
Lambda
p3141
(dp3142
g797
(iplugins.pylisp
ExpressionBody
p3143
(dp3144
g800
(iplugins.pylisp
ConsCell
p3145
(dp3146
g295
(iplugins.pylisp
ConsCell
p3147
(dp3148
g295
(iplugins.pylisp
Symbol
p3149
(dp3150
g291
S'car'
p3151
sbsg299
(iplugins.pylisp
ConsCell
p3152
(dp3153
g295
(iplugins.pylisp
ConsCell
p3154
(dp3155
g295
(iplugins.pylisp
Symbol
p3156
(dp3157
g291
S'cdr'
p3158
sbsg299
(iplugins.pylisp
ConsCell
p3159
(dp3160
g295
(iplugins.pylisp
ConsCell
p3161
(dp3162
g295
(iplugins.pylisp
Symbol
p3163
(dp3164
g291
S'car'
p3165
sbsg299
(iplugins.pylisp
ConsCell
p3166
(dp3167
g295
(iplugins.pylisp
ConsCell
p3168
(dp3169
g295
(iplugins.pylisp
Symbol
p3170
(dp3171
g291
S'cdr'
p3172
sbsg299
(iplugins.pylisp
ConsCell
p3173
(dp3174
g295
(iplugins.pylisp
Symbol
p3175
(dp3176
g291
g1092
sbsg299
(iplugins.pylisp
Nil
p3177
(dp3178
bsbsbsg299
(iplugins.pylisp
Nil
p3179
(dp3180
bsbsbsg299
(iplugins.pylisp
Nil
p3181
(dp3182
bsbsbsg299
(iplugins.pylisp
Nil
p3183
(dp3184
bsbsbsg299
(iplugins.pylisp
Nil
p3185
(dp3186
bsbsbsg817
(iplugins.pylisp
ConsCell
p3187
(dp3188
g295
(iplugins.pylisp
Symbol
p3189
(dp3190
g291
g1092
sbsg299
(iplugins.pylisp
Nil
p3191
(dp3192
bsbsg820
g0
sbs(iplugins.pylisp
Symbol
p3193
(dp3194
g745
S'dxtitle'
p3195
sb(iplugins.pylisp
Lambda
p3196
(dp3197
g10
(iplugins.pylisp
ExpressionBody
p3198
(dp3199
g13
(iplugins.pylisp
ConsCell
p3200
(dp3201
g16
(iplugins.pylisp
ConsCell
p3202
(dp3203
g16
(iplugins.pylisp
Symbol
p3204
(dp3205
g6
S'let'
p3206
sbsg22
(iplugins.pylisp
ConsCell
p3207
(dp3208
g16
(iplugins.pylisp
ConsCell
p3209
(dp3210
g16
(iplugins.pylisp
ConsCell
p3211
(dp3212
g16
(iplugins.pylisp
Symbol
p3213
(dp3214
g6
S'url'
p3215
sbsg22
(iplugins.pylisp
ConsCell
p3216
(dp3217
g16
(iplugins.pylisp
ConsCell
p3218
(dp3219
g16
(iplugins.pylisp
Symbol
p3220
(dp3221
g6
S'command'
p3222
sbsg22
(iplugins.pylisp
ConsCell
p3223
(dp3224
g16
(iplugins.pylisp
String
p3225
(dp3226
g39
S'dx'
p3227
sbsg22
(iplugins.pylisp
ConsCell
p3228
(dp3229
g16
(iplugins.pylisp
ConsCell
p3230
(dp3231
g16
(iplugins.pylisp
Symbol
p3232
(dp3233
g6
S'string'
p3234
sbsg22
(iplugins.pylisp
ConsCell
p3235
(dp3236
g16
(iplugins.pylisp
Symbol
p3237
(dp3238
g6
S'sku'
p3239
sbsg22
(iplugins.pylisp
Nil
p3240
(dp3241
bsbsbsg22
(iplugins.pylisp
Nil
p3242
(dp3243
bsbsbsbsg22
(iplugins.pylisp
Nil
p3244
(dp3245
bsbsbsg22
(iplugins.pylisp
Nil
p3246
(dp3247
bsbsg22
(iplugins.pylisp
ConsCell
p3248
(dp3249
g16
(iplugins.pylisp
ConsCell
p3250
(dp3251
g16
(iplugins.pylisp
Symbol
p3252
(dp3253
g6
S'str-join'
p3254
sbsg22
(iplugins.pylisp
ConsCell
p3255
(dp3256
g16
(iplugins.pylisp
ConsCell
p3257
(dp3258
g16
(iplugins.pylisp
Symbol
p3259
(dp3260
g6
S'list'
p3261
sbsg22
(iplugins.pylisp
ConsCell
p3262
(dp3263
g16
(iplugins.pylisp
ConsCell
p3264
(dp3265
g16
(iplugins.pylisp
Symbol
p3266
(dp3267
g6
S'command'
p3268
sbsg22
(iplugins.pylisp
ConsCell
p3269
(dp3270
g16
(iplugins.pylisp
String
p3271
(dp3272
g39
S'title'
p3273
sbsg22
(iplugins.pylisp
ConsCell
p3274
(dp3275
g16
(iplugins.pylisp
Symbol
p3276
(dp3277
g6
S'url'
p3278
sbsg22
(iplugins.pylisp
Nil
p3279
(dp3280
bsbsbsbsg22
(iplugins.pylisp
ConsCell
p3281
(dp3282
g16
(iplugins.pylisp
Symbol
p3283
(dp3284
g6
S'url'
p3285
sbsg22
(iplugins.pylisp
Nil
p3286
(dp3287
bsbsbsbsg22
(iplugins.pylisp
ConsCell
p3288
(dp3289
g16
(iplugins.pylisp
String
p3290
(dp3291
g39
S' @ '
p3292
sbsg22
(iplugins.pylisp
Nil
p3293
(dp3294
bsbsbsbsg22
(iplugins.pylisp
Nil
p3295
(dp3296
bsbsbsbsg22
(iplugins.pylisp
Nil
p3297
(dp3298
bsbsbsg94
(iplugins.pylisp
ConsCell
p3299
(dp3300
g16
(iplugins.pylisp
Symbol
p3301
(dp3302
g6
S'sku'
p3303
sbsg22
(iplugins.pylisp
Nil
p3304
(dp3305
bsbsg105
g0
sbs(iplugins.pylisp
Symbol
p3306
(dp3307
g6
S'kukern'
p3308
sb(iplugins.pylisp
Lambda
p3309
(dp3310
g10
(iplugins.pylisp
ExpressionBody
p3311
(dp3312
g13
(iplugins.pylisp
ConsCell
p3313
(dp3314
g16
(iplugins.pylisp
ConsCell
p3315
(dp3316
g16
(iplugins.pylisp
Symbol
p3317
(dp3318
g6
S'helpkuk'
p3319
sbsg22
(iplugins.pylisp
ConsCell
p3320
(dp3321
g16
(iplugins.pylisp
Symbol
p3322
(dp3323
g6
g34
sbsg22
(iplugins.pylisp
ConsCell
p3324
(dp3325
g16
(iplugins.pylisp
String
p3326
(dp3327
g39
S'D'
p3328
sbsg22
(iplugins.pylisp
Nil
p3329
(dp3330
bsbsbsbsg22
(iplugins.pylisp
Nil
p3331
(dp3332
bsbsbsg94
(iplugins.pylisp
ConsCell
p3333
(dp3334
g16
(iplugins.pylisp
Symbol
p3335
(dp3336
g6
g34
sbsg22
(iplugins.pylisp
Nil
p3337
(dp3338
bsbsg105
g0
sbs(iplugins.pylisp
Symbol
p3339
(dp3340
g108
S'hampy'
p3341
sb(iplugins.pylisp
Symbol
p3342
(dp3343
g108
S's\xc3\xa4mst'
p3344
sbs(iplugins.pylisp
Symbol
p3345
(dp3346
g1418
S'kaffe'
p3347
sb(iplugins.pylisp
Symbol
p3348
(dp3349
g1418
S'+kaffe'
p3350
sbs(iplugins.pylisp
Symbol
p3351
(dp3352
g108
S'dupa'
p3353
sb(iplugins.pylisp
ConsCell
p3354
(dp3355
g687
(iplugins.pylisp
Symbol
p3356
(dp3357
g108
S'\xc2\xa0'
p3358
sbsg693
(iplugins.pylisp
ConsCell
p3359
(dp3360
g687
(iplugins.pylisp
Symbol
p3361
(dp3362
g108
S'O'
p3363
sbsg693
(iplugins.pylisp
ConsCell
p3364
(dp3365
g687
(iplugins.pylisp
Symbol
p3366
(dp3367
g108
S'\xc2\xa0'
p3368
sbsg693
(iplugins.pylisp
Nil
p3369
(dp3370
bsbsbsbs(iplugins.pylisp
Symbol
p3371
(dp3372
g291
S'Oliver'
p3373
sb(iplugins.pylisp
ConsCell
p3374
(dp3375
g295
(iplugins.pylisp
Symbol
p3376
(dp3377
g291
S'\xe2\x81\xbb\\'
p3378
sbsg299
(iplugins.pylisp
ConsCell
p3379
(dp3380
g295
(iplugins.pylisp
ConsCell
p3381
(dp3382
g295
(iplugins.pylisp
Symbol
p3383
(dp3384
g291
S'\xe2\x81\xb0_o'
p3385
sbsg299
(iplugins.pylisp
Nil
p3386
(dp3387
bsbsg299
(iplugins.pylisp
ConsCell
p3388
(dp3389
g295
(iplugins.pylisp
Symbol
p3390
(dp3391
g291
S'/\xe2\x81\xbb'
p3392
sbsg299
(iplugins.pylisp
Nil
p3393
(dp3394
bsbsbsbs(iplugins.pylisp
Symbol
p3395
(dp3396
g420
S'<='
p3397
sb(iplugins.pylisp
Lambda
p3398
(dp3399
g2046
(iplugins.pylisp
ExpressionBody
p3400
(dp3401
g2049
(iplugins.pylisp
ConsCell
p3402
(dp3403
g2052
(iplugins.pylisp
ConsCell
p3404
(dp3405
g2052
(iplugins.pylisp
Symbol
p3406
(dp3407
g420
S'or'
p3408
sbsg2058
(iplugins.pylisp
ConsCell
p3409
(dp3410
g2052
(iplugins.pylisp
ConsCell
p3411
(dp3412
g2052
(iplugins.pylisp
Symbol
p3413
(dp3414
g420
g2916
sbsg2058
(iplugins.pylisp
ConsCell
p3415
(dp3416
g2052
(iplugins.pylisp
Symbol
p3417
(dp3418
g420
g2070
sbsg2058
(iplugins.pylisp
ConsCell
p3419
(dp3420
g2052
(iplugins.pylisp
Symbol
p3421
(dp3422
g420
g2075
sbsg2058
(iplugins.pylisp
Nil
p3423
(dp3424
bsbsbsbsg2058
(iplugins.pylisp
ConsCell
p3425
(dp3426
g2052
(iplugins.pylisp
ConsCell
p3427
(dp3428
g2052
(iplugins.pylisp
Symbol
p3429
(dp3430
g420
g2084
sbsg2058
(iplugins.pylisp
ConsCell
p3431
(dp3432
g2052
(iplugins.pylisp
Symbol
p3433
(dp3434
g420
g2070
sbsg2058
(iplugins.pylisp
ConsCell
p3435
(dp3436
g2052
(iplugins.pylisp
Symbol
p3437
(dp3438
g420
g2075
sbsg2058
(iplugins.pylisp
Nil
p3439
(dp3440
bsbsbsbsg2058
(iplugins.pylisp
Nil
p3441
(dp3442
bsbsbsbsg2058
(iplugins.pylisp
Nil
p3443
(dp3444
bsbsbsg2099
(iplugins.pylisp
ConsCell
p3445
(dp3446
g2052
(iplugins.pylisp
Symbol
p3447
(dp3448
g420
g2070
sbsg2058
(iplugins.pylisp
ConsCell
p3449
(dp3450
g2052
(iplugins.pylisp
Symbol
p3451
(dp3452
g420
g2075
sbsg2058
(iplugins.pylisp
Nil
p3453
(dp3454
bsbsbsg2110
g0
sbs(iplugins.pylisp
Symbol
p3455
(dp3456
g1418
S'infrec'
p3457
sb(iplugins.pylisp
Lambda
p3458
(dp3459
g1906
(iplugins.pylisp
ExpressionBody
p3460
(dp3461
g1909
(iplugins.pylisp
ConsCell
p3462
(dp3463
g1912
(iplugins.pylisp
ConsCell
p3464
(dp3465
g1912
(iplugins.pylisp
Symbol
p3466
(dp3467
g1418
S'infrec'
p3468
sbsg1918
(iplugins.pylisp
ConsCell
p3469
(dp3470
g1912
(iplugins.pylisp
Symbol
p3471
(dp3472
g1418
S'lol'
p3473
sbsg1918
(iplugins.pylisp
Nil
p3474
(dp3475
bsbsbsg1918
(iplugins.pylisp
Nil
p3476
(dp3477
bsbsbsg1989
(iplugins.pylisp
ConsCell
p3478
(dp3479
g1912
(iplugins.pylisp
Symbol
p3480
(dp3481
g1418
S'lol'
p3482
sbsg1918
(iplugins.pylisp
Nil
p3483
(dp3484
bsbsg1996
g0
sbs(iplugins.pylisp
Symbol
p3485
(dp3486
g1418
S'merola'
p3487
sb(iplugins.pylisp
String
p3488
(dp3489
g1937
S'tv\xc3\xa4tta mig. NUU!!!'
p3490
sbs(iplugins.pylisp
Symbol
p3491
(dp3492
g1069
S'ampleyfly'
p3493
sb(iplugins.pylisp
Symbol
p3494
(dp3495
g1069
S'ampleyfly'
p3496
sbs(iplugins.pylisp
Symbol
p3497
(dp3498
g1226
S'inc'
p3499
sb(iplugins.pylisp
Lambda
p3500
(dp3501
g1215
(iplugins.pylisp
ExpressionBody
p3502
(dp3503
g1218
(iplugins.pylisp
ConsCell
p3504
(dp3505
g1221
(iplugins.pylisp
ConsCell
p3506
(dp3507
g1221
(iplugins.pylisp
Symbol
p3508
(dp3509
g1226
S'+'
p3510
sbsg1228
(iplugins.pylisp
ConsCell
p3511
(dp3512
g1221
(iplugins.pylisp
Symbol
p3513
(dp3514
g1226
S'x'
p3515
sbsg1228
(iplugins.pylisp
ConsCell
p3516
(dp3517
g1221
(iplugins.pylisp
Integer
p3518
(dp3519
g1244
I1
sbsg1228
(iplugins.pylisp
Nil
p3520
(dp3521
bsbsbsbsg1228
(iplugins.pylisp
Nil
p3522
(dp3523
bsbsbsg1256
(iplugins.pylisp
ConsCell
p3524
(dp3525
g1221
(iplugins.pylisp
Symbol
p3526
(dp3527
g1226
g3515
sbsg1228
(iplugins.pylisp
Nil
p3528
(dp3529
bsbsg1267
g0
sbs(iplugins.pylisp
Symbol
p3530
(dp3531
g6
S'approximate-pi'
p3532
sb(iplugins.pylisp
Lambda
p3533
(dp3534
g10
(iplugins.pylisp
ExpressionBody
p3535
(dp3536
g13
(iplugins.pylisp
ConsCell
p3537
(dp3538
g16
(iplugins.pylisp
ConsCell
p3539
(dp3540
g16
(iplugins.pylisp
Symbol
p3541
(dp3542
g6
S'if'
p3543
sbsg22
(iplugins.pylisp
ConsCell
p3544
(dp3545
g16
(iplugins.pylisp
ConsCell
p3546
(dp3547
g16
(iplugins.pylisp
Symbol
p3548
(dp3549
g6
g29
sbsg22
(iplugins.pylisp
ConsCell
p3550
(dp3551
g16
(iplugins.pylisp
Symbol
p3552
(dp3553
g6
S'm'
p3554
sbsg22
(iplugins.pylisp
ConsCell
p3555
(dp3556
g16
(iplugins.pylisp
Symbol
p3557
(dp3558
g6
S'-1'
p3559
sbsg22
(iplugins.pylisp
Nil
p3560
(dp3561
bsbsbsbsg22
(iplugins.pylisp
ConsCell
p3562
(dp3563
g16
(iplugins.pylisp
Integer
p3564
(dp3565
g39
I1
sbsg22
(iplugins.pylisp
ConsCell
p3566
(dp3567
g16
(iplugins.pylisp
ConsCell
p3568
(dp3569
g16
(iplugins.pylisp
Symbol
p3570
(dp3571
g6
g162
sbsg22
(iplugins.pylisp
ConsCell
p3572
(dp3573
g16
(iplugins.pylisp
ConsCell
p3574
(dp3575
g16
(iplugins.pylisp
Symbol
p3576
(dp3577
g6
S'*'
p3578
sbsg22
(iplugins.pylisp
ConsCell
p3579
(dp3580
g16
(iplugins.pylisp
Integer
p3581
(dp3582
g39
I4
sbsg22
(iplugins.pylisp
ConsCell
p3583
(dp3584
g16
(iplugins.pylisp
ConsCell
p3585
(dp3586
g16
(iplugins.pylisp
Symbol
p3587
(dp3588
g6
S'pow'
p3589
sbsg22
(iplugins.pylisp
ConsCell
p3590
(dp3591
g16
(iplugins.pylisp
Symbol
p3592
(dp3593
g6
S'-1'
p3594
sbsg22
(iplugins.pylisp
ConsCell
p3595
(dp3596
g16
(iplugins.pylisp
Symbol
p3597
(dp3598
g6
g3554
sbsg22
(iplugins.pylisp
Nil
p3599
(dp3600
bsbsbsbsg22
(iplugins.pylisp
Nil
p3601
(dp3602
bsbsbsbsg22
(iplugins.pylisp
ConsCell
p3603
(dp3604
g16
(iplugins.pylisp
ConsCell
p3605
(dp3606
g16
(iplugins.pylisp
Symbol
p3607
(dp3608
g6
S'+'
p3609
sbsg22
(iplugins.pylisp
ConsCell
p3610
(dp3611
g16
(iplugins.pylisp
ConsCell
p3612
(dp3613
g16
(iplugins.pylisp
Symbol
p3614
(dp3615
g6
g3578
sbsg22
(iplugins.pylisp
ConsCell
p3616
(dp3617
g16
(iplugins.pylisp
Integer
p3618
(dp3619
g39
I2
sbsg22
(iplugins.pylisp
ConsCell
p3620
(dp3621
g16
(iplugins.pylisp
Symbol
p3622
(dp3623
g6
g3554
sbsg22
(iplugins.pylisp
Nil
p3624
(dp3625
bsbsbsbsg22
(iplugins.pylisp
ConsCell
p3626
(dp3627
g16
(iplugins.pylisp
Integer
p3628
(dp3629
g39
I1
sbsg22
(iplugins.pylisp
Nil
p3630
(dp3631
bsbsbsbsg22
(iplugins.pylisp
Nil
p3632
(dp3633
bsbsbsbsg22
(iplugins.pylisp
Nil
p3634
(dp3635
bsbsbsbsbsg22
(iplugins.pylisp
Nil
p3636
(dp3637
bsbsbsg94
(iplugins.pylisp
ConsCell
p3638
(dp3639
g16
(iplugins.pylisp
Symbol
p3640
(dp3641
g6
g3554
sbsg22
(iplugins.pylisp
Nil
p3642
(dp3643
bsbsg105
g0
sbs(iplugins.pylisp
Symbol
p3644
(dp3645
g6
S'CeQeal'
p3646
sb(iplugins.pylisp
Nil
p3647
(dp3648
bs(iplugins.pylisp
Symbol
p3649
(dp3650
g745
S'favdown'
p3651
sb(iplugins.pylisp
Lambda
p3652
(dp3653
g749
(iplugins.pylisp
ExpressionBody
p3654
(dp3655
g752
(iplugins.pylisp
ConsCell
p3656
(dp3657
g755
(iplugins.pylisp
ConsCell
p3658
(dp3659
g755
(iplugins.pylisp
Symbol
p3660
(dp3661
g745
S'command'
p3662
sbsg761
(iplugins.pylisp
ConsCell
p3663
(dp3664
g755
(iplugins.pylisp
String
p3665
(dp3666
g766
S'down'
p3667
sbsg761
(iplugins.pylisp
ConsCell
p3668
(dp3669
g755
(iplugins.pylisp
ConsCell
p3670
(dp3671
g755
(iplugins.pylisp
Symbol
p3672
(dp3673
g745
S'command'
p3674
sbsg761
(iplugins.pylisp
ConsCell
p3675
(dp3676
g755
(iplugins.pylisp
Symbol
p3677
(dp3678
g745
S'name'
p3679
sbsg761
(iplugins.pylisp
ConsCell
p3680
(dp3681
g755
(iplugins.pylisp
String
p3682
(dp3683
g766
S'lispnik'
p3684
sbsg761
(iplugins.pylisp
Nil
p3685
(dp3686
bsbsbsbsg761
(iplugins.pylisp
Nil
p3687
(dp3688
bsbsbsbsg761
(iplugins.pylisp
Nil
p3689
(dp3690
bsbsbsg777
(iplugins.pylisp
ConsCell
p3691
(dp3692
g755
(iplugins.pylisp
Symbol
p3693
(dp3694
g745
S'name'
p3695
sbsg761
(iplugins.pylisp
Nil
p3696
(dp3697
bsbsg784
g0
sbs(iplugins.pylisp
Symbol
p3698
(dp3699
g672
S'-'
p3700
sb(iplugins.pylisp
NativeFunction
p3701
(dp3702
S'function'
p3703
cplugins.pylisp
sub_func
p3704
sS'num_args'
p3705
I2
sg672
g3700
sbs(iplugins.pylisp
Symbol
p3706
(dp3707
g1418
S'setkuk'
p3708
sb(iplugins.pylisp
Lambda
p3709
(dp3710
g1906
(iplugins.pylisp
ExpressionBody
p3711
(dp3712
g1909
(iplugins.pylisp
ConsCell
p3713
(dp3714
g1912
(iplugins.pylisp
ConsCell
p3715
(dp3716
g1912
(iplugins.pylisp
Symbol
p3717
(dp3718
g1418
S'setq'
p3719
sbsg1918
(iplugins.pylisp
ConsCell
p3720
(dp3721
g1912
(iplugins.pylisp
Symbol
p3722
(dp3723
g1418
S'name'
p3724
sbsg1918
(iplugins.pylisp
ConsCell
p3725
(dp3726
g1912
(iplugins.pylisp
Symbol
p3727
(dp3728
g1418
S'val'
p3729
sbsg1918
(iplugins.pylisp
Nil
p3730
(dp3731
bsbsbsbsg1918
(iplugins.pylisp
Nil
p3732
(dp3733
bsbsbsg1989
(iplugins.pylisp
ConsCell
p3734
(dp3735
g1912
(iplugins.pylisp
Symbol
p3736
(dp3737
g1418
S'name'
p3738
sbsg1918
(iplugins.pylisp
ConsCell
p3739
(dp3740
g1912
(iplugins.pylisp
Symbol
p3741
(dp3742
g1418
S'val'
p3743
sbsg1918
(iplugins.pylisp
Nil
p3744
(dp3745
bsbsbsg1996
g0
sbs(iplugins.pylisp
Symbol
p3746
(dp3747
g1226
S'sum-list'
p3748
sb(iplugins.pylisp
Lambda
p3749
(dp3750
g2116
(iplugins.pylisp
ExpressionBody
p3751
(dp3752
g2119
(iplugins.pylisp
ConsCell
p3753
(dp3754
g1428
(iplugins.pylisp
ConsCell
p3755
(dp3756
g1428
(iplugins.pylisp
Symbol
p3757
(dp3758
g1069
S'if'
p3759
sbsg1432
(iplugins.pylisp
ConsCell
p3760
(dp3761
g1428
(iplugins.pylisp
ConsCell
p3762
(dp3763
g1428
(iplugins.pylisp
Symbol
p3764
(dp3765
g1069
S'not'
p3766
sbsg1432
(iplugins.pylisp
ConsCell
p3767
(dp3768
g1428
(iplugins.pylisp
ConsCell
p3769
(dp3770
g1428
(iplugins.pylisp
Symbol
p3771
(dp3772
g1069
S'listp'
p3773
sbsg1432
(iplugins.pylisp
ConsCell
p3774
(dp3775
g1428
(iplugins.pylisp
Symbol
p3776
(dp3777
g1069
S'l'
p3778
sbsg1432
(iplugins.pylisp
Nil
p3779
(dp3780
bsbsbsg1432
(iplugins.pylisp
Nil
p3781
(dp3782
bsbsbsg1432
(iplugins.pylisp
ConsCell
p3783
(dp3784
g1428
(iplugins.pylisp
ConsCell
p3785
(dp3786
g1428
(iplugins.pylisp
Symbol
p3787
(dp3788
g1069
S'print'
p3789
sbsg1432
(iplugins.pylisp
ConsCell
p3790
(dp3791
g1428
(iplugins.pylisp
String
p3792
(dp3793
g1537
S'lol ingen lista'
p3794
sbsg1432
(iplugins.pylisp
Nil
p3795
(dp3796
bsbsbsg1432
(iplugins.pylisp
ConsCell
p3797
(dp3798
g1428
(iplugins.pylisp
ConsCell
p3799
(dp3800
g1428
(iplugins.pylisp
Symbol
p3801
(dp3802
g1069
S'if'
p3803
sbsg1432
(iplugins.pylisp
ConsCell
p3804
(dp3805
g1428
(iplugins.pylisp
ConsCell
p3806
(dp3807
g1428
(iplugins.pylisp
Symbol
p3808
(dp3809
g1069
S'endp'
p3810
sbsg1432
(iplugins.pylisp
ConsCell
p3811
(dp3812
g1428
(iplugins.pylisp
Symbol
p3813
(dp3814
g1069
g3778
sbsg1432
(iplugins.pylisp
Nil
p3815
(dp3816
bsbsbsg1432
(iplugins.pylisp
ConsCell
p3817
(dp3818
g1428
(iplugins.pylisp
Integer
p3819
(dp3820
g1537
I0
sbsg1432
(iplugins.pylisp
ConsCell
p3821
(dp3822
g1428
(iplugins.pylisp
ConsCell
p3823
(dp3824
g1428
(iplugins.pylisp
Symbol
p3825
(dp3826
g1069
S'-'
p3827
sbsg1432
(iplugins.pylisp
ConsCell
p3828
(dp3829
g1428
(iplugins.pylisp
ConsCell
p3830
(dp3831
g1428
(iplugins.pylisp
Symbol
p3832
(dp3833
g1069
S'first'
p3834
sbsg1432
(iplugins.pylisp
ConsCell
p3835
(dp3836
g1428
(iplugins.pylisp
Symbol
p3837
(dp3838
g1069
g3778
sbsg1432
(iplugins.pylisp
Nil
p3839
(dp3840
bsbsbsg1432
(iplugins.pylisp
ConsCell
p3841
(dp3842
g1428
(iplugins.pylisp
ConsCell
p3843
(dp3844
g1428
(iplugins.pylisp
Symbol
p3845
(dp3846
g1069
g3827
sbsg1432
(iplugins.pylisp
ConsCell
p3847
(dp3848
g1428
(iplugins.pylisp
Integer
p3849
(dp3850
g1537
I0
sbsg1432
(iplugins.pylisp
ConsCell
p3851
(dp3852
g1428
(iplugins.pylisp
ConsCell
p3853
(dp3854
g1428
(iplugins.pylisp
Symbol
p3855
(dp3856
g1069
S'+'
p3857
sbsg1432
(iplugins.pylisp
ConsCell
p3858
(dp3859
g1428
(iplugins.pylisp
ConsCell
p3860
(dp3861
g1428
(iplugins.pylisp
Symbol
p3862
(dp3863
g1069
S'rest'
p3864
sbsg1432
(iplugins.pylisp
ConsCell
p3865
(dp3866
g1428
(iplugins.pylisp
Symbol
p3867
(dp3868
g1069
g3778
sbsg1432
(iplugins.pylisp
Nil
p3869
(dp3870
bsbsbsg1432
(iplugins.pylisp
Nil
p3871
(dp3872
bsbsbsg1432
(iplugins.pylisp
Nil
p3873
(dp3874
bsbsbsbsg1432
(iplugins.pylisp
Nil
p3875
(dp3876
bsbsbsbsg1432
(iplugins.pylisp
Nil
p3877
(dp3878
bsbsbsbsbsg1432
(iplugins.pylisp
Nil
p3879
(dp3880
bsbsbsbsbsg1432
(iplugins.pylisp
Nil
p3881
(dp3882
bsbsbsg2144
(iplugins.pylisp
ConsCell
p3883
(dp3884
g1428
(iplugins.pylisp
Symbol
p3885
(dp3886
g1069
g3778
sbsg1432
(iplugins.pylisp
Nil
p3887
(dp3888
bsbsg2152
g0
sbs(iplugins.pylisp
Symbol
p3889
(dp3890
g6
S'omnom'
p3891
sb(iplugins.pylisp
Lambda
p3892
(dp3893
g10
(iplugins.pylisp
ExpressionBody
p3894
(dp3895
g13
(iplugins.pylisp
ConsCell
p3896
(dp3897
g16
(iplugins.pylisp
ConsCell
p3898
(dp3899
g16
(iplugins.pylisp
Symbol
p3900
(dp3901
g6
S'str-append'
p3902
sbsg22
(iplugins.pylisp
ConsCell
p3903
(dp3904
g16
(iplugins.pylisp
String
p3905
(dp3906
g39
S'om'
p3907
sbsg22
(iplugins.pylisp
ConsCell
p3908
(dp3909
g16
(iplugins.pylisp
ConsCell
p3910
(dp3911
g16
(iplugins.pylisp
Symbol
p3912
(dp3913
g6
S'str-join'
p3914
sbsg22
(iplugins.pylisp
ConsCell
p3915
(dp3916
g16
(iplugins.pylisp
ConsCell
p3917
(dp3918
g16
(iplugins.pylisp
Symbol
p3919
(dp3920
g6
S'copies'
p3921
sbsg22
(iplugins.pylisp
ConsCell
p3922
(dp3923
g16
(iplugins.pylisp
Symbol
p3924
(dp3925
g6
g34
sbsg22
(iplugins.pylisp
ConsCell
p3926
(dp3927
g16
(iplugins.pylisp
String
p3928
(dp3929
g39
S'nom'
p3930
sbsg22
(iplugins.pylisp
Nil
p3931
(dp3932
bsbsbsbsg22
(iplugins.pylisp
ConsCell
p3933
(dp3934
g16
(iplugins.pylisp
String
p3935
(dp3936
g39
g67
sbsg22
(iplugins.pylisp
Nil
p3937
(dp3938
bsbsbsbsg22
(iplugins.pylisp
Nil
p3939
(dp3940
bsbsbsbsg22
(iplugins.pylisp
Nil
p3941
(dp3942
bsbsbsg94
(iplugins.pylisp
ConsCell
p3943
(dp3944
g16
(iplugins.pylisp
Symbol
p3945
(dp3946
g6
g34
sbsg22
(iplugins.pylisp
Nil
p3947
(dp3948
bsbsg105
g0
sbs(iplugins.pylisp
Symbol
p3949
(dp3950
g108
S'test'
p3951
sb(iplugins.pylisp
Integer
p3952
(dp3953
g2719
I4
sbs(iplugins.pylisp
Symbol
p3954
(dp3955
g1226
S'map'
p3956
sb(iplugins.pylisp
Lambda
p3957
(dp3958
g1215
(iplugins.pylisp
ExpressionBody
p3959
(dp3960
g1218
(iplugins.pylisp
ConsCell
p3961
(dp3962
g1221
(iplugins.pylisp
ConsCell
p3963
(dp3964
g1221
(iplugins.pylisp
Symbol
p3965
(dp3966
g1226
S'if'
p3967
sbsg1228
(iplugins.pylisp
ConsCell
p3968
(dp3969
g1221
(iplugins.pylisp
ConsCell
p3970
(dp3971
g1221
(iplugins.pylisp
Symbol
p3972
(dp3973
g1226
S'endp'
p3974
sbsg1228
(iplugins.pylisp
ConsCell
p3975
(dp3976
g1221
(iplugins.pylisp
Symbol
p3977
(dp3978
g1226
S'l'
p3979
sbsg1228
(iplugins.pylisp
Nil
p3980
(dp3981
bsbsbsg1228
(iplugins.pylisp
ConsCell
p3982
(dp3983
g1221
(iplugins.pylisp
Symbol
p3984
(dp3985
g1226
S'nil'
p3986
sbsg1228
(iplugins.pylisp
ConsCell
p3987
(dp3988
g1221
(iplugins.pylisp
ConsCell
p3989
(dp3990
g1221
(iplugins.pylisp
Symbol
p3991
(dp3992
g1226
S'cons'
p3993
sbsg1228
(iplugins.pylisp
ConsCell
p3994
(dp3995
g1221
(iplugins.pylisp
ConsCell
p3996
(dp3997
g1221
(iplugins.pylisp
Symbol
p3998
(dp3999
g1226
S'f'
p4000
sbsg1228
(iplugins.pylisp
ConsCell
p4001
(dp4002
g1221
(iplugins.pylisp
ConsCell
p4003
(dp4004
g1221
(iplugins.pylisp
Symbol
p4005
(dp4006
g1226
S'car'
p4007
sbsg1228
(iplugins.pylisp
ConsCell
p4008
(dp4009
g1221
(iplugins.pylisp
Symbol
p4010
(dp4011
g1226
g3979
sbsg1228
(iplugins.pylisp
Nil
p4012
(dp4013
bsbsbsg1228
(iplugins.pylisp
Nil
p4014
(dp4015
bsbsbsg1228
(iplugins.pylisp
ConsCell
p4016
(dp4017
g1221
(iplugins.pylisp
ConsCell
p4018
(dp4019
g1221
(iplugins.pylisp
Symbol
p4020
(dp4021
g1226
S'map'
p4022
sbsg1228
(iplugins.pylisp
ConsCell
p4023
(dp4024
g1221
(iplugins.pylisp
Symbol
p4025
(dp4026
g1226
g4000
sbsg1228
(iplugins.pylisp
ConsCell
p4027
(dp4028
g1221
(iplugins.pylisp
ConsCell
p4029
(dp4030
g1221
(iplugins.pylisp
Symbol
p4031
(dp4032
g1226
S'cdr'
p4033
sbsg1228
(iplugins.pylisp
ConsCell
p4034
(dp4035
g1221
(iplugins.pylisp
Symbol
p4036
(dp4037
g1226
g3979
sbsg1228
(iplugins.pylisp
Nil
p4038
(dp4039
bsbsbsg1228
(iplugins.pylisp
Nil
p4040
(dp4041
bsbsbsbsg1228
(iplugins.pylisp
Nil
p4042
(dp4043
bsbsbsbsg1228
(iplugins.pylisp
Nil
p4044
(dp4045
bsbsbsbsbsg1228
(iplugins.pylisp
Nil
p4046
(dp4047
bsbsbsg1256
(iplugins.pylisp
ConsCell
p4048
(dp4049
g1221
(iplugins.pylisp
Symbol
p4050
(dp4051
g1226
g4000
sbsg1228
(iplugins.pylisp
ConsCell
p4052
(dp4053
g1221
(iplugins.pylisp
Symbol
p4054
(dp4055
g1226
g3979
sbsg1228
(iplugins.pylisp
Nil
p4056
(dp4057
bsbsbsg1267
g0
sbs(iplugins.pylisp
Symbol
p4058
(dp4059
g672
S'nil'
p4060
sbg3647
s(iplugins.pylisp
Quoted
p4061
(dp4062
g665
(iplugins.pylisp
Symbol
p4063
(dp4064
g512
g533
sbsb(iplugins.pylisp
Integer
p4065
(dp4066
g538
I2
sbs(iplugins.pylisp
Symbol
p4067
(dp4068
S'name'
p4069
S'add-together'
p4070
sb(iplugins.pylisp
Macro
p4071
(dp4072
S'expression'
p4073
(iplugins.pylisp
ConsCell
p4074
(dp4075
S'car'
p4076
(iplugins.pylisp
Symbol
p4077
(dp4078
S'name'
p4079
S'+'
p4080
sbsS'cdr'
p4081
(iplugins.pylisp
ConsCell
p4082
(dp4083
g4076
(iplugins.pylisp
Symbol
p4084
(dp4085
g4079
S'o'
p4086
sbsg4081
(iplugins.pylisp
ConsCell
p4087
(dp4088
g4076
(iplugins.pylisp
Symbol
p4089
(dp4090
g4079
S'p'
p4091
sbsg4081
(iplugins.pylisp
Nil
p4092
(dp4093
bsbsbsbsS'parameters'
p4094
(iplugins.pylisp
ConsCell
p4095
(dp4096
g4076
(iplugins.pylisp
Symbol
p4097
(dp4098
g4079
g4086
sbsg4081
(iplugins.pylisp
ConsCell
p4099
(dp4100
g4076
(iplugins.pylisp
Symbol
p4101
(dp4102
g4079
g4091
sbsg4081
(iplugins.pylisp
Nil
p4103
(dp4104
bsbsbsS'env'
p4105
g0
sbs(iplugins.pylisp
Symbol
p4106
(dp4107
g6
S'dxk\xc3\xb6p'
p4108
sb(iplugins.pylisp
Lambda
p4109
(dp4110
g10
(iplugins.pylisp
ExpressionBody
p4111
(dp4112
g13
(iplugins.pylisp
ConsCell
p4113
(dp4114
g16
(iplugins.pylisp
ConsCell
p4115
(dp4116
g16
(iplugins.pylisp
Symbol
p4117
(dp4118
g6
S'str-append'
p4119
sbsg22
(iplugins.pylisp
ConsCell
p4120
(dp4121
g16
(iplugins.pylisp
ConsCell
p4122
(dp4123
g16
(iplugins.pylisp
Symbol
p4124
(dp4125
g6
S'str-append'
p4126
sbsg22
(iplugins.pylisp
ConsCell
p4127
(dp4128
g16
(iplugins.pylisp
ConsCell
p4129
(dp4130
g16
(iplugins.pylisp
Symbol
p4131
(dp4132
g6
S'str-append'
p4133
sbsg22
(iplugins.pylisp
ConsCell
p4134
(dp4135
g16
(iplugins.pylisp
String
p4136
(dp4137
g39
g1121
sbsg22
(iplugins.pylisp
ConsCell
p4138
(dp4139
g16
(iplugins.pylisp
ConsCell
p4140
(dp4141
g16
(iplugins.pylisp
Symbol
p4142
(dp4143
g6
S'str-append'
p4144
sbsg22
(iplugins.pylisp
ConsCell
p4145
(dp4146
g16
(iplugins.pylisp
ConsCell
p4147
(dp4148
g16
(iplugins.pylisp
Symbol
p4149
(dp4150
g6
S'stimes'
p4151
sbsg22
(iplugins.pylisp
ConsCell
p4152
(dp4153
g16
(iplugins.pylisp
Symbol
p4154
(dp4155
g6
g34
sbsg22
(iplugins.pylisp
ConsCell
p4156
(dp4157
g16
(iplugins.pylisp
String
p4158
(dp4159
g39
S'\xc3\xb6'
p4160
sbsg22
(iplugins.pylisp
Nil
p4161
(dp4162
bsbsbsbsg22
(iplugins.pylisp
ConsCell
p4163
(dp4164
g16
(iplugins.pylisp
String
p4165
(dp4166
g39
g1151
sbsg22
(iplugins.pylisp
Nil
p4167
(dp4168
bsbsbsbsg22
(iplugins.pylisp
Nil
p4169
(dp4170
bsbsbsbsg22
(iplugins.pylisp
ConsCell
p4171
(dp4172
g16
(iplugins.pylisp
String
p4173
(dp4174
g39
S': '
p4175
sbsg22
(iplugins.pylisp
Nil
p4176
(dp4177
bsbsbsbsg22
(iplugins.pylisp
ConsCell
p4178
(dp4179
g16
(iplugins.pylisp
ConsCell
p4180
(dp4181
g16
(iplugins.pylisp
Symbol
p4182
(dp4183
g6
S'dxrandom'
p4184
sbsg22
(iplugins.pylisp
Nil
p4185
(dp4186
bsbsg22
(iplugins.pylisp
Nil
p4187
(dp4188
bsbsbsbsg22
(iplugins.pylisp
Nil
p4189
(dp4190
bsbsbsg94
(iplugins.pylisp
ConsCell
p4191
(dp4192
g16
(iplugins.pylisp
Symbol
p4193
(dp4194
g6
g34
sbsg22
(iplugins.pylisp
Nil
p4195
(dp4196
bsbsg105
g0
sbs(iplugins.pylisp
Symbol
p4197
(dp4198
g1069
S'identity'
p4199
sb(iplugins.pylisp
Lambda
p4200
(dp4201
g2116
(iplugins.pylisp
ExpressionBody
p4202
(dp4203
g2119
(iplugins.pylisp
ConsCell
p4204
(dp4205
g1428
(iplugins.pylisp
Symbol
p4206
(dp4207
g1069
S'o'
p4208
sbsg1432
(iplugins.pylisp
Nil
p4209
(dp4210
bsbsbsg2144
(iplugins.pylisp
ConsCell
p4211
(dp4212
g1428
(iplugins.pylisp
Symbol
p4213
(dp4214
g1069
g4208
sbsg1432
(iplugins.pylisp
Nil
p4215
(dp4216
bsbsg2152
g0
sbs(iplugins.pylisp
Symbol
p4217
(dp4218
g1069
S'\xe7\xb2\xbe\xe8\x82\x89'
p4219
sb(iplugins.pylisp
Symbol
p4220
(dp4221
g1069
S'k\xc3\xb6tt'
p4222
sbs(iplugins.pylisp
Symbol
p4223
(dp4224
g745
S'third'
p4225
sb(iplugins.pylisp
Lambda
p4226
(dp4227
g749
(iplugins.pylisp
ExpressionBody
p4228
(dp4229
g752
(iplugins.pylisp
ConsCell
p4230
(dp4231
g755
(iplugins.pylisp
ConsCell
p4232
(dp4233
g755
(iplugins.pylisp
Symbol
p4234
(dp4235
g745
S'nth'
p4236
sbsg761
(iplugins.pylisp
ConsCell
p4237
(dp4238
g755
(iplugins.pylisp
Symbol
p4239
(dp4240
g745
g863
sbsg761
(iplugins.pylisp
ConsCell
p4241
(dp4242
g755
(iplugins.pylisp
Integer
p4243
(dp4244
g766
I2
sbsg761
(iplugins.pylisp
Nil
p4245
(dp4246
bsbsbsbsg761
(iplugins.pylisp
Nil
p4247
(dp4248
bsbsbsg777
(iplugins.pylisp
ConsCell
p4249
(dp4250
g755
(iplugins.pylisp
Symbol
p4251
(dp4252
g745
g863
sbsg761
(iplugins.pylisp
Nil
p4253
(dp4254
bsbsg784
g0
sbs(iplugins.pylisp
Symbol
p4255
(dp4256
g6
S'nomrate'
p4257
sb(iplugins.pylisp
Lambda
p4258
(dp4259
g10
(iplugins.pylisp
ExpressionBody
p4260
(dp4261
g13
(iplugins.pylisp
ConsCell
p4262
(dp4263
g16
(iplugins.pylisp
ConsCell
p4264
(dp4265
g16
(iplugins.pylisp
Symbol
p4266
(dp4267
g6
S'str-join'
p4268
sbsg22
(iplugins.pylisp
ConsCell
p4269
(dp4270
g16
(iplugins.pylisp
ConsCell
p4271
(dp4272
g16
(iplugins.pylisp
Symbol
p4273
(dp4274
g6
S'list'
p4275
sbsg22
(iplugins.pylisp
ConsCell
p4276
(dp4277
g16
(iplugins.pylisp
ConsCell
p4278
(dp4279
g16
(iplugins.pylisp
Symbol
p4280
(dp4281
g6
S'omnom'
p4282
sbsg22
(iplugins.pylisp
ConsCell
p4283
(dp4284
g16
(iplugins.pylisp
ConsCell
p4285
(dp4286
g16
(iplugins.pylisp
Symbol
p4287
(dp4288
g6
S'rand'
p4289
sbsg22
(iplugins.pylisp
ConsCell
p4290
(dp4291
g16
(iplugins.pylisp
Integer
p4292
(dp4293
g39
I10
sbsg22
(iplugins.pylisp
Nil
p4294
(dp4295
bsbsbsg22
(iplugins.pylisp
Nil
p4296
(dp4297
bsbsbsg22
(iplugins.pylisp
ConsCell
p4298
(dp4299
g16
(iplugins.pylisp
Symbol
p4300
(dp4301
g6
S'name'
p4302
sbsg22
(iplugins.pylisp
Nil
p4303
(dp4304
bsbsbsbsg22
(iplugins.pylisp
ConsCell
p4305
(dp4306
g16
(iplugins.pylisp
String
p4307
(dp4308
g39
S': '
p4309
sbsg22
(iplugins.pylisp
Nil
p4310
(dp4311
bsbsbsbsg22
(iplugins.pylisp
Nil
p4312
(dp4313
bsbsbsg94
(iplugins.pylisp
ConsCell
p4314
(dp4315
g16
(iplugins.pylisp
Symbol
p4316
(dp4317
g6
S'name'
p4318
sbsg22
(iplugins.pylisp
Nil
p4319
(dp4320
bsbsg105
g0
sbs(iplugins.pylisp
Symbol
p4321
(dp4322
g652
S'recurse'
p4323
sb(iplugins.pylisp
Lambda
p4324
(dp4325
S'expression'
p4326
(iplugins.pylisp
ExpressionBody
p4327
(dp4328
S'expressions'
p4329
(iplugins.pylisp
ConsCell
p4330
(dp4331
S'car'
p4332
(iplugins.pylisp
ConsCell
p4333
(dp4334
g4332
(iplugins.pylisp
Symbol
p4335
(dp4336
g652
S'if'
p4337
sbsS'cdr'
p4338
(iplugins.pylisp
ConsCell
p4339
(dp4340
g4332
(iplugins.pylisp
ConsCell
p4341
(dp4342
g4332
(iplugins.pylisp
Symbol
p4343
(dp4344
g652
S'='
p4345
sbsg4338
(iplugins.pylisp
ConsCell
p4346
(dp4347
g4332
(iplugins.pylisp
ConsCell
p4348
(dp4349
g4332
(iplugins.pylisp
Symbol
p4350
(dp4351
g652
S'setq'
p4352
sbsg4338
(iplugins.pylisp
ConsCell
p4353
(dp4354
g4332
(iplugins.pylisp
Symbol
p4355
(dp4356
g652
S'level'
p4357
sbsg4338
(iplugins.pylisp
ConsCell
p4358
(dp4359
g4332
(iplugins.pylisp
ConsCell
p4360
(dp4361
g4332
(iplugins.pylisp
Symbol
p4362
(dp4363
g652
S'-'
p4364
sbsg4338
(iplugins.pylisp
ConsCell
p4365
(dp4366
g4332
(iplugins.pylisp
Symbol
p4367
(dp4368
g652
S'level'
p4369
sbsg4338
(iplugins.pylisp
ConsCell
p4370
(dp4371
g4332
(iplugins.pylisp
Integer
p4372
(dp4373
g656
I1
sbsg4338
(iplugins.pylisp
Nil
p4374
(dp4375
bsbsbsbsg4338
(iplugins.pylisp
Nil
p4376
(dp4377
bsbsbsbsg4338
(iplugins.pylisp
ConsCell
p4378
(dp4379
g4332
(iplugins.pylisp
Integer
p4380
(dp4381
g656
I0
sbsg4338
(iplugins.pylisp
Nil
p4382
(dp4383
bsbsbsbsg4338
(iplugins.pylisp
ConsCell
p4384
(dp4385
g4332
(iplugins.pylisp
Symbol
p4386
(dp4387
g652
S'level'
p4388
sbsg4338
(iplugins.pylisp
ConsCell
p4389
(dp4390
g4332
(iplugins.pylisp
ConsCell
p4391
(dp4392
g4332
(iplugins.pylisp
Symbol
p4393
(dp4394
g652
S'recurse'
p4395
sbsg4338
(iplugins.pylisp
Nil
p4396
(dp4397
bsbsg4338
(iplugins.pylisp
Nil
p4398
(dp4399
bsbsbsbsbsg4338
(iplugins.pylisp
Nil
p4400
(dp4401
bsbsbsS'parameters'
p4402
(iplugins.pylisp
Nil
p4403
(dp4404
bsS'env'
p4405
g0
sbs(iplugins.pylisp
Symbol
p4406
(dp4407
g291
S'setq'
p4408
sb(iplugins.pylisp
Lambda
p4409
(dp4410
g797
(iplugins.pylisp
ExpressionBody
p4411
(dp4412
g800
(iplugins.pylisp
ConsCell
p4413
(dp4414
g295
(iplugins.pylisp
ConsCell
p4415
(dp4416
g295
(iplugins.pylisp
Symbol
p4417
(dp4418
g291
S'print'
p4419
sbsg299
(iplugins.pylisp
ConsCell
p4420
(dp4421
g295
(iplugins.pylisp
String
p4422
(dp4423
g662
S'nej du!'
p4424
sbsg299
(iplugins.pylisp
Nil
p4425
(dp4426
bsbsbsg299
(iplugins.pylisp
Nil
p4427
(dp4428
bsbsbsg817
(iplugins.pylisp
ConsCell
p4429
(dp4430
g295
(iplugins.pylisp
Symbol
p4431
(dp4432
g291
g1092
sbsg299
(iplugins.pylisp
ConsCell
p4433
(dp4434
g295
(iplugins.pylisp
Symbol
p4435
(dp4436
g291
S'y'
p4437
sbsg299
(iplugins.pylisp
Nil
p4438
(dp4439
bsbsbsg820
g0
sbs(iplugins.pylisp
Symbol
p4440
(dp4441
g553
S'hello'
p4442
sb(iplugins.pylisp
Lambda
p4443
(dp4444
g557
(iplugins.pylisp
ExpressionBody
p4445
(dp4446
g560
(iplugins.pylisp
ConsCell
p4447
(dp4448
g563
(iplugins.pylisp
ConsCell
p4449
(dp4450
g563
(iplugins.pylisp
Symbol
p4451
(dp4452
g553
S'print'
p4453
sbsg569
(iplugins.pylisp
ConsCell
p4454
(dp4455
g563
(iplugins.pylisp
ConsCell
p4456
(dp4457
g563
(iplugins.pylisp
Symbol
p4458
(dp4459
g553
S'str-append'
p4460
sbsg569
(iplugins.pylisp
ConsCell
p4461
(dp4462
g563
(iplugins.pylisp
String
p4463
(dp4464
g2371
S'hello '
p4465
sbsg569
(iplugins.pylisp
ConsCell
p4466
(dp4467
g563
(iplugins.pylisp
Symbol
p4468
(dp4469
g553
S'name'
p4470
sbsg569
(iplugins.pylisp
Nil
p4471
(dp4472
bsbsbsbsg569
(iplugins.pylisp
Nil
p4473
(dp4474
bsbsbsg569
(iplugins.pylisp
Nil
p4475
(dp4476
bsbsbsg610
(iplugins.pylisp
ConsCell
p4477
(dp4478
g563
(iplugins.pylisp
Symbol
p4479
(dp4480
g553
S'name'
p4481
sbsg569
(iplugins.pylisp
Nil
p4482
(dp4483
bsbsg621
g0
sbssS'parent'
p4484
Nsb.