(iplugins.pylisp
Environment
p0
(dp1
S'dictionary'
p2
(dp3
(iplugins.pylisp
Symbol
p4
(dp5
S'name'
p6
S'stimes'
p7
sb(iplugins.pylisp
Lambda
p8
(dp9
S'expression'
p10
(iplugins.pylisp
ExpressionBody
p11
(dp12
S'expressions'
p13
(iplugins.pylisp
ConsCell
p14
(dp15
S'car'
p16
(iplugins.pylisp
ConsCell
p17
(dp18
g16
(iplugins.pylisp
Symbol
p19
(dp20
g6
S'if'
p21
sbsS'cdr'
p22
(iplugins.pylisp
ConsCell
p23
(dp24
g16
(iplugins.pylisp
ConsCell
p25
(dp26
g16
(iplugins.pylisp
Symbol
p27
(dp28
g6
S'='
p29
sbsg22
(iplugins.pylisp
ConsCell
p30
(dp31
g16
(iplugins.pylisp
Symbol
p32
(dp33
g6
S'n'
p34
sbsg22
(iplugins.pylisp
ConsCell
p35
(dp36
g16
(iplugins.pylisp
Integer
p37
(dp38
S'value'
p39
I1
sbsg22
(iplugins.pylisp
Nil
p40
(dp41
bsbsbsbsg22
(iplugins.pylisp
ConsCell
p42
(dp43
g16
(iplugins.pylisp
Symbol
p44
(dp45
g6
S's'
p46
sbsg22
(iplugins.pylisp
ConsCell
p47
(dp48
g16
(iplugins.pylisp
ConsCell
p49
(dp50
g16
(iplugins.pylisp
Symbol
p51
(dp52
g6
S'str-append'
p53
sbsg22
(iplugins.pylisp
ConsCell
p54
(dp55
g16
(iplugins.pylisp
ConsCell
p56
(dp57
g16
(iplugins.pylisp
Symbol
p58
(dp59
g6
S'stimes'
p60
sbsg22
(iplugins.pylisp
ConsCell
p61
(dp62
g16
(iplugins.pylisp
ConsCell
p63
(dp64
g16
(iplugins.pylisp
Symbol
p65
(dp66
g6
S'-'
p67
sbsg22
(iplugins.pylisp
ConsCell
p68
(dp69
g16
(iplugins.pylisp
Symbol
p70
(dp71
g6
g34
sbsg22
(iplugins.pylisp
ConsCell
p72
(dp73
g16
(iplugins.pylisp
Integer
p74
(dp75
g39
I1
sbsg22
(iplugins.pylisp
Nil
p76
(dp77
bsbsbsbsg22
(iplugins.pylisp
ConsCell
p78
(dp79
g16
(iplugins.pylisp
Symbol
p80
(dp81
g6
g46
sbsg22
(iplugins.pylisp
Nil
p82
(dp83
bsbsbsbsg22
(iplugins.pylisp
ConsCell
p84
(dp85
g16
(iplugins.pylisp
Symbol
p86
(dp87
g6
g46
sbsg22
(iplugins.pylisp
Nil
p88
(dp89
bsbsbsbsg22
(iplugins.pylisp
Nil
p90
(dp91
bsbsbsbsbsg22
(iplugins.pylisp
Nil
p92
(dp93
bsbsbsS'parameters'
p94
(iplugins.pylisp
ConsCell
p95
(dp96
g16
(iplugins.pylisp
Symbol
p97
(dp98
g6
g34
sbsg22
(iplugins.pylisp
ConsCell
p99
(dp100
g16
(iplugins.pylisp
Symbol
p101
(dp102
g6
g46
sbsg22
(iplugins.pylisp
Nil
p103
(dp104
bsbsbsS'env'
p105
g0
sbs(iplugins.pylisp
Symbol
p106
(dp107
S'name'
p108
S'runpa'
p109
sb(iplugins.pylisp
Dot
p110
(dp111
bs(iplugins.pylisp
Symbol
p112
(dp113
S'name'
p114
S'recurcons'
p115
sb(iplugins.pylisp
Lambda
p116
(dp117
S'expression'
p118
(iplugins.pylisp
ExpressionBody
p119
(dp120
S'expressions'
p121
(iplugins.pylisp
ConsCell
p122
(dp123
S'car'
p124
(iplugins.pylisp
ConsCell
p125
(dp126
g124
(iplugins.pylisp
Symbol
p127
(dp128
g114
S'if'
p129
sbsS'cdr'
p130
(iplugins.pylisp
ConsCell
p131
(dp132
g124
(iplugins.pylisp
ConsCell
p133
(dp134
g124
(iplugins.pylisp
Symbol
p135
(dp136
g114
S'endp'
p137
sbsg130
(iplugins.pylisp
ConsCell
p138
(dp139
g124
(iplugins.pylisp
Symbol
p140
(dp141
g114
S'l'
p142
sbsg130
(iplugins.pylisp
Nil
p143
(dp144
bsbsbsg130
(iplugins.pylisp
ConsCell
p145
(dp146
g124
(iplugins.pylisp
Quoted
p147
(dp148
S'quoted_expression'
p149
(iplugins.pylisp
Nil
p150
(dp151
bsbsg130
(iplugins.pylisp
ConsCell
p152
(dp153
g124
(iplugins.pylisp
ConsCell
p154
(dp155
g124
(iplugins.pylisp
Symbol
p156
(dp157
g114
S'cons'
p158
sbsg130
(iplugins.pylisp
ConsCell
p159
(dp160
g124
(iplugins.pylisp
ConsCell
p161
(dp162
g124
(iplugins.pylisp
Symbol
p163
(dp164
g114
S'cons'
p165
sbsg130
(iplugins.pylisp
ConsCell
p166
(dp167
g124
(iplugins.pylisp
Symbol
p168
(dp169
g114
S'a'
p170
sbsg130
(iplugins.pylisp
ConsCell
p171
(dp172
g124
(iplugins.pylisp
ConsCell
p173
(dp174
g124
(iplugins.pylisp
Symbol
p175
(dp176
g114
S'first'
p177
sbsg130
(iplugins.pylisp
ConsCell
p178
(dp179
g124
(iplugins.pylisp
Symbol
p180
(dp181
g114
g142
sbsg130
(iplugins.pylisp
Nil
p182
(dp183
bsbsbsg130
(iplugins.pylisp
Nil
p184
(dp185
bsbsbsbsg130
(iplugins.pylisp
ConsCell
p186
(dp187
g124
(iplugins.pylisp
ConsCell
p188
(dp189
g124
(iplugins.pylisp
Symbol
p190
(dp191
g114
S'recurcons'
p192
sbsg130
(iplugins.pylisp
ConsCell
p193
(dp194
g124
(iplugins.pylisp
Symbol
p195
(dp196
g114
g170
sbsg130
(iplugins.pylisp
ConsCell
p197
(dp198
g124
(iplugins.pylisp
ConsCell
p199
(dp200
g124
(iplugins.pylisp
Symbol
p201
(dp202
g114
S'rest'
p203
sbsg130
(iplugins.pylisp
ConsCell
p204
(dp205
g124
(iplugins.pylisp
Symbol
p206
(dp207
g114
g142
sbsg130
(iplugins.pylisp
Nil
p208
(dp209
bsbsbsg130
(iplugins.pylisp
Nil
p210
(dp211
bsbsbsbsg130
(iplugins.pylisp
Nil
p212
(dp213
bsbsbsbsg130
(iplugins.pylisp
Nil
p214
(dp215
bsbsbsbsbsg130
(iplugins.pylisp
Nil
p216
(dp217
bsbsbsS'parameters'
p218
(iplugins.pylisp
ConsCell
p219
(dp220
g124
(iplugins.pylisp
Symbol
p221
(dp222
g114
g170
sbsg130
(iplugins.pylisp
ConsCell
p223
(dp224
g124
(iplugins.pylisp
Symbol
p225
(dp226
g114
g142
sbsg130
(iplugins.pylisp
Nil
p227
(dp228
bsbsbsS'env'
p229
g0
sbs(iplugins.pylisp
Symbol
p230
(dp231
S'name'
p232
S'rest'
p233
sb(iplugins.pylisp
NativeFunction
p234
(dp235
S'function'
p236
cplugins.pylisp
cdr_func
p237
sS'num_args'
p238
I1
sg232
S'cdr'
p239
sbs(iplugins.pylisp
Symbol
p240
(dp241
S'name'
p242
S'pascal'
p243
sb(iplugins.pylisp
Lambda
p244
(dp245
S'expression'
p246
(iplugins.pylisp
ExpressionBody
p247
(dp248
S'expressions'
p249
(iplugins.pylisp
ConsCell
p250
(dp251
S'car'
p252
(iplugins.pylisp
ConsCell
p253
(dp254
g252
(iplugins.pylisp
Symbol
p255
(dp256
g242
S'pascal-recur'
p257
sbsS'cdr'
p258
(iplugins.pylisp
ConsCell
p259
(dp260
g252
(iplugins.pylisp
Quoted
p261
(dp262
S'quoted_expression'
p263
(iplugins.pylisp
Nil
p264
(dp265
bsbsg258
(iplugins.pylisp
ConsCell
p266
(dp267
g252
(iplugins.pylisp
Symbol
p268
(dp269
g242
S'n'
p270
sbsg258
(iplugins.pylisp
Nil
p271
(dp272
bsbsbsbsg258
(iplugins.pylisp
Nil
p273
(dp274
bsbsbsS'parameters'
p275
(iplugins.pylisp
ConsCell
p276
(dp277
g252
(iplugins.pylisp
Symbol
p278
(dp279
g242
g270
sbsg258
(iplugins.pylisp
Nil
p280
(dp281
bsbsS'env'
p282
g0
sbs(iplugins.pylisp
Symbol
p283
(dp284
g108
S'nsfw'
p285
sb(iplugins.pylisp
Lambda
p286
(dp287
S'expression'
p288
(iplugins.pylisp
ExpressionBody
p289
(dp290
S'expressions'
p291
(iplugins.pylisp
ConsCell
p292
(dp293
S'car'
p294
(iplugins.pylisp
ConsCell
p295
(dp296
g294
(iplugins.pylisp
Symbol
p297
(dp298
g108
S'zip'
p299
sbsS'cdr'
p300
(iplugins.pylisp
ConsCell
p301
(dp302
g294
(iplugins.pylisp
ConsCell
p303
(dp304
g294
(iplugins.pylisp
Symbol
p305
(dp306
g108
S'copies'
p307
sbsg300
(iplugins.pylisp
ConsCell
p308
(dp309
g294
(iplugins.pylisp
Symbol
p310
(dp311
g108
S'n'
p312
sbsg300
(iplugins.pylisp
ConsCell
p313
(dp314
g294
(iplugins.pylisp
Symbol
p315
(dp316
g108
S'boobs'
p317
sbsg300
(iplugins.pylisp
Nil
p318
(dp319
bsbsbsbsg300
(iplugins.pylisp
ConsCell
p320
(dp321
g294
(iplugins.pylisp
ConsCell
p322
(dp323
g294
(iplugins.pylisp
Symbol
p324
(dp325
g108
S'copies'
p326
sbsg300
(iplugins.pylisp
ConsCell
p327
(dp328
g294
(iplugins.pylisp
Symbol
p329
(dp330
g108
g312
sbsg300
(iplugins.pylisp
ConsCell
p331
(dp332
g294
(iplugins.pylisp
Symbol
p333
(dp334
g108
S'kuk'
p335
sbsg300
(iplugins.pylisp
Nil
p336
(dp337
bsbsbsbsg300
(iplugins.pylisp
Nil
p338
(dp339
bsbsbsbsg300
(iplugins.pylisp
Nil
p340
(dp341
bsbsbsS'parameters'
p342
(iplugins.pylisp
ConsCell
p343
(dp344
g294
(iplugins.pylisp
Symbol
p345
(dp346
g108
g312
sbsg300
(iplugins.pylisp
Nil
p347
(dp348
bsbsS'env'
p349
g0
sbs(iplugins.pylisp
Symbol
p350
(dp351
S'name'
p352
S'matnamn'
p353
sb(iplugins.pylisp
Lambda
p354
(dp355
g10
(iplugins.pylisp
ExpressionBody
p356
(dp357
g13
(iplugins.pylisp
ConsCell
p358
(dp359
g16
(iplugins.pylisp
ConsCell
p360
(dp361
g16
(iplugins.pylisp
Symbol
p362
(dp363
g6
S'car'
p364
sbsg22
(iplugins.pylisp
ConsCell
p365
(dp366
g16
(iplugins.pylisp
ConsCell
p367
(dp368
g16
(iplugins.pylisp
Symbol
p369
(dp370
g6
S'str-split'
p371
sbsg22
(iplugins.pylisp
ConsCell
p372
(dp373
g16
(iplugins.pylisp
ConsCell
p374
(dp375
g16
(iplugins.pylisp
Symbol
p376
(dp377
g6
S'command'
p378
sbsg22
(iplugins.pylisp
ConsCell
p379
(dp380
g16
(iplugins.pylisp
String
p381
(dp382
g39
S'title'
p383
sbsg22
(iplugins.pylisp
ConsCell
p384
(dp385
g16
(iplugins.pylisp
ConsCell
p386
(dp387
g16
(iplugins.pylisp
Symbol
p388
(dp389
g6
S'command'
p390
sbsg22
(iplugins.pylisp
ConsCell
p391
(dp392
g16
(iplugins.pylisp
String
p393
(dp394
g39
S'mattips'
p395
sbsg22
(iplugins.pylisp
ConsCell
p396
(dp397
g16
(iplugins.pylisp
String
p398
(dp399
g39
S'lispnik'
p400
sbsg22
(iplugins.pylisp
Nil
p401
(dp402
bsbsbsbsg22
(iplugins.pylisp
Nil
p403
(dp404
bsbsbsbsg22
(iplugins.pylisp
ConsCell
p405
(dp406
g16
(iplugins.pylisp
String
p407
(dp408
g39
S' - '
p409
sbsg22
(iplugins.pylisp
Nil
p410
(dp411
bsbsbsbsg22
(iplugins.pylisp
Nil
p412
(dp413
bsbsbsg22
(iplugins.pylisp
Nil
p414
(dp415
bsbsbsg94
(iplugins.pylisp
Nil
p416
(dp417
bsg105
g0
sbs(iplugins.pylisp
Symbol
p418
(dp419
S'name'
p420
S'hed|'
p421
sb(iplugins.pylisp
ConsCell
p422
(dp423
S'car'
p424
(iplugins.pylisp
Symbol
p425
(dp426
g420
S'\xe4ter'
p427
sbsS'cdr'
p428
(iplugins.pylisp
ConsCell
p429
(dp430
g424
(iplugins.pylisp
Symbol
p431
(dp432
g420
S'gr\xf6t,'
p433
sbsg428
(iplugins.pylisp
ConsCell
p434
(dp435
g424
(iplugins.pylisp
Symbol
p436
(dp437
g420
S'brb'
p438
sbsg428
(iplugins.pylisp
Nil
p439
(dp440
bsbsbsbs(iplugins.pylisp
Symbol
p441
(dp442
S'name'
p443
S'insult-n'
p444
sb(iplugins.pylisp
Lambda
p445
(dp446
S'expression'
p447
(iplugins.pylisp
ExpressionBody
p448
(dp449
S'expressions'
p450
(iplugins.pylisp
ConsCell
p451
(dp452
S'car'
p453
(iplugins.pylisp
ConsCell
p454
(dp455
g453
(iplugins.pylisp
Symbol
p456
(dp457
g443
S'if'
p458
sbsS'cdr'
p459
(iplugins.pylisp
ConsCell
p460
(dp461
g453
(iplugins.pylisp
ConsCell
p462
(dp463
g453
(iplugins.pylisp
Symbol
p464
(dp465
g443
S'='
p466
sbsg459
(iplugins.pylisp
ConsCell
p467
(dp468
g453
(iplugins.pylisp
Symbol
p469
(dp470
g443
S'n'
p471
sbsg459
(iplugins.pylisp
ConsCell
p472
(dp473
g453
(iplugins.pylisp
Integer
p474
(dp475
S'value'
p476
I1
sbsg459
(iplugins.pylisp
Nil
p477
(dp478
bsbsbsbsg459
(iplugins.pylisp
ConsCell
p479
(dp480
g453
(iplugins.pylisp
ConsCell
p481
(dp482
g453
(iplugins.pylisp
Symbol
p483
(dp484
g443
S'command'
p485
sbsg459
(iplugins.pylisp
ConsCell
p486
(dp487
g453
(iplugins.pylisp
String
p488
(dp489
g476
S'insult'
p490
sbsg459
(iplugins.pylisp
ConsCell
p491
(dp492
g453
(iplugins.pylisp
Symbol
p493
(dp494
g443
S'target'
p495
sbsg459
(iplugins.pylisp
Nil
p496
(dp497
bsbsbsbsg459
(iplugins.pylisp
ConsCell
p498
(dp499
g453
(iplugins.pylisp
ConsCell
p500
(dp501
g453
(iplugins.pylisp
Symbol
p502
(dp503
g443
S'str-append'
p504
sbsg459
(iplugins.pylisp
ConsCell
p505
(dp506
g453
(iplugins.pylisp
ConsCell
p507
(dp508
g453
(iplugins.pylisp
Symbol
p509
(dp510
g443
S'str-append'
p511
sbsg459
(iplugins.pylisp
ConsCell
p512
(dp513
g453
(iplugins.pylisp
ConsCell
p514
(dp515
g453
(iplugins.pylisp
Symbol
p516
(dp517
g443
S'insult-n'
p518
sbsg459
(iplugins.pylisp
ConsCell
p519
(dp520
g453
(iplugins.pylisp
Symbol
p521
(dp522
g443
S'target'
p523
sbsg459
(iplugins.pylisp
ConsCell
p524
(dp525
g453
(iplugins.pylisp
ConsCell
p526
(dp527
g453
(iplugins.pylisp
Symbol
p528
(dp529
g443
S'-'
p530
sbsg459
(iplugins.pylisp
ConsCell
p531
(dp532
g453
(iplugins.pylisp
Symbol
p533
(dp534
g443
g471
sbsg459
(iplugins.pylisp
ConsCell
p535
(dp536
g453
(iplugins.pylisp
Integer
p537
(dp538
g476
I1
sbsg459
(iplugins.pylisp
Nil
p539
(dp540
bsbsbsbsg459
(iplugins.pylisp
Nil
p541
(dp542
bsbsbsbsg459
(iplugins.pylisp
ConsCell
p543
(dp544
g453
(iplugins.pylisp
String
p545
(dp546
g476
S', '
p547
sbsg459
(iplugins.pylisp
Nil
p548
(dp549
bsbsbsbsg459
(iplugins.pylisp
ConsCell
p550
(dp551
g453
(iplugins.pylisp
ConsCell
p552
(dp553
g453
(iplugins.pylisp
Symbol
p554
(dp555
g443
S'command'
p556
sbsg459
(iplugins.pylisp
ConsCell
p557
(dp558
g453
(iplugins.pylisp
String
p559
(dp560
g476
S'insult'
p561
sbsg459
(iplugins.pylisp
ConsCell
p562
(dp563
g453
(iplugins.pylisp
String
p564
(dp565
g476
S'\xc2\xa0'
p566
sbsg459
(iplugins.pylisp
Nil
p567
(dp568
bsbsbsbsg459
(iplugins.pylisp
Nil
p569
(dp570
bsbsbsbsg459
(iplugins.pylisp
Nil
p571
(dp572
bsbsbsbsbsg459
(iplugins.pylisp
Nil
p573
(dp574
bsbsbsS'parameters'
p575
(iplugins.pylisp
ConsCell
p576
(dp577
g453
(iplugins.pylisp
Symbol
p578
(dp579
g443
S'target'
p580
sbsg459
(iplugins.pylisp
ConsCell
p581
(dp582
g453
(iplugins.pylisp
Symbol
p583
(dp584
g443
g471
sbsg459
(iplugins.pylisp
Nil
p585
(dp586
bsbsbsS'env'
p587
g0
sbs(iplugins.pylisp
Symbol
p588
(dp589
S'name'
p590
S'compliment-n'
p591
sb(iplugins.pylisp
Lambda
p592
(dp593
S'expression'
p594
(iplugins.pylisp
ExpressionBody
p595
(dp596
S'expressions'
p597
(iplugins.pylisp
ConsCell
p598
(dp599
S'car'
p600
(iplugins.pylisp
ConsCell
p601
(dp602
g600
(iplugins.pylisp
Symbol
p603
(dp604
g590
S'if'
p605
sbsS'cdr'
p606
(iplugins.pylisp
ConsCell
p607
(dp608
g600
(iplugins.pylisp
ConsCell
p609
(dp610
g600
(iplugins.pylisp
Symbol
p611
(dp612
g590
S'='
p613
sbsg606
(iplugins.pylisp
ConsCell
p614
(dp615
g600
(iplugins.pylisp
Symbol
p616
(dp617
g590
S'n'
p618
sbsg606
(iplugins.pylisp
ConsCell
p619
(dp620
g600
(iplugins.pylisp
Integer
p621
(dp622
S'value'
p623
I1
sbsg606
(iplugins.pylisp
Nil
p624
(dp625
bsbsbsbsg606
(iplugins.pylisp
ConsCell
p626
(dp627
g600
(iplugins.pylisp
ConsCell
p628
(dp629
g600
(iplugins.pylisp
Symbol
p630
(dp631
g590
S'command'
p632
sbsg606
(iplugins.pylisp
ConsCell
p633
(dp634
g600
(iplugins.pylisp
String
p635
(dp636
g623
S'compliment'
p637
sbsg606
(iplugins.pylisp
ConsCell
p638
(dp639
g600
(iplugins.pylisp
Symbol
p640
(dp641
g590
S'target'
p642
sbsg606
(iplugins.pylisp
Nil
p643
(dp644
bsbsbsbsg606
(iplugins.pylisp
ConsCell
p645
(dp646
g600
(iplugins.pylisp
ConsCell
p647
(dp648
g600
(iplugins.pylisp
Symbol
p649
(dp650
g590
S'str-append'
p651
sbsg606
(iplugins.pylisp
ConsCell
p652
(dp653
g600
(iplugins.pylisp
ConsCell
p654
(dp655
g600
(iplugins.pylisp
Symbol
p656
(dp657
g590
S'str-append'
p658
sbsg606
(iplugins.pylisp
ConsCell
p659
(dp660
g600
(iplugins.pylisp
ConsCell
p661
(dp662
g600
(iplugins.pylisp
Symbol
p663
(dp664
g590
S'compliment-n'
p665
sbsg606
(iplugins.pylisp
ConsCell
p666
(dp667
g600
(iplugins.pylisp
Symbol
p668
(dp669
g590
S'target'
p670
sbsg606
(iplugins.pylisp
ConsCell
p671
(dp672
g600
(iplugins.pylisp
ConsCell
p673
(dp674
g600
(iplugins.pylisp
Symbol
p675
(dp676
g590
S'-'
p677
sbsg606
(iplugins.pylisp
ConsCell
p678
(dp679
g600
(iplugins.pylisp
Symbol
p680
(dp681
g590
g618
sbsg606
(iplugins.pylisp
ConsCell
p682
(dp683
g600
(iplugins.pylisp
Integer
p684
(dp685
g623
I1
sbsg606
(iplugins.pylisp
Nil
p686
(dp687
bsbsbsbsg606
(iplugins.pylisp
Nil
p688
(dp689
bsbsbsbsg606
(iplugins.pylisp
ConsCell
p690
(dp691
g600
(iplugins.pylisp
String
p692
(dp693
g623
S', '
p694
sbsg606
(iplugins.pylisp
Nil
p695
(dp696
bsbsbsbsg606
(iplugins.pylisp
ConsCell
p697
(dp698
g600
(iplugins.pylisp
ConsCell
p699
(dp700
g600
(iplugins.pylisp
Symbol
p701
(dp702
g590
S'command'
p703
sbsg606
(iplugins.pylisp
ConsCell
p704
(dp705
g600
(iplugins.pylisp
String
p706
(dp707
g623
S'compliment'
p708
sbsg606
(iplugins.pylisp
ConsCell
p709
(dp710
g600
(iplugins.pylisp
String
p711
(dp712
g623
S'\xc2\xa0'
p713
sbsg606
(iplugins.pylisp
Nil
p714
(dp715
bsbsbsbsg606
(iplugins.pylisp
Nil
p716
(dp717
bsbsbsbsg606
(iplugins.pylisp
Nil
p718
(dp719
bsbsbsbsbsg606
(iplugins.pylisp
Nil
p720
(dp721
bsbsbsS'parameters'
p722
(iplugins.pylisp
ConsCell
p723
(dp724
g600
(iplugins.pylisp
Symbol
p725
(dp726
g590
S'target'
p727
sbsg606
(iplugins.pylisp
ConsCell
p728
(dp729
g600
(iplugins.pylisp
Symbol
p730
(dp731
g590
g618
sbsg606
(iplugins.pylisp
Nil
p732
(dp733
bsbsbsS'env'
p734
g0
sbs(iplugins.pylisp
Symbol
p735
(dp736
S'name'
p737
S'add'
p738
sb(iplugins.pylisp
Lambda
p739
(dp740
S'expression'
p741
(iplugins.pylisp
ExpressionBody
p742
(dp743
S'expressions'
p744
(iplugins.pylisp
ConsCell
p745
(dp746
S'car'
p747
(iplugins.pylisp
ConsCell
p748
(dp749
g747
(iplugins.pylisp
Symbol
p750
(dp751
S'name'
p752
S'-'
p753
sbsS'cdr'
p754
(iplugins.pylisp
ConsCell
p755
(dp756
g747
(iplugins.pylisp
Symbol
p757
(dp758
g752
S'a'
p759
sbsg754
(iplugins.pylisp
ConsCell
p760
(dp761
g747
(iplugins.pylisp
ConsCell
p762
(dp763
g747
(iplugins.pylisp
Symbol
p764
(dp765
g752
g753
sbsg754
(iplugins.pylisp
ConsCell
p766
(dp767
g747
(iplugins.pylisp
Integer
p768
(dp769
S'value'
p770
I0
sbsg754
(iplugins.pylisp
ConsCell
p771
(dp772
g747
(iplugins.pylisp
Symbol
p773
(dp774
g752
S'b'
p775
sbsg754
(iplugins.pylisp
Nil
p776
(dp777
bsbsbsbsg754
(iplugins.pylisp
Nil
p778
(dp779
bsbsbsbsg754
(iplugins.pylisp
Nil
p780
(dp781
bsbsbsS'parameters'
p782
(iplugins.pylisp
ConsCell
p783
(dp784
g747
(iplugins.pylisp
Symbol
p785
(dp786
g752
g759
sbsg754
(iplugins.pylisp
ConsCell
p787
(dp788
g747
(iplugins.pylisp
Symbol
p789
(dp790
g752
g775
sbsg754
(iplugins.pylisp
Nil
p791
(dp792
bsbsbsS'env'
p793
g0
sbs(iplugins.pylisp
Symbol
p794
(dp795
S'name'
p796
S'dxrandom'
p797
sb(iplugins.pylisp
Lambda
p798
(dp799
S'expression'
p800
(iplugins.pylisp
ExpressionBody
p801
(dp802
S'expressions'
p803
(iplugins.pylisp
ConsCell
p804
(dp805
S'car'
p806
(iplugins.pylisp
ConsCell
p807
(dp808
g806
(iplugins.pylisp
Symbol
p809
(dp810
g796
S'dxtitle'
p811
sbsS'cdr'
p812
(iplugins.pylisp
ConsCell
p813
(dp814
g806
(iplugins.pylisp
ConsCell
p815
(dp816
g806
(iplugins.pylisp
Symbol
p817
(dp818
g796
S'rand'
p819
sbsg812
(iplugins.pylisp
ConsCell
p820
(dp821
g806
(iplugins.pylisp
Integer
p822
(dp823
S'value'
p824
I20000
sbsg812
(iplugins.pylisp
Nil
p825
(dp826
bsbsbsg812
(iplugins.pylisp
Nil
p827
(dp828
bsbsbsg812
(iplugins.pylisp
Nil
p829
(dp830
bsbsbsS'parameters'
p831
(iplugins.pylisp
Nil
p832
(dp833
bsS'env'
p834
g0
sbs(iplugins.pylisp
Symbol
p835
(dp836
g108
S'flindeberg'
p837
sb(iplugins.pylisp
String
p838
(dp839
g39
S'Error 404: flindeberg not found'
p840
sbs(iplugins.pylisp
Symbol
p841
(dp842
S'name'
p843
S'nom-mat-mat'
p844
sb(iplugins.pylisp
Lambda
p845
(dp846
S'expression'
p847
(iplugins.pylisp
ExpressionBody
p848
(dp849
S'expressions'
p850
(iplugins.pylisp
ConsCell
p851
(dp852
S'car'
p853
(iplugins.pylisp
ConsCell
p854
(dp855
g853
(iplugins.pylisp
Symbol
p856
(dp857
S'name'
p858
S'nom-mat-n'
p859
sbsS'cdr'
p860
(iplugins.pylisp
ConsCell
p861
(dp862
g853
(iplugins.pylisp
Integer
p863
(dp864
S'value'
p865
I2
sbsg860
(iplugins.pylisp
Nil
p866
(dp867
bsbsbsg860
(iplugins.pylisp
Nil
p868
(dp869
bsbsbsS'parameters'
p870
(iplugins.pylisp
Nil
p871
(dp872
bsS'env'
p873
g0
sbs(iplugins.pylisp
Symbol
p874
(dp875
S'name'
p876
S'factorial'
p877
sb(iplugins.pylisp
Lambda
p878
(dp879
S'expression'
p880
(iplugins.pylisp
ExpressionBody
p881
(dp882
S'expressions'
p883
(iplugins.pylisp
ConsCell
p884
(dp885
S'car'
p886
(iplugins.pylisp
ConsCell
p887
(dp888
g886
(iplugins.pylisp
Symbol
p889
(dp890
g232
S'if'
p891
sbsg239
(iplugins.pylisp
ConsCell
p892
(dp893
g886
(iplugins.pylisp
ConsCell
p894
(dp895
g886
(iplugins.pylisp
Symbol
p896
(dp897
g232
S'='
p898
sbsg239
(iplugins.pylisp
ConsCell
p899
(dp900
g886
(iplugins.pylisp
Symbol
p901
(dp902
g232
S'x'
p903
sbsg239
(iplugins.pylisp
ConsCell
p904
(dp905
g886
(iplugins.pylisp
Integer
p906
(dp907
S'value'
p908
I1
sbsg239
(iplugins.pylisp
Nil
p909
(dp910
bsbsbsbsg239
(iplugins.pylisp
ConsCell
p911
(dp912
g886
(iplugins.pylisp
Integer
p913
(dp914
g908
I1
sbsg239
(iplugins.pylisp
ConsCell
p915
(dp916
g886
(iplugins.pylisp
ConsCell
p917
(dp918
g886
(iplugins.pylisp
Symbol
p919
(dp920
g232
S'*'
p921
sbsg239
(iplugins.pylisp
ConsCell
p922
(dp923
g886
(iplugins.pylisp
Symbol
p924
(dp925
g232
g903
sbsg239
(iplugins.pylisp
ConsCell
p926
(dp927
g886
(iplugins.pylisp
ConsCell
p928
(dp929
g886
(iplugins.pylisp
Symbol
p930
(dp931
g232
S'factorial'
p932
sbsg239
(iplugins.pylisp
ConsCell
p933
(dp934
g886
(iplugins.pylisp
ConsCell
p935
(dp936
g886
(iplugins.pylisp
Symbol
p937
(dp938
g232
S'-'
p939
sbsg239
(iplugins.pylisp
ConsCell
p940
(dp941
g886
(iplugins.pylisp
Symbol
p942
(dp943
g232
g903
sbsg239
(iplugins.pylisp
ConsCell
p944
(dp945
g886
(iplugins.pylisp
Integer
p946
(dp947
g908
I1
sbsg239
(iplugins.pylisp
Nil
p948
(dp949
bsbsbsbsg239
(iplugins.pylisp
Nil
p950
(dp951
bsbsbsg239
(iplugins.pylisp
Nil
p952
(dp953
bsbsbsbsg239
(iplugins.pylisp
Nil
p954
(dp955
bsbsbsbsbsg239
(iplugins.pylisp
Nil
p956
(dp957
bsbsbsS'parameters'
p958
(iplugins.pylisp
ConsCell
p959
(dp960
g886
(iplugins.pylisp
Symbol
p961
(dp962
g232
g903
sbsg239
(iplugins.pylisp
Nil
p963
(dp964
bsbsS'env'
p965
g0
sbs(iplugins.pylisp
Symbol
p966
(dp967
S'name'
p968
S'add-2'
p969
sb(iplugins.pylisp
Lambda
p970
(dp971
S'expression'
p972
(iplugins.pylisp
ExpressionBody
p973
(dp974
S'expressions'
p975
(iplugins.pylisp
ConsCell
p976
(dp977
S'car'
p978
(iplugins.pylisp
ConsCell
p979
(dp980
g978
(iplugins.pylisp
Symbol
p981
(dp982
g968
S'+'
p983
sbsS'cdr'
p984
(iplugins.pylisp
ConsCell
p985
(dp986
g978
(iplugins.pylisp
Symbol
p987
(dp988
g968
S'a'
p989
sbsg984
(iplugins.pylisp
ConsCell
p990
(dp991
g978
(iplugins.pylisp
Integer
p992
(dp993
S'value'
p994
I2
sbsg984
(iplugins.pylisp
Nil
p995
(dp996
bsbsbsbsg984
(iplugins.pylisp
Nil
p997
(dp998
bsbsbsS'parameters'
p999
(iplugins.pylisp
ConsCell
p1000
(dp1001
g978
(iplugins.pylisp
Symbol
p1002
(dp1003
g968
g989
sbsg984
(iplugins.pylisp
Nil
p1004
(dp1005
bsbsS'env'
p1006
g0
sbs(iplugins.pylisp
Symbol
p1007
(dp1008
g242
S'sum-pairs'
p1009
sb(iplugins.pylisp
Lambda
p1010
(dp1011
g246
(iplugins.pylisp
ExpressionBody
p1012
(dp1013
g249
(iplugins.pylisp
ConsCell
p1014
(dp1015
g252
(iplugins.pylisp
ConsCell
p1016
(dp1017
g252
(iplugins.pylisp
Symbol
p1018
(dp1019
g242
S'if'
p1020
sbsg258
(iplugins.pylisp
ConsCell
p1021
(dp1022
g252
(iplugins.pylisp
ConsCell
p1023
(dp1024
g252
(iplugins.pylisp
Symbol
p1025
(dp1026
g242
S'endp'
p1027
sbsg258
(iplugins.pylisp
ConsCell
p1028
(dp1029
g252
(iplugins.pylisp
Symbol
p1030
(dp1031
g242
S'l'
p1032
sbsg258
(iplugins.pylisp
Nil
p1033
(dp1034
bsbsbsg258
(iplugins.pylisp
ConsCell
p1035
(dp1036
g252
(iplugins.pylisp
Quoted
p1037
(dp1038
g263
(iplugins.pylisp
Nil
p1039
(dp1040
bsbsg258
(iplugins.pylisp
ConsCell
p1041
(dp1042
g252
(iplugins.pylisp
ConsCell
p1043
(dp1044
g252
(iplugins.pylisp
Symbol
p1045
(dp1046
g242
S'if'
p1047
sbsg258
(iplugins.pylisp
ConsCell
p1048
(dp1049
g252
(iplugins.pylisp
ConsCell
p1050
(dp1051
g252
(iplugins.pylisp
Symbol
p1052
(dp1053
g242
S'endp'
p1054
sbsg258
(iplugins.pylisp
ConsCell
p1055
(dp1056
g252
(iplugins.pylisp
ConsCell
p1057
(dp1058
g252
(iplugins.pylisp
Symbol
p1059
(dp1060
g242
S'cdr'
p1061
sbsg258
(iplugins.pylisp
ConsCell
p1062
(dp1063
g252
(iplugins.pylisp
Symbol
p1064
(dp1065
g242
g1032
sbsg258
(iplugins.pylisp
Nil
p1066
(dp1067
bsbsbsg258
(iplugins.pylisp
Nil
p1068
(dp1069
bsbsbsg258
(iplugins.pylisp
ConsCell
p1070
(dp1071
g252
(iplugins.pylisp
Quoted
p1072
(dp1073
g263
(iplugins.pylisp
ConsCell
p1074
(dp1075
g252
(iplugins.pylisp
Integer
p1076
(dp1077
S'value'
p1078
I1
sbsg258
(iplugins.pylisp
Nil
p1079
(dp1080
bsbsbsg258
(iplugins.pylisp
ConsCell
p1081
(dp1082
g252
(iplugins.pylisp
ConsCell
p1083
(dp1084
g252
(iplugins.pylisp
Symbol
p1085
(dp1086
g242
S'cons'
p1087
sbsg258
(iplugins.pylisp
ConsCell
p1088
(dp1089
g252
(iplugins.pylisp
ConsCell
p1090
(dp1091
g252
(iplugins.pylisp
Symbol
p1092
(dp1093
g242
S'+'
p1094
sbsg258
(iplugins.pylisp
ConsCell
p1095
(dp1096
g252
(iplugins.pylisp
ConsCell
p1097
(dp1098
g252
(iplugins.pylisp
Symbol
p1099
(dp1100
g242
S'car'
p1101
sbsg258
(iplugins.pylisp
ConsCell
p1102
(dp1103
g252
(iplugins.pylisp
Symbol
p1104
(dp1105
g242
g1032
sbsg258
(iplugins.pylisp
Nil
p1106
(dp1107
bsbsbsg258
(iplugins.pylisp
ConsCell
p1108
(dp1109
g252
(iplugins.pylisp
ConsCell
p1110
(dp1111
g252
(iplugins.pylisp
Symbol
p1112
(dp1113
g242
S'cadr'
p1114
sbsg258
(iplugins.pylisp
ConsCell
p1115
(dp1116
g252
(iplugins.pylisp
Symbol
p1117
(dp1118
g242
g1032
sbsg258
(iplugins.pylisp
Nil
p1119
(dp1120
bsbsbsg258
(iplugins.pylisp
Nil
p1121
(dp1122
bsbsbsbsg258
(iplugins.pylisp
ConsCell
p1123
(dp1124
g252
(iplugins.pylisp
ConsCell
p1125
(dp1126
g252
(iplugins.pylisp
Symbol
p1127
(dp1128
g242
S'sum-pairs'
p1129
sbsg258
(iplugins.pylisp
ConsCell
p1130
(dp1131
g252
(iplugins.pylisp
ConsCell
p1132
(dp1133
g252
(iplugins.pylisp
Symbol
p1134
(dp1135
g242
S'cdr'
p1136
sbsg258
(iplugins.pylisp
ConsCell
p1137
(dp1138
g252
(iplugins.pylisp
Symbol
p1139
(dp1140
g242
g1032
sbsg258
(iplugins.pylisp
Nil
p1141
(dp1142
bsbsbsg258
(iplugins.pylisp
Nil
p1143
(dp1144
bsbsbsg258
(iplugins.pylisp
Nil
p1145
(dp1146
bsbsbsbsg258
(iplugins.pylisp
Nil
p1147
(dp1148
bsbsbsbsbsg258
(iplugins.pylisp
Nil
p1149
(dp1150
bsbsbsbsbsg258
(iplugins.pylisp
Nil
p1151
(dp1152
bsbsbsg275
(iplugins.pylisp
ConsCell
p1153
(dp1154
g252
(iplugins.pylisp
Symbol
p1155
(dp1156
g242
g1032
sbsg258
(iplugins.pylisp
Nil
p1157
(dp1158
bsbsg282
g0
sbs(iplugins.pylisp
Symbol
p1159
(dp1160
g242
S'sova'
p1161
sb(iplugins.pylisp
Symbol
p1162
(dp1163
g242
S'nu'
p1164
sbs(iplugins.pylisp
Symbol
p1165
(dp1166
S'name'
p1167
S'mod'
p1168
sb(iplugins.pylisp
Lambda
p1169
(dp1170
S'expression'
p1171
(iplugins.pylisp
ExpressionBody
p1172
(dp1173
S'expressions'
p1174
(iplugins.pylisp
ConsCell
p1175
(dp1176
S'car'
p1177
(iplugins.pylisp
ConsCell
p1178
(dp1179
g1177
(iplugins.pylisp
Symbol
p1180
(dp1181
g1167
S'-'
p1182
sbsS'cdr'
p1183
(iplugins.pylisp
ConsCell
p1184
(dp1185
g1177
(iplugins.pylisp
Symbol
p1186
(dp1187
g1167
S'a'
p1188
sbsg1183
(iplugins.pylisp
ConsCell
p1189
(dp1190
g1177
(iplugins.pylisp
ConsCell
p1191
(dp1192
g1177
(iplugins.pylisp
Symbol
p1193
(dp1194
g1167
S'*'
p1195
sbsg1183
(iplugins.pylisp
ConsCell
p1196
(dp1197
g1177
(iplugins.pylisp
ConsCell
p1198
(dp1199
g1177
(iplugins.pylisp
Symbol
p1200
(dp1201
g1167
S'/'
p1202
sbsg1183
(iplugins.pylisp
ConsCell
p1203
(dp1204
g1177
(iplugins.pylisp
Symbol
p1205
(dp1206
g1167
g1188
sbsg1183
(iplugins.pylisp
ConsCell
p1207
(dp1208
g1177
(iplugins.pylisp
Symbol
p1209
(dp1210
g1167
S'b'
p1211
sbsg1183
(iplugins.pylisp
Nil
p1212
(dp1213
bsbsbsbsg1183
(iplugins.pylisp
ConsCell
p1214
(dp1215
g1177
(iplugins.pylisp
Symbol
p1216
(dp1217
g1167
g1211
sbsg1183
(iplugins.pylisp
Nil
p1218
(dp1219
bsbsbsbsg1183
(iplugins.pylisp
Nil
p1220
(dp1221
bsbsbsbsg1183
(iplugins.pylisp
Nil
p1222
(dp1223
bsbsbsS'parameters'
p1224
(iplugins.pylisp
ConsCell
p1225
(dp1226
g1177
(iplugins.pylisp
Symbol
p1227
(dp1228
g1167
g1188
sbsg1183
(iplugins.pylisp
ConsCell
p1229
(dp1230
g1177
(iplugins.pylisp
Symbol
p1231
(dp1232
g1167
g1211
sbsg1183
(iplugins.pylisp
Nil
p1233
(dp1234
bsbsbsS'env'
p1235
g0
sbs(iplugins.pylisp
Symbol
p1236
(dp1237
g6
S'fakultet'
p1238
sb(iplugins.pylisp
Lambda
p1239
(dp1240
g10
(iplugins.pylisp
ExpressionBody
p1241
(dp1242
g13
(iplugins.pylisp
ConsCell
p1243
(dp1244
g16
(iplugins.pylisp
ConsCell
p1245
(dp1246
g16
(iplugins.pylisp
Symbol
p1247
(dp1248
g6
S'factorial'
p1249
sbsg22
(iplugins.pylisp
ConsCell
p1250
(dp1251
g16
(iplugins.pylisp
Symbol
p1252
(dp1253
g6
g34
sbsg22
(iplugins.pylisp
Nil
p1254
(dp1255
bsbsbsg22
(iplugins.pylisp
Nil
p1256
(dp1257
bsbsbsg94
(iplugins.pylisp
ConsCell
p1258
(dp1259
g16
(iplugins.pylisp
Symbol
p1260
(dp1261
g6
g34
sbsg22
(iplugins.pylisp
Nil
p1262
(dp1263
bsbsg105
g0
sbs(iplugins.pylisp
Symbol
p1264
(dp1265
S'name'
p1266
S'level'
p1267
sb(iplugins.pylisp
Integer
p1268
(dp1269
S'value'
p1270
I2
sbs(iplugins.pylisp
Symbol
p1271
(dp1272
g242
S'pascal-recur'
p1273
sb(iplugins.pylisp
Lambda
p1274
(dp1275
g246
(iplugins.pylisp
ExpressionBody
p1276
(dp1277
g249
(iplugins.pylisp
ConsCell
p1278
(dp1279
g252
(iplugins.pylisp
ConsCell
p1280
(dp1281
g252
(iplugins.pylisp
Symbol
p1282
(dp1283
g242
S'if'
p1284
sbsg258
(iplugins.pylisp
ConsCell
p1285
(dp1286
g252
(iplugins.pylisp
ConsCell
p1287
(dp1288
g252
(iplugins.pylisp
Symbol
p1289
(dp1290
g242
S'='
p1291
sbsg258
(iplugins.pylisp
ConsCell
p1292
(dp1293
g252
(iplugins.pylisp
Symbol
p1294
(dp1295
g242
g270
sbsg258
(iplugins.pylisp
ConsCell
p1296
(dp1297
g252
(iplugins.pylisp
Integer
p1298
(dp1299
g1078
I0
sbsg258
(iplugins.pylisp
Nil
p1300
(dp1301
bsbsbsbsg258
(iplugins.pylisp
ConsCell
p1302
(dp1303
g252
(iplugins.pylisp
Quoted
p1304
(dp1305
g263
(iplugins.pylisp
Nil
p1306
(dp1307
bsbsg258
(iplugins.pylisp
ConsCell
p1308
(dp1309
g252
(iplugins.pylisp
ConsCell
p1310
(dp1311
g252
(iplugins.pylisp
Symbol
p1312
(dp1313
g242
S'let'
p1314
sbsg258
(iplugins.pylisp
ConsCell
p1315
(dp1316
g252
(iplugins.pylisp
ConsCell
p1317
(dp1318
g252
(iplugins.pylisp
ConsCell
p1319
(dp1320
g252
(iplugins.pylisp
Symbol
p1321
(dp1322
g242
g1032
sbsg258
(iplugins.pylisp
ConsCell
p1323
(dp1324
g252
(iplugins.pylisp
ConsCell
p1325
(dp1326
g252
(iplugins.pylisp
Symbol
p1327
(dp1328
g242
S'cons'
p1329
sbsg258
(iplugins.pylisp
ConsCell
p1330
(dp1331
g252
(iplugins.pylisp
Quoted
p1332
(dp1333
g263
(iplugins.pylisp
Integer
p1334
(dp1335
g1078
I1
sbsbsg258
(iplugins.pylisp
ConsCell
p1336
(dp1337
g252
(iplugins.pylisp
ConsCell
p1338
(dp1339
g252
(iplugins.pylisp
Symbol
p1340
(dp1341
g242
S'sum-pairs'
p1342
sbsg258
(iplugins.pylisp
ConsCell
p1343
(dp1344
g252
(iplugins.pylisp
Symbol
p1345
(dp1346
g242
g1032
sbsg258
(iplugins.pylisp
Nil
p1347
(dp1348
bsbsbsg258
(iplugins.pylisp
Nil
p1349
(dp1350
bsbsbsbsg258
(iplugins.pylisp
Nil
p1351
(dp1352
bsbsbsg258
(iplugins.pylisp
Nil
p1353
(dp1354
bsbsg258
(iplugins.pylisp
ConsCell
p1355
(dp1356
g252
(iplugins.pylisp
ConsCell
p1357
(dp1358
g252
(iplugins.pylisp
Symbol
p1359
(dp1360
g242
S'cons'
p1361
sbsg258
(iplugins.pylisp
ConsCell
p1362
(dp1363
g252
(iplugins.pylisp
Symbol
p1364
(dp1365
g242
g1032
sbsg258
(iplugins.pylisp
ConsCell
p1366
(dp1367
g252
(iplugins.pylisp
ConsCell
p1368
(dp1369
g252
(iplugins.pylisp
Symbol
p1370
(dp1371
g242
S'pascal-recur'
p1372
sbsg258
(iplugins.pylisp
ConsCell
p1373
(dp1374
g252
(iplugins.pylisp
Symbol
p1375
(dp1376
g242
g1032
sbsg258
(iplugins.pylisp
ConsCell
p1377
(dp1378
g252
(iplugins.pylisp
ConsCell
p1379
(dp1380
g252
(iplugins.pylisp
Symbol
p1381
(dp1382
g242
S'-'
p1383
sbsg258
(iplugins.pylisp
ConsCell
p1384
(dp1385
g252
(iplugins.pylisp
Symbol
p1386
(dp1387
g242
g270
sbsg258
(iplugins.pylisp
ConsCell
p1388
(dp1389
g252
(iplugins.pylisp
Integer
p1390
(dp1391
g1078
I1
sbsg258
(iplugins.pylisp
Nil
p1392
(dp1393
bsbsbsbsg258
(iplugins.pylisp
Nil
p1394
(dp1395
bsbsbsbsg258
(iplugins.pylisp
Nil
p1396
(dp1397
bsbsbsbsg258
(iplugins.pylisp
Nil
p1398
(dp1399
bsbsbsbsg258
(iplugins.pylisp
Nil
p1400
(dp1401
bsbsbsbsbsg258
(iplugins.pylisp
Nil
p1402
(dp1403
bsbsbsg275
(iplugins.pylisp
ConsCell
p1404
(dp1405
g252
(iplugins.pylisp
Symbol
p1406
(dp1407
g242
g1032
sbsg258
(iplugins.pylisp
ConsCell
p1408
(dp1409
g252
(iplugins.pylisp
Symbol
p1410
(dp1411
g242
g270
sbsg258
(iplugins.pylisp
Nil
p1412
(dp1413
bsbsbsg282
g0
sbs(iplugins.pylisp
Symbol
p1414
(dp1415
g420
S'*bananfisk*'
p1416
sb(iplugins.pylisp
Integer
p1417
(dp1418
S'value'
p1419
I1
sbs(iplugins.pylisp
Symbol
p1420
(dp1421
g858
S'collect'
p1422
sb(iplugins.pylisp
Lambda
p1423
(dp1424
g847
(iplugins.pylisp
ExpressionBody
p1425
(dp1426
g850
(iplugins.pylisp
ConsCell
p1427
(dp1428
g853
(iplugins.pylisp
ConsCell
p1429
(dp1430
g853
(iplugins.pylisp
Symbol
p1431
(dp1432
g858
S'if'
p1433
sbsg860
(iplugins.pylisp
ConsCell
p1434
(dp1435
g853
(iplugins.pylisp
ConsCell
p1436
(dp1437
g853
(iplugins.pylisp
Symbol
p1438
(dp1439
g858
S'='
p1440
sbsg860
(iplugins.pylisp
ConsCell
p1441
(dp1442
g853
(iplugins.pylisp
Symbol
p1443
(dp1444
g858
S'n'
p1445
sbsg860
(iplugins.pylisp
ConsCell
p1446
(dp1447
g853
(iplugins.pylisp
Integer
p1448
(dp1449
g865
I0
sbsg860
(iplugins.pylisp
Nil
p1450
(dp1451
bsbsbsbsg860
(iplugins.pylisp
ConsCell
p1452
(dp1453
g853
(iplugins.pylisp
Symbol
p1454
(dp1455
g858
S'nil'
p1456
sbsg860
(iplugins.pylisp
ConsCell
p1457
(dp1458
g853
(iplugins.pylisp
ConsCell
p1459
(dp1460
g853
(iplugins.pylisp
Symbol
p1461
(dp1462
g858
S'cons'
p1463
sbsg860
(iplugins.pylisp
ConsCell
p1464
(dp1465
g853
(iplugins.pylisp
ConsCell
p1466
(dp1467
g853
(iplugins.pylisp
Symbol
p1468
(dp1469
g858
S'f'
p1470
sbsg860
(iplugins.pylisp
Nil
p1471
(dp1472
bsbsg860
(iplugins.pylisp
ConsCell
p1473
(dp1474
g853
(iplugins.pylisp
ConsCell
p1475
(dp1476
g853
(iplugins.pylisp
Symbol
p1477
(dp1478
g858
S'collect'
p1479
sbsg860
(iplugins.pylisp
ConsCell
p1480
(dp1481
g853
(iplugins.pylisp
Symbol
p1482
(dp1483
g858
g1470
sbsg860
(iplugins.pylisp
ConsCell
p1484
(dp1485
g853
(iplugins.pylisp
ConsCell
p1486
(dp1487
g853
(iplugins.pylisp
Symbol
p1488
(dp1489
g858
S'-'
p1490
sbsg860
(iplugins.pylisp
ConsCell
p1491
(dp1492
g853
(iplugins.pylisp
Symbol
p1493
(dp1494
g858
g1445
sbsg860
(iplugins.pylisp
ConsCell
p1495
(dp1496
g853
(iplugins.pylisp
Integer
p1497
(dp1498
g865
I1
sbsg860
(iplugins.pylisp
Nil
p1499
(dp1500
bsbsbsbsg860
(iplugins.pylisp
Nil
p1501
(dp1502
bsbsbsbsg860
(iplugins.pylisp
Nil
p1503
(dp1504
bsbsbsbsg860
(iplugins.pylisp
Nil
p1505
(dp1506
bsbsbsbsbsg860
(iplugins.pylisp
Nil
p1507
(dp1508
bsbsbsg870
(iplugins.pylisp
ConsCell
p1509
(dp1510
g853
(iplugins.pylisp
Symbol
p1511
(dp1512
g858
g1470
sbsg860
(iplugins.pylisp
ConsCell
p1513
(dp1514
g853
(iplugins.pylisp
Symbol
p1515
(dp1516
g858
g1445
sbsg860
(iplugins.pylisp
Nil
p1517
(dp1518
bsbsbsg873
g0
sbs(iplugins.pylisp
Symbol
p1519
(dp1520
S'name'
p1521
S't'
p1522
sb(iplugins.pylisp
True
p1523
(dp1524
bs(iplugins.pylisp
Symbol
p1525
(dp1526
g232
S'sleep'
p1527
sb(iplugins.pylisp
Lambda
p1528
(dp1529
g10
(iplugins.pylisp
ExpressionBody
p1530
(dp1531
g13
(iplugins.pylisp
ConsCell
p1532
(dp1533
g16
(iplugins.pylisp
ConsCell
p1534
(dp1535
g16
(iplugins.pylisp
Symbol
p1536
(dp1537
g6
S'if'
p1538
sbsg22
(iplugins.pylisp
ConsCell
p1539
(dp1540
g16
(iplugins.pylisp
ConsCell
p1541
(dp1542
g16
(iplugins.pylisp
Symbol
p1543
(dp1544
g6
S'>'
p1545
sbsg22
(iplugins.pylisp
ConsCell
p1546
(dp1547
g16
(iplugins.pylisp
ConsCell
p1548
(dp1549
g16
(iplugins.pylisp
Symbol
p1550
(dp1551
g6
S'rand'
p1552
sbsg22
(iplugins.pylisp
ConsCell
p1553
(dp1554
g16
(iplugins.pylisp
Integer
p1555
(dp1556
g39
I10
sbsg22
(iplugins.pylisp
Nil
p1557
(dp1558
bsbsbsg22
(iplugins.pylisp
ConsCell
p1559
(dp1560
g16
(iplugins.pylisp
ConsCell
p1561
(dp1562
g16
(iplugins.pylisp
Symbol
p1563
(dp1564
g6
S'/'
p1565
sbsg22
(iplugins.pylisp
ConsCell
p1566
(dp1567
g16
(iplugins.pylisp
Integer
p1568
(dp1569
g39
I10
sbsg22
(iplugins.pylisp
ConsCell
p1570
(dp1571
g16
(iplugins.pylisp
Integer
p1572
(dp1573
g39
I2
sbsg22
(iplugins.pylisp
Nil
p1574
(dp1575
bsbsbsbsg22
(iplugins.pylisp
Nil
p1576
(dp1577
bsbsbsbsg22
(iplugins.pylisp
ConsCell
p1578
(dp1579
g16
(iplugins.pylisp
ConsCell
p1580
(dp1581
g16
(iplugins.pylisp
Symbol
p1582
(dp1583
g6
S'str-append'
p1584
sbsg22
(iplugins.pylisp
ConsCell
p1585
(dp1586
g16
(iplugins.pylisp
Symbol
p1587
(dp1588
g6
g34
sbsg22
(iplugins.pylisp
ConsCell
p1589
(dp1590
g16
(iplugins.pylisp
String
p1591
(dp1592
g39
S' ska sova sova sova som en gris!'
p1593
sbsg22
(iplugins.pylisp
Nil
p1594
(dp1595
bsbsbsbsg22
(iplugins.pylisp
ConsCell
p1596
(dp1597
g16
(iplugins.pylisp
ConsCell
p1598
(dp1599
g16
(iplugins.pylisp
Symbol
p1600
(dp1601
g6
S'str-append'
p1602
sbsg22
(iplugins.pylisp
ConsCell
p1603
(dp1604
g16
(iplugins.pylisp
Symbol
p1605
(dp1606
g6
g34
sbsg22
(iplugins.pylisp
ConsCell
p1607
(dp1608
g16
(iplugins.pylisp
String
p1609
(dp1610
g39
S' ska sitta och kolla p\xc3\xa5 porr ett tag till, dj\xc3\xa4vla gris fettichunge!'
p1611
sbsg22
(iplugins.pylisp
Nil
p1612
(dp1613
bsbsbsbsg22
(iplugins.pylisp
Nil
p1614
(dp1615
bsbsbsbsbsg22
(iplugins.pylisp
Nil
p1616
(dp1617
bsbsbsg94
(iplugins.pylisp
ConsCell
p1618
(dp1619
g16
(iplugins.pylisp
Symbol
p1620
(dp1621
g6
g34
sbsg22
(iplugins.pylisp
Nil
p1622
(dp1623
bsbsg105
g0
sbs(iplugins.pylisp
Symbol
p1624
(dp1625
g242
S'interrobang'
p1626
sb(iplugins.pylisp
Symbol
p1627
(dp1628
g242
S'\xe2\x80\xbd'
p1629
sbs(iplugins.pylisp
Symbol
p1630
(dp1631
S'name'
p1632
S'matematik'
p1633
sb(iplugins.pylisp
Symbol
p1634
(dp1635
g1632
S'\xc2\xac\xe2\x88\x91\xe2\x97\x8a\xe2\x88\x9a\xe2\x80\x9c\xc2\xbb\xef\xac\x82\xe2\x88\x86\xc3\x98\xcf\x80\xe2\x97\x8a\xe2\x88\x91\xe2\x88\x86'
p1636
sbs(iplugins.pylisp
Symbol
p1637
(dp1638
S'name'
p1639
S'google'
p1640
sb(iplugins.pylisp
Lambda
p1641
(dp1642
S'expression'
p1643
(iplugins.pylisp
ExpressionBody
p1644
(dp1645
S'expressions'
p1646
(iplugins.pylisp
ConsCell
p1647
(dp1648
S'car'
p1649
(iplugins.pylisp
ConsCell
p1650
(dp1651
g1649
(iplugins.pylisp
Symbol
p1652
(dp1653
g1639
S'command'
p1654
sbsS'cdr'
p1655
(iplugins.pylisp
ConsCell
p1656
(dp1657
g1649
(iplugins.pylisp
String
p1658
(dp1659
S'value'
p1660
S'google'
p1661
sbsg1655
(iplugins.pylisp
ConsCell
p1662
(dp1663
g1649
(iplugins.pylisp
Symbol
p1664
(dp1665
g1639
S's'
p1666
sbsg1655
(iplugins.pylisp
Nil
p1667
(dp1668
bsbsbsbsg1655
(iplugins.pylisp
Nil
p1669
(dp1670
bsbsbsS'parameters'
p1671
(iplugins.pylisp
ConsCell
p1672
(dp1673
g1649
(iplugins.pylisp
Symbol
p1674
(dp1675
g1639
g1666
sbsg1655
(iplugins.pylisp
Nil
p1676
(dp1677
bsbsS'env'
p1678
g0
sbs(iplugins.pylisp
Symbol
p1679
(dp1680
S'name'
p1681
S'map'
p1682
sb(iplugins.pylisp
Lambda
p1683
(dp1684
S'expression'
p1685
(iplugins.pylisp
ExpressionBody
p1686
(dp1687
S'expressions'
p1688
(iplugins.pylisp
ConsCell
p1689
(dp1690
S'car'
p1691
(iplugins.pylisp
ConsCell
p1692
(dp1693
g1691
(iplugins.pylisp
Symbol
p1694
(dp1695
g1681
S'if'
p1696
sbsS'cdr'
p1697
(iplugins.pylisp
ConsCell
p1698
(dp1699
g1691
(iplugins.pylisp
ConsCell
p1700
(dp1701
g1691
(iplugins.pylisp
Symbol
p1702
(dp1703
g1681
S'endp'
p1704
sbsg1697
(iplugins.pylisp
ConsCell
p1705
(dp1706
g1691
(iplugins.pylisp
Symbol
p1707
(dp1708
g1681
S'l'
p1709
sbsg1697
(iplugins.pylisp
Nil
p1710
(dp1711
bsbsbsg1697
(iplugins.pylisp
ConsCell
p1712
(dp1713
g1691
(iplugins.pylisp
Symbol
p1714
(dp1715
g1681
S'nil'
p1716
sbsg1697
(iplugins.pylisp
ConsCell
p1717
(dp1718
g1691
(iplugins.pylisp
ConsCell
p1719
(dp1720
g1691
(iplugins.pylisp
Symbol
p1721
(dp1722
g1681
S'cons'
p1723
sbsg1697
(iplugins.pylisp
ConsCell
p1724
(dp1725
g1691
(iplugins.pylisp
ConsCell
p1726
(dp1727
g1691
(iplugins.pylisp
Symbol
p1728
(dp1729
g1681
S'f'
p1730
sbsg1697
(iplugins.pylisp
ConsCell
p1731
(dp1732
g1691
(iplugins.pylisp
ConsCell
p1733
(dp1734
g1691
(iplugins.pylisp
Symbol
p1735
(dp1736
g1681
S'car'
p1737
sbsg1697
(iplugins.pylisp
ConsCell
p1738
(dp1739
g1691
(iplugins.pylisp
Symbol
p1740
(dp1741
g1681
g1709
sbsg1697
(iplugins.pylisp
Nil
p1742
(dp1743
bsbsbsg1697
(iplugins.pylisp
Nil
p1744
(dp1745
bsbsbsg1697
(iplugins.pylisp
ConsCell
p1746
(dp1747
g1691
(iplugins.pylisp
ConsCell
p1748
(dp1749
g1691
(iplugins.pylisp
Symbol
p1750
(dp1751
g1681
S'map'
p1752
sbsg1697
(iplugins.pylisp
ConsCell
p1753
(dp1754
g1691
(iplugins.pylisp
Symbol
p1755
(dp1756
g1681
g1730
sbsg1697
(iplugins.pylisp
ConsCell
p1757
(dp1758
g1691
(iplugins.pylisp
ConsCell
p1759
(dp1760
g1691
(iplugins.pylisp
Symbol
p1761
(dp1762
g1681
S'cdr'
p1763
sbsg1697
(iplugins.pylisp
ConsCell
p1764
(dp1765
g1691
(iplugins.pylisp
Symbol
p1766
(dp1767
g1681
g1709
sbsg1697
(iplugins.pylisp
Nil
p1768
(dp1769
bsbsbsg1697
(iplugins.pylisp
Nil
p1770
(dp1771
bsbsbsbsg1697
(iplugins.pylisp
Nil
p1772
(dp1773
bsbsbsbsg1697
(iplugins.pylisp
Nil
p1774
(dp1775
bsbsbsbsbsg1697
(iplugins.pylisp
Nil
p1776
(dp1777
bsbsbsS'parameters'
p1778
(iplugins.pylisp
ConsCell
p1779
(dp1780
g1691
(iplugins.pylisp
Symbol
p1781
(dp1782
g1681
g1730
sbsg1697
(iplugins.pylisp
ConsCell
p1783
(dp1784
g1691
(iplugins.pylisp
Symbol
p1785
(dp1786
g1681
g1709
sbsg1697
(iplugins.pylisp
Nil
p1787
(dp1788
bsbsbsS'env'
p1789
g0
sbs(iplugins.pylisp
Symbol
p1790
(dp1791
S'name'
p1792
S'grul'
p1793
sb(iplugins.pylisp
Symbol
p1794
(dp1795
g1792
S'ensam'
p1796
sbs(iplugins.pylisp
Symbol
p1797
(dp1798
g420
S'fisk'
p1799
sb(iplugins.pylisp
Lambda
p1800
(dp1801
S'expression'
p1802
(iplugins.pylisp
ExpressionBody
p1803
(dp1804
S'expressions'
p1805
(iplugins.pylisp
ConsCell
p1806
(dp1807
g424
(iplugins.pylisp
ConsCell
p1808
(dp1809
g424
(iplugins.pylisp
Symbol
p1810
(dp1811
g420
S'print'
p1812
sbsg428
(iplugins.pylisp
ConsCell
p1813
(dp1814
g424
(iplugins.pylisp
String
p1815
(dp1816
g1419
S'mm, fisk!'
p1817
sbsg428
(iplugins.pylisp
Nil
p1818
(dp1819
bsbsbsg428
(iplugins.pylisp
Nil
p1820
(dp1821
bsbsbsS'parameters'
p1822
(iplugins.pylisp
Nil
p1823
(dp1824
bsS'env'
p1825
g0
sbs(iplugins.pylisp
Symbol
p1826
(dp1827
g420
S'Sebban'
p1828
sb(iplugins.pylisp
ConsCell
p1829
(dp1830
g424
(iplugins.pylisp
Symbol
p1831
(dp1832
g420
S'EFG'
p1833
sbsg428
(iplugins.pylisp
Nil
p1834
(dp1835
bsbs(iplugins.pylisp
Symbol
p1836
(dp1837
g1639
S'reduce'
p1838
sb(iplugins.pylisp
Lambda
p1839
(dp1840
g1643
(iplugins.pylisp
ExpressionBody
p1841
(dp1842
g1646
(iplugins.pylisp
ConsCell
p1843
(dp1844
g1649
(iplugins.pylisp
ConsCell
p1845
(dp1846
g1649
(iplugins.pylisp
Symbol
p1847
(dp1848
g1639
S'if'
p1849
sbsg1655
(iplugins.pylisp
ConsCell
p1850
(dp1851
g1649
(iplugins.pylisp
ConsCell
p1852
(dp1853
g1649
(iplugins.pylisp
Symbol
p1854
(dp1855
g1639
S'endp'
p1856
sbsg1655
(iplugins.pylisp
ConsCell
p1857
(dp1858
g1649
(iplugins.pylisp
ConsCell
p1859
(dp1860
g1649
(iplugins.pylisp
Symbol
p1861
(dp1862
g1639
S'cdr'
p1863
sbsg1655
(iplugins.pylisp
ConsCell
p1864
(dp1865
g1649
(iplugins.pylisp
Symbol
p1866
(dp1867
g1639
S'l'
p1868
sbsg1655
(iplugins.pylisp
Nil
p1869
(dp1870
bsbsbsg1655
(iplugins.pylisp
Nil
p1871
(dp1872
bsbsbsg1655
(iplugins.pylisp
ConsCell
p1873
(dp1874
g1649
(iplugins.pylisp
ConsCell
p1875
(dp1876
g1649
(iplugins.pylisp
Symbol
p1877
(dp1878
g1639
S'car'
p1879
sbsg1655
(iplugins.pylisp
ConsCell
p1880
(dp1881
g1649
(iplugins.pylisp
Symbol
p1882
(dp1883
g1639
g1868
sbsg1655
(iplugins.pylisp
Nil
p1884
(dp1885
bsbsbsg1655
(iplugins.pylisp
ConsCell
p1886
(dp1887
g1649
(iplugins.pylisp
ConsCell
p1888
(dp1889
g1649
(iplugins.pylisp
Symbol
p1890
(dp1891
g1639
S'f'
p1892
sbsg1655
(iplugins.pylisp
ConsCell
p1893
(dp1894
g1649
(iplugins.pylisp
ConsCell
p1895
(dp1896
g1649
(iplugins.pylisp
Symbol
p1897
(dp1898
g1639
S'car'
p1899
sbsg1655
(iplugins.pylisp
ConsCell
p1900
(dp1901
g1649
(iplugins.pylisp
Symbol
p1902
(dp1903
g1639
g1868
sbsg1655
(iplugins.pylisp
Nil
p1904
(dp1905
bsbsbsg1655
(iplugins.pylisp
ConsCell
p1906
(dp1907
g1649
(iplugins.pylisp
ConsCell
p1908
(dp1909
g1649
(iplugins.pylisp
Symbol
p1910
(dp1911
g1639
S'reduce'
p1912
sbsg1655
(iplugins.pylisp
ConsCell
p1913
(dp1914
g1649
(iplugins.pylisp
Symbol
p1915
(dp1916
g1639
g1892
sbsg1655
(iplugins.pylisp
ConsCell
p1917
(dp1918
g1649
(iplugins.pylisp
ConsCell
p1919
(dp1920
g1649
(iplugins.pylisp
Symbol
p1921
(dp1922
g1639
S'cdr'
p1923
sbsg1655
(iplugins.pylisp
ConsCell
p1924
(dp1925
g1649
(iplugins.pylisp
Symbol
p1926
(dp1927
g1639
g1868
sbsg1655
(iplugins.pylisp
Nil
p1928
(dp1929
bsbsbsg1655
(iplugins.pylisp
Nil
p1930
(dp1931
bsbsbsbsg1655
(iplugins.pylisp
Nil
p1932
(dp1933
bsbsbsbsg1655
(iplugins.pylisp
Nil
p1934
(dp1935
bsbsbsbsbsg1655
(iplugins.pylisp
Nil
p1936
(dp1937
bsbsbsg1671
(iplugins.pylisp
ConsCell
p1938
(dp1939
g1649
(iplugins.pylisp
Symbol
p1940
(dp1941
g1639
g1892
sbsg1655
(iplugins.pylisp
ConsCell
p1942
(dp1943
g1649
(iplugins.pylisp
Symbol
p1944
(dp1945
g1639
g1868
sbsg1655
(iplugins.pylisp
Nil
p1946
(dp1947
bsbsbsg1678
g0
sbs(iplugins.pylisp
Symbol
p1948
(dp1949
g6
S'str-join'
p1950
sb(iplugins.pylisp
Lambda
p1951
(dp1952
g10
(iplugins.pylisp
ExpressionBody
p1953
(dp1954
g13
(iplugins.pylisp
ConsCell
p1955
(dp1956
g16
(iplugins.pylisp
ConsCell
p1957
(dp1958
g16
(iplugins.pylisp
Symbol
p1959
(dp1960
g6
S'reduce'
p1961
sbsg22
(iplugins.pylisp
ConsCell
p1962
(dp1963
g16
(iplugins.pylisp
ConsCell
p1964
(dp1965
g16
(iplugins.pylisp
Symbol
p1966
(dp1967
g6
S'lambda'
p1968
sbsg22
(iplugins.pylisp
ConsCell
p1969
(dp1970
g16
(iplugins.pylisp
ConsCell
p1971
(dp1972
g16
(iplugins.pylisp
Symbol
p1973
(dp1974
g6
S'a'
p1975
sbsg22
(iplugins.pylisp
ConsCell
p1976
(dp1977
g16
(iplugins.pylisp
Symbol
p1978
(dp1979
g6
S'b'
p1980
sbsg22
(iplugins.pylisp
Nil
p1981
(dp1982
bsbsbsg22
(iplugins.pylisp
ConsCell
p1983
(dp1984
g16
(iplugins.pylisp
ConsCell
p1985
(dp1986
g16
(iplugins.pylisp
Symbol
p1987
(dp1988
g6
S'str-append'
p1989
sbsg22
(iplugins.pylisp
ConsCell
p1990
(dp1991
g16
(iplugins.pylisp
Symbol
p1992
(dp1993
g6
g1975
sbsg22
(iplugins.pylisp
ConsCell
p1994
(dp1995
g16
(iplugins.pylisp
ConsCell
p1996
(dp1997
g16
(iplugins.pylisp
Symbol
p1998
(dp1999
g6
S'str-append'
p2000
sbsg22
(iplugins.pylisp
ConsCell
p2001
(dp2002
g16
(iplugins.pylisp
Symbol
p2003
(dp2004
g6
g46
sbsg22
(iplugins.pylisp
ConsCell
p2005
(dp2006
g16
(iplugins.pylisp
Symbol
p2007
(dp2008
g6
g1980
sbsg22
(iplugins.pylisp
Nil
p2009
(dp2010
bsbsbsbsg22
(iplugins.pylisp
Nil
p2011
(dp2012
bsbsbsbsg22
(iplugins.pylisp
Nil
p2013
(dp2014
bsbsbsbsg22
(iplugins.pylisp
ConsCell
p2015
(dp2016
g16
(iplugins.pylisp
Symbol
p2017
(dp2018
g6
S'l'
p2019
sbsg22
(iplugins.pylisp
Nil
p2020
(dp2021
bsbsbsbsg22
(iplugins.pylisp
Nil
p2022
(dp2023
bsbsbsg94
(iplugins.pylisp
ConsCell
p2024
(dp2025
g16
(iplugins.pylisp
Symbol
p2026
(dp2027
g6
g2019
sbsg22
(iplugins.pylisp
ConsCell
p2028
(dp2029
g16
(iplugins.pylisp
Symbol
p2030
(dp2031
g6
g46
sbsg22
(iplugins.pylisp
Nil
p2032
(dp2033
bsbsbsg105
g0
sbs(iplugins.pylisp
Symbol
p2034
(dp2035
g1792
S'dvd4GB'
p2036
sb(iplugins.pylisp
Integer
p2037
(dp2038
S'value'
p2039
I42
sbs(iplugins.pylisp
Symbol
p2040
(dp2041
g1639
S'second'
p2042
sb(iplugins.pylisp
Lambda
p2043
(dp2044
g1643
(iplugins.pylisp
ExpressionBody
p2045
(dp2046
g1646
(iplugins.pylisp
ConsCell
p2047
(dp2048
g1649
(iplugins.pylisp
ConsCell
p2049
(dp2050
g1649
(iplugins.pylisp
Symbol
p2051
(dp2052
g1639
S'nth'
p2053
sbsg1655
(iplugins.pylisp
ConsCell
p2054
(dp2055
g1649
(iplugins.pylisp
Symbol
p2056
(dp2057
g1639
g1868
sbsg1655
(iplugins.pylisp
ConsCell
p2058
(dp2059
g1649
(iplugins.pylisp
Integer
p2060
(dp2061
g1660
I1
sbsg1655
(iplugins.pylisp
Nil
p2062
(dp2063
bsbsbsbsg1655
(iplugins.pylisp
Nil
p2064
(dp2065
bsbsbsg1671
(iplugins.pylisp
ConsCell
p2066
(dp2067
g1649
(iplugins.pylisp
Symbol
p2068
(dp2069
g1639
g1868
sbsg1655
(iplugins.pylisp
Nil
p2070
(dp2071
bsbsg1678
g0
sbs(iplugins.pylisp
Symbol
p2072
(dp2073
S'name'
p2074
S'k\xc3\xb6tt'
p2075
sb(iplugins.pylisp
Symbol
p2076
(dp2077
g2074
S'\xe7\xb2\xbe\xe8\x82\x89'
p2078
sbs(iplugins.pylisp
Symbol
p2079
(dp2080
g858
S'append'
p2081
sb(iplugins.pylisp
Lambda
p2082
(dp2083
g447
(iplugins.pylisp
ExpressionBody
p2084
(dp2085
g450
(iplugins.pylisp
ConsCell
p2086
(dp2087
g453
(iplugins.pylisp
ConsCell
p2088
(dp2089
g453
(iplugins.pylisp
Symbol
p2090
(dp2091
g443
S'if'
p2092
sbsg459
(iplugins.pylisp
ConsCell
p2093
(dp2094
g453
(iplugins.pylisp
ConsCell
p2095
(dp2096
g453
(iplugins.pylisp
Symbol
p2097
(dp2098
g443
S'endp'
p2099
sbsg459
(iplugins.pylisp
ConsCell
p2100
(dp2101
g453
(iplugins.pylisp
Symbol
p2102
(dp2103
g443
S'la'
p2104
sbsg459
(iplugins.pylisp
Nil
p2105
(dp2106
bsbsbsg459
(iplugins.pylisp
ConsCell
p2107
(dp2108
g453
(iplugins.pylisp
ConsCell
p2109
(dp2110
g453
(iplugins.pylisp
Symbol
p2111
(dp2112
g443
S'if'
p2113
sbsg459
(iplugins.pylisp
ConsCell
p2114
(dp2115
g453
(iplugins.pylisp
ConsCell
p2116
(dp2117
g453
(iplugins.pylisp
Symbol
p2118
(dp2119
g443
S'endp'
p2120
sbsg459
(iplugins.pylisp
ConsCell
p2121
(dp2122
g453
(iplugins.pylisp
Symbol
p2123
(dp2124
g443
S'lb'
p2125
sbsg459
(iplugins.pylisp
Nil
p2126
(dp2127
bsbsbsg459
(iplugins.pylisp
ConsCell
p2128
(dp2129
g453
(iplugins.pylisp
Quoted
p2130
(dp2131
S'quoted_expression'
p2132
(iplugins.pylisp
Nil
p2133
(dp2134
bsbsg459
(iplugins.pylisp
ConsCell
p2135
(dp2136
g453
(iplugins.pylisp
ConsCell
p2137
(dp2138
g453
(iplugins.pylisp
Symbol
p2139
(dp2140
g443
S'cons'
p2141
sbsg459
(iplugins.pylisp
ConsCell
p2142
(dp2143
g453
(iplugins.pylisp
ConsCell
p2144
(dp2145
g453
(iplugins.pylisp
Symbol
p2146
(dp2147
g443
S'car'
p2148
sbsg459
(iplugins.pylisp
ConsCell
p2149
(dp2150
g453
(iplugins.pylisp
Symbol
p2151
(dp2152
g443
S'lb'
p2153
sbsg459
(iplugins.pylisp
Nil
p2154
(dp2155
bsbsbsg459
(iplugins.pylisp
ConsCell
p2156
(dp2157
g453
(iplugins.pylisp
ConsCell
p2158
(dp2159
g453
(iplugins.pylisp
Symbol
p2160
(dp2161
g443
S'append'
p2162
sbsg459
(iplugins.pylisp
ConsCell
p2163
(dp2164
g453
(iplugins.pylisp
Symbol
p2165
(dp2166
g443
S'la'
p2167
sbsg459
(iplugins.pylisp
ConsCell
p2168
(dp2169
g453
(iplugins.pylisp
ConsCell
p2170
(dp2171
g453
(iplugins.pylisp
Symbol
p2172
(dp2173
g443
S'cdr'
p2174
sbsg459
(iplugins.pylisp
ConsCell
p2175
(dp2176
g453
(iplugins.pylisp
Symbol
p2177
(dp2178
g443
S'lb'
p2179
sbsg459
(iplugins.pylisp
Nil
p2180
(dp2181
bsbsbsg459
(iplugins.pylisp
Nil
p2182
(dp2183
bsbsbsbsg459
(iplugins.pylisp
Nil
p2184
(dp2185
bsbsbsbsg459
(iplugins.pylisp
Nil
p2186
(dp2187
bsbsbsbsbsg459
(iplugins.pylisp
ConsCell
p2188
(dp2189
g453
(iplugins.pylisp
ConsCell
p2190
(dp2191
g453
(iplugins.pylisp
Symbol
p2192
(dp2193
g443
S'cons'
p2194
sbsg459
(iplugins.pylisp
ConsCell
p2195
(dp2196
g453
(iplugins.pylisp
ConsCell
p2197
(dp2198
g453
(iplugins.pylisp
Symbol
p2199
(dp2200
g443
S'car'
p2201
sbsg459
(iplugins.pylisp
ConsCell
p2202
(dp2203
g453
(iplugins.pylisp
Symbol
p2204
(dp2205
g443
S'la'
p2206
sbsg459
(iplugins.pylisp
Nil
p2207
(dp2208
bsbsbsg459
(iplugins.pylisp
ConsCell
p2209
(dp2210
g453
(iplugins.pylisp
ConsCell
p2211
(dp2212
g453
(iplugins.pylisp
Symbol
p2213
(dp2214
g443
S'append'
p2215
sbsg459
(iplugins.pylisp
ConsCell
p2216
(dp2217
g453
(iplugins.pylisp
ConsCell
p2218
(dp2219
g453
(iplugins.pylisp
Symbol
p2220
(dp2221
g443
S'cdr'
p2222
sbsg459
(iplugins.pylisp
ConsCell
p2223
(dp2224
g453
(iplugins.pylisp
Symbol
p2225
(dp2226
g443
S'la'
p2227
sbsg459
(iplugins.pylisp
Nil
p2228
(dp2229
bsbsbsg459
(iplugins.pylisp
ConsCell
p2230
(dp2231
g453
(iplugins.pylisp
Symbol
p2232
(dp2233
g443
S'lb'
p2234
sbsg459
(iplugins.pylisp
Nil
p2235
(dp2236
bsbsbsbsg459
(iplugins.pylisp
Nil
p2237
(dp2238
bsbsbsbsg459
(iplugins.pylisp
Nil
p2239
(dp2240
bsbsbsbsbsg459
(iplugins.pylisp
Nil
p2241
(dp2242
bsbsbsg575
(iplugins.pylisp
ConsCell
p2243
(dp2244
g453
(iplugins.pylisp
Symbol
p2245
(dp2246
g443
S'la'
p2247
sbsg459
(iplugins.pylisp
ConsCell
p2248
(dp2249
g453
(iplugins.pylisp
Symbol
p2250
(dp2251
g443
S'lb'
p2252
sbsg459
(iplugins.pylisp
Nil
p2253
(dp2254
bsbsbsg587
g0
sbs(iplugins.pylisp
Symbol
p2255
(dp2256
g968
S'abc'
p2257
sb(iplugins.pylisp
Lambda
p2258
(dp2259
g1802
(iplugins.pylisp
ExpressionBody
p2260
(dp2261
g1805
(iplugins.pylisp
ConsCell
p2262
(dp2263
g424
(iplugins.pylisp
ConsCell
p2264
(dp2265
g424
(iplugins.pylisp
Symbol
p2266
(dp2267
g420
S'abc'
p2268
sbsg428
(iplugins.pylisp
ConsCell
p2269
(dp2270
g424
(iplugins.pylisp
Symbol
p2271
(dp2272
g420
S'x'
p2273
sbsg428
(iplugins.pylisp
Nil
p2274
(dp2275
bsbsbsg428
(iplugins.pylisp
Nil
p2276
(dp2277
bsbsbsg1822
(iplugins.pylisp
ConsCell
p2278
(dp2279
g424
(iplugins.pylisp
Symbol
p2280
(dp2281
g420
g2273
sbsg428
(iplugins.pylisp
Nil
p2282
(dp2283
bsbsg1825
g0
sbs(iplugins.pylisp
Symbol
p2284
(dp2285
g6
S'k\xc3\xb6p'
p2286
sb(iplugins.pylisp
Lambda
p2287
(dp2288
g10
(iplugins.pylisp
ExpressionBody
p2289
(dp2290
g13
(iplugins.pylisp
ConsCell
p2291
(dp2292
g16
(iplugins.pylisp
ConsCell
p2293
(dp2294
g16
(iplugins.pylisp
Symbol
p2295
(dp2296
g6
S'str-append'
p2297
sbsg22
(iplugins.pylisp
ConsCell
p2298
(dp2299
g16
(iplugins.pylisp
String
p2300
(dp2301
g39
S'k'
p2302
sbsg22
(iplugins.pylisp
ConsCell
p2303
(dp2304
g16
(iplugins.pylisp
ConsCell
p2305
(dp2306
g16
(iplugins.pylisp
Symbol
p2307
(dp2308
g6
S'str-append'
p2309
sbsg22
(iplugins.pylisp
ConsCell
p2310
(dp2311
g16
(iplugins.pylisp
ConsCell
p2312
(dp2313
g16
(iplugins.pylisp
Symbol
p2314
(dp2315
g6
S'stimes'
p2316
sbsg22
(iplugins.pylisp
ConsCell
p2317
(dp2318
g16
(iplugins.pylisp
Symbol
p2319
(dp2320
g6
g34
sbsg22
(iplugins.pylisp
ConsCell
p2321
(dp2322
g16
(iplugins.pylisp
String
p2323
(dp2324
g39
S'\xc3\xb6'
p2325
sbsg22
(iplugins.pylisp
Nil
p2326
(dp2327
bsbsbsbsg22
(iplugins.pylisp
ConsCell
p2328
(dp2329
g16
(iplugins.pylisp
String
p2330
(dp2331
g39
S'p'
p2332
sbsg22
(iplugins.pylisp
Nil
p2333
(dp2334
bsbsbsbsg22
(iplugins.pylisp
Nil
p2335
(dp2336
bsbsbsbsg22
(iplugins.pylisp
Nil
p2337
(dp2338
bsbsbsg94
(iplugins.pylisp
ConsCell
p2339
(dp2340
g16
(iplugins.pylisp
Symbol
p2341
(dp2342
g6
g34
sbsg22
(iplugins.pylisp
Nil
p2343
(dp2344
bsbsg105
g0
sbs(iplugins.pylisp
Symbol
p2345
(dp2346
g232
S'caaar'
p2347
sb(iplugins.pylisp
Lambda
p2348
(dp2349
g880
(iplugins.pylisp
ExpressionBody
p2350
(dp2351
g883
(iplugins.pylisp
ConsCell
p2352
(dp2353
g886
(iplugins.pylisp
ConsCell
p2354
(dp2355
g886
(iplugins.pylisp
Symbol
p2356
(dp2357
g232
S'car'
p2358
sbsg239
(iplugins.pylisp
ConsCell
p2359
(dp2360
g886
(iplugins.pylisp
ConsCell
p2361
(dp2362
g886
(iplugins.pylisp
Symbol
p2363
(dp2364
g232
S'car'
p2365
sbsg239
(iplugins.pylisp
ConsCell
p2366
(dp2367
g886
(iplugins.pylisp
ConsCell
p2368
(dp2369
g886
(iplugins.pylisp
Symbol
p2370
(dp2371
g232
S'car'
p2372
sbsg239
(iplugins.pylisp
ConsCell
p2373
(dp2374
g886
(iplugins.pylisp
Symbol
p2375
(dp2376
g232
g903
sbsg239
(iplugins.pylisp
Nil
p2377
(dp2378
bsbsbsg239
(iplugins.pylisp
Nil
p2379
(dp2380
bsbsbsg239
(iplugins.pylisp
Nil
p2381
(dp2382
bsbsbsg239
(iplugins.pylisp
Nil
p2383
(dp2384
bsbsbsg958
(iplugins.pylisp
ConsCell
p2385
(dp2386
g886
(iplugins.pylisp
Symbol
p2387
(dp2388
g232
g903
sbsg239
(iplugins.pylisp
Nil
p2389
(dp2390
bsbsg965
g0
sbs(iplugins.pylisp
Symbol
p2391
(dp2392
g752
S'+'
p2393
sb(iplugins.pylisp
Lambda
p2394
(dp2395
S'expression'
p2396
(iplugins.pylisp
ExpressionBody
p2397
(dp2398
S'expressions'
p2399
(iplugins.pylisp
ConsCell
p2400
(dp2401
S'car'
p2402
(iplugins.pylisp
ConsCell
p2403
(dp2404
g2402
(iplugins.pylisp
Symbol
p2405
(dp2406
S'name'
p2407
S'-'
p2408
sbsS'cdr'
p2409
(iplugins.pylisp
ConsCell
p2410
(dp2411
g2402
(iplugins.pylisp
Symbol
p2412
(dp2413
g2407
S'x'
p2414
sbsg2409
(iplugins.pylisp
ConsCell
p2415
(dp2416
g2402
(iplugins.pylisp
ConsCell
p2417
(dp2418
g2402
(iplugins.pylisp
Symbol
p2419
(dp2420
g2407
g2408
sbsg2409
(iplugins.pylisp
ConsCell
p2421
(dp2422
g2402
(iplugins.pylisp
Integer
p2423
(dp2424
S'value'
p2425
I0
sbsg2409
(iplugins.pylisp
ConsCell
p2426
(dp2427
g2402
(iplugins.pylisp
Symbol
p2428
(dp2429
g2407
S'y'
p2430
sbsg2409
(iplugins.pylisp
Nil
p2431
(dp2432
bsbsbsbsg2409
(iplugins.pylisp
Nil
p2433
(dp2434
bsbsbsbsg2409
(iplugins.pylisp
Nil
p2435
(dp2436
bsbsbsS'parameters'
p2437
(iplugins.pylisp
ConsCell
p2438
(dp2439
g2402
(iplugins.pylisp
Symbol
p2440
(dp2441
g2407
g2414
sbsg2409
(iplugins.pylisp
ConsCell
p2442
(dp2443
g2402
(iplugins.pylisp
Symbol
p2444
(dp2445
g2407
g2430
sbsg2409
(iplugins.pylisp
Nil
p2446
(dp2447
bsbsbsS'env'
p2448
g0
sbs(iplugins.pylisp
Symbol
p2449
(dp2450
S'name'
p2451
S'magic-8-ball'
p2452
sb(iplugins.pylisp
Lambda
p2453
(dp2454
S'expression'
p2455
(iplugins.pylisp
ExpressionBody
p2456
(dp2457
S'expressions'
p2458
(iplugins.pylisp
ConsCell
p2459
(dp2460
S'car'
p2461
(iplugins.pylisp
ConsCell
p2462
(dp2463
g2461
(iplugins.pylisp
Symbol
p2464
(dp2465
g2451
S'nth'
p2466
sbsS'cdr'
p2467
(iplugins.pylisp
ConsCell
p2468
(dp2469
g2461
(iplugins.pylisp
Quoted
p2470
(dp2471
S'quoted_expression'
p2472
(iplugins.pylisp
ConsCell
p2473
(dp2474
g2461
(iplugins.pylisp
String
p2475
(dp2476
S'value'
p2477
S'As I see it, yes'
p2478
sbsg2467
(iplugins.pylisp
ConsCell
p2479
(dp2480
g2461
(iplugins.pylisp
String
p2481
(dp2482
g2477
S'It is certain'
p2483
sbsg2467
(iplugins.pylisp
ConsCell
p2484
(dp2485
g2461
(iplugins.pylisp
String
p2486
(dp2487
g2477
S'It is decidedly so'
p2488
sbsg2467
(iplugins.pylisp
ConsCell
p2489
(dp2490
g2461
(iplugins.pylisp
String
p2491
(dp2492
g2477
S'Most likely'
p2493
sbsg2467
(iplugins.pylisp
ConsCell
p2494
(dp2495
g2461
(iplugins.pylisp
String
p2496
(dp2497
g2477
S'Outlook good'
p2498
sbsg2467
(iplugins.pylisp
ConsCell
p2499
(dp2500
g2461
(iplugins.pylisp
String
p2501
(dp2502
g2477
S'Signs point to yes'
p2503
sbsg2467
(iplugins.pylisp
ConsCell
p2504
(dp2505
g2461
(iplugins.pylisp
String
p2506
(dp2507
g2477
S'Without a doubt'
p2508
sbsg2467
(iplugins.pylisp
ConsCell
p2509
(dp2510
g2461
(iplugins.pylisp
String
p2511
(dp2512
g2477
S'Yes'
p2513
sbsg2467
(iplugins.pylisp
ConsCell
p2514
(dp2515
g2461
(iplugins.pylisp
String
p2516
(dp2517
g2477
S'Yes - definitely'
p2518
sbsg2467
(iplugins.pylisp
ConsCell
p2519
(dp2520
g2461
(iplugins.pylisp
String
p2521
(dp2522
g2477
S'You may rely on it'
p2523
sbsg2467
(iplugins.pylisp
ConsCell
p2524
(dp2525
g2461
(iplugins.pylisp
String
p2526
(dp2527
g2477
S'Reply hazy, try again'
p2528
sbsg2467
(iplugins.pylisp
ConsCell
p2529
(dp2530
g2461
(iplugins.pylisp
String
p2531
(dp2532
g2477
S'Ask again later'
p2533
sbsg2467
(iplugins.pylisp
ConsCell
p2534
(dp2535
g2461
(iplugins.pylisp
String
p2536
(dp2537
g2477
S'Better not tell you now'
p2538
sbsg2467
(iplugins.pylisp
ConsCell
p2539
(dp2540
g2461
(iplugins.pylisp
String
p2541
(dp2542
g2477
S'Cannot predict now'
p2543
sbsg2467
(iplugins.pylisp
ConsCell
p2544
(dp2545
g2461
(iplugins.pylisp
String
p2546
(dp2547
g2477
S'Concentrace and ask again'
p2548
sbsg2467
(iplugins.pylisp
ConsCell
p2549
(dp2550
g2461
(iplugins.pylisp
String
p2551
(dp2552
g2477
S"Don't count on it"
p2553
sbsg2467
(iplugins.pylisp
ConsCell
p2554
(dp2555
g2461
(iplugins.pylisp
String
p2556
(dp2557
g2477
S'My reply is no'
p2558
sbsg2467
(iplugins.pylisp
ConsCell
p2559
(dp2560
g2461
(iplugins.pylisp
String
p2561
(dp2562
g2477
S'My sources say no'
p2563
sbsg2467
(iplugins.pylisp
ConsCell
p2564
(dp2565
g2461
(iplugins.pylisp
String
p2566
(dp2567
g2477
S'Outlook not so good'
p2568
sbsg2467
(iplugins.pylisp
ConsCell
p2569
(dp2570
g2461
(iplugins.pylisp
String
p2571
(dp2572
g2477
S'Very doubtful'
p2573
sbsg2467
(iplugins.pylisp
Nil
p2574
(dp2575
bsbsbsbsbsbsbsbsbsbsbsbsbsbsbsbsbsbsbsbsbsbsg2467
(iplugins.pylisp
ConsCell
p2576
(dp2577
g2461
(iplugins.pylisp
ConsCell
p2578
(dp2579
g2461
(iplugins.pylisp
Symbol
p2580
(dp2581
g2451
S'rand'
p2582
sbsg2467
(iplugins.pylisp
ConsCell
p2583
(dp2584
g2461
(iplugins.pylisp
Integer
p2585
(dp2586
g2477
I20
sbsg2467
(iplugins.pylisp
Nil
p2587
(dp2588
bsbsbsg2467
(iplugins.pylisp
Nil
p2589
(dp2590
bsbsbsbsg2467
(iplugins.pylisp
Nil
p2591
(dp2592
bsbsbsS'parameters'
p2593
(iplugins.pylisp
Nil
p2594
(dp2595
bsS'env'
p2596
g0
sbs(iplugins.pylisp
Symbol
p2597
(dp2598
g114
S'randmerge'
p2599
sb(iplugins.pylisp
Lambda
p2600
(dp2601
g118
(iplugins.pylisp
ExpressionBody
p2602
(dp2603
g121
(iplugins.pylisp
ConsCell
p2604
(dp2605
g124
(iplugins.pylisp
ConsCell
p2606
(dp2607
g124
(iplugins.pylisp
Symbol
p2608
(dp2609
g114
S'if'
p2610
sbsg130
(iplugins.pylisp
ConsCell
p2611
(dp2612
g124
(iplugins.pylisp
ConsCell
p2613
(dp2614
g124
(iplugins.pylisp
Symbol
p2615
(dp2616
g114
S'endp'
p2617
sbsg130
(iplugins.pylisp
ConsCell
p2618
(dp2619
g124
(iplugins.pylisp
Symbol
p2620
(dp2621
g114
S'l1'
p2622
sbsg130
(iplugins.pylisp
Nil
p2623
(dp2624
bsbsbsg130
(iplugins.pylisp
ConsCell
p2625
(dp2626
g124
(iplugins.pylisp
Symbol
p2627
(dp2628
g114
S'l2'
p2629
sbsg130
(iplugins.pylisp
ConsCell
p2630
(dp2631
g124
(iplugins.pylisp
ConsCell
p2632
(dp2633
g124
(iplugins.pylisp
Symbol
p2634
(dp2635
g114
S'if'
p2636
sbsg130
(iplugins.pylisp
ConsCell
p2637
(dp2638
g124
(iplugins.pylisp
ConsCell
p2639
(dp2640
g124
(iplugins.pylisp
Symbol
p2641
(dp2642
g114
S'endp'
p2643
sbsg130
(iplugins.pylisp
ConsCell
p2644
(dp2645
g124
(iplugins.pylisp
Symbol
p2646
(dp2647
g114
S'l2'
p2648
sbsg130
(iplugins.pylisp
Nil
p2649
(dp2650
bsbsbsg130
(iplugins.pylisp
ConsCell
p2651
(dp2652
g124
(iplugins.pylisp
Symbol
p2653
(dp2654
g114
S'l1'
p2655
sbsg130
(iplugins.pylisp
ConsCell
p2656
(dp2657
g124
(iplugins.pylisp
ConsCell
p2658
(dp2659
g124
(iplugins.pylisp
Symbol
p2660
(dp2661
g114
S'cons'
p2662
sbsg130
(iplugins.pylisp
ConsCell
p2663
(dp2664
g124
(iplugins.pylisp
ConsCell
p2665
(dp2666
g124
(iplugins.pylisp
Symbol
p2667
(dp2668
g114
S'first'
p2669
sbsg130
(iplugins.pylisp
ConsCell
p2670
(dp2671
g124
(iplugins.pylisp
Symbol
p2672
(dp2673
g114
S'l1'
p2674
sbsg130
(iplugins.pylisp
Nil
p2675
(dp2676
bsbsbsg130
(iplugins.pylisp
ConsCell
p2677
(dp2678
g124
(iplugins.pylisp
ConsCell
p2679
(dp2680
g124
(iplugins.pylisp
Symbol
p2681
(dp2682
g114
S'cons'
p2683
sbsg130
(iplugins.pylisp
ConsCell
p2684
(dp2685
g124
(iplugins.pylisp
ConsCell
p2686
(dp2687
g124
(iplugins.pylisp
Symbol
p2688
(dp2689
g114
S'first'
p2690
sbsg130
(iplugins.pylisp
ConsCell
p2691
(dp2692
g124
(iplugins.pylisp
Symbol
p2693
(dp2694
g114
S'l2'
p2695
sbsg130
(iplugins.pylisp
Nil
p2696
(dp2697
bsbsbsg130
(iplugins.pylisp
ConsCell
p2698
(dp2699
g124
(iplugins.pylisp
ConsCell
p2700
(dp2701
g124
(iplugins.pylisp
Symbol
p2702
(dp2703
g114
S'randmerge'
p2704
sbsg130
(iplugins.pylisp
ConsCell
p2705
(dp2706
g124
(iplugins.pylisp
ConsCell
p2707
(dp2708
g124
(iplugins.pylisp
Symbol
p2709
(dp2710
g114
S'rest'
p2711
sbsg130
(iplugins.pylisp
ConsCell
p2712
(dp2713
g124
(iplugins.pylisp
Symbol
p2714
(dp2715
g114
S'l1'
p2716
sbsg130
(iplugins.pylisp
Nil
p2717
(dp2718
bsbsbsg130
(iplugins.pylisp
ConsCell
p2719
(dp2720
g124
(iplugins.pylisp
ConsCell
p2721
(dp2722
g124
(iplugins.pylisp
Symbol
p2723
(dp2724
g114
S'rest'
p2725
sbsg130
(iplugins.pylisp
ConsCell
p2726
(dp2727
g124
(iplugins.pylisp
Symbol
p2728
(dp2729
g114
S'l2'
p2730
sbsg130
(iplugins.pylisp
Nil
p2731
(dp2732
bsbsbsg130
(iplugins.pylisp
Nil
p2733
(dp2734
bsbsbsbsg130
(iplugins.pylisp
Nil
p2735
(dp2736
bsbsbsbsg130
(iplugins.pylisp
Nil
p2737
(dp2738
bsbsbsbsg130
(iplugins.pylisp
Nil
p2739
(dp2740
bsbsbsbsbsg130
(iplugins.pylisp
Nil
p2741
(dp2742
bsbsbsbsbsg130
(iplugins.pylisp
Nil
p2743
(dp2744
bsbsbsg218
(iplugins.pylisp
ConsCell
p2745
(dp2746
g124
(iplugins.pylisp
Symbol
p2747
(dp2748
g114
S'l1'
p2749
sbsg130
(iplugins.pylisp
ConsCell
p2750
(dp2751
g124
(iplugins.pylisp
Symbol
p2752
(dp2753
g114
S'l2'
p2754
sbsg130
(iplugins.pylisp
Nil
p2755
(dp2756
bsbsbsg229
g0
sbs(iplugins.pylisp
Symbol
p2757
(dp2758
S'name'
p2759
S'kuk'
p2760
sb(iplugins.pylisp
Symbol
p2761
(dp2762
g108
S'C===========8'
p2763
sbs(iplugins.pylisp
Symbol
p2764
(dp2765
g443
S'\xe5\x8d\x90'
p2766
sb(iplugins.pylisp
Symbol
p2767
(dp2768
g443
S'http://xn--zkr'
p2769
sbs(iplugins.pylisp
Symbol
p2770
(dp2771
g2074
S'festern'
p2772
sb(iplugins.pylisp
ConsCell
p2773
(dp2774
S'car'
p2775
(iplugins.pylisp
Symbol
p2776
(dp2777
g2074
S'\xc3\xb6l'
p2778
sbsS'cdr'
p2779
(iplugins.pylisp
Symbol
p2780
(dp2781
g2074
S'k\xc3\xb6tt'
p2782
sbsbs(iplugins.pylisp
Symbol
p2783
(dp2784
g108
S'inversern'
p2785
sb(iplugins.pylisp
Lambda
p2786
(dp2787
g288
(iplugins.pylisp
ExpressionBody
p2788
(dp2789
g291
(iplugins.pylisp
ConsCell
p2790
(dp2791
g294
(iplugins.pylisp
ConsCell
p2792
(dp2793
g294
(iplugins.pylisp
Symbol
p2794
(dp2795
g108
S'if'
p2796
sbsg300
(iplugins.pylisp
ConsCell
p2797
(dp2798
g294
(iplugins.pylisp
ConsCell
p2799
(dp2800
g294
(iplugins.pylisp
Symbol
p2801
(dp2802
g108
S'eq'
p2803
sbsg300
(iplugins.pylisp
ConsCell
p2804
(dp2805
g294
(iplugins.pylisp
Symbol
p2806
(dp2807
g108
S'inputern'
p2808
sbsg300
(iplugins.pylisp
ConsCell
p2809
(dp2810
g294
(iplugins.pylisp
Quoted
p2811
(dp2812
S'quoted_expression'
p2813
(iplugins.pylisp
Symbol
p2814
(dp2815
g108
S'b\xc3\xa4st'
p2816
sbsbsg300
(iplugins.pylisp
Nil
p2817
(dp2818
bsbsbsbsg300
(iplugins.pylisp
ConsCell
p2819
(dp2820
g294
(iplugins.pylisp
Quoted
p2821
(dp2822
g2813
(iplugins.pylisp
Symbol
p2823
(dp2824
g108
S's\xc3\xa4mst'
p2825
sbsbsg300
(iplugins.pylisp
ConsCell
p2826
(dp2827
g294
(iplugins.pylisp
Quoted
p2828
(dp2829
g2813
(iplugins.pylisp
Symbol
p2830
(dp2831
g108
S'b\xc3\xa4st'
p2832
sbsbsg300
(iplugins.pylisp
Nil
p2833
(dp2834
bsbsbsbsbsg300
(iplugins.pylisp
Nil
p2835
(dp2836
bsbsbsg342
(iplugins.pylisp
ConsCell
p2837
(dp2838
g294
(iplugins.pylisp
Symbol
p2839
(dp2840
g108
S'inputern'
p2841
sbsg300
(iplugins.pylisp
Nil
p2842
(dp2843
bsbsg349
g0
sbs(iplugins.pylisp
Symbol
p2844
(dp2845
g843
S'loltest123'
p2846
sb(iplugins.pylisp
Lambda
p2847
(dp2848
S'expression'
p2849
(iplugins.pylisp
ExpressionBody
p2850
(dp2851
S'expressions'
p2852
(iplugins.pylisp
ConsCell
p2853
(dp2854
S'car'
p2855
(iplugins.pylisp
ConsCell
p2856
(dp2857
g2855
(iplugins.pylisp
Symbol
p2858
(dp2859
g843
S'let'
p2860
sbsS'cdr'
p2861
(iplugins.pylisp
ConsCell
p2862
(dp2863
g2855
(iplugins.pylisp
ConsCell
p2864
(dp2865
g2855
(iplugins.pylisp
ConsCell
p2866
(dp2867
g2855
(iplugins.pylisp
Symbol
p2868
(dp2869
g843
S'next'
p2870
sbsg2861
(iplugins.pylisp
ConsCell
p2871
(dp2872
g2855
(iplugins.pylisp
ConsCell
p2873
(dp2874
g2855
(iplugins.pylisp
Symbol
p2875
(dp2876
g843
S'lambda'
p2877
sbsg2861
(iplugins.pylisp
ConsCell
p2878
(dp2879
g2855
(iplugins.pylisp
ConsCell
p2880
(dp2881
g2855
(iplugins.pylisp
Symbol
p2882
(dp2883
g843
S'n'
p2884
sbsg2861
(iplugins.pylisp
Nil
p2885
(dp2886
bsbsg2861
(iplugins.pylisp
ConsCell
p2887
(dp2888
g2855
(iplugins.pylisp
ConsCell
p2889
(dp2890
g2855
(iplugins.pylisp
Symbol
p2891
(dp2892
g843
S'if'
p2893
sbsg2861
(iplugins.pylisp
ConsCell
p2894
(dp2895
g2855
(iplugins.pylisp
ConsCell
p2896
(dp2897
g2855
(iplugins.pylisp
Symbol
p2898
(dp2899
g843
S'<='
p2900
sbsg2861
(iplugins.pylisp
ConsCell
p2901
(dp2902
g2855
(iplugins.pylisp
Symbol
p2903
(dp2904
g843
g2884
sbsg2861
(iplugins.pylisp
ConsCell
p2905
(dp2906
g2855
(iplugins.pylisp
Integer
p2907
(dp2908
S'value'
p2909
I0
sbsg2861
(iplugins.pylisp
Nil
p2910
(dp2911
bsbsbsbsg2861
(iplugins.pylisp
ConsCell
p2912
(dp2913
g2855
(iplugins.pylisp
ConsCell
p2914
(dp2915
g2855
(iplugins.pylisp
Symbol
p2916
(dp2917
g843
S'nom-gen'
p2918
sbsg2861
(iplugins.pylisp
Nil
p2919
(dp2920
bsbsg2861
(iplugins.pylisp
ConsCell
p2921
(dp2922
g2855
(iplugins.pylisp
ConsCell
p2923
(dp2924
g2855
(iplugins.pylisp
Symbol
p2925
(dp2926
g843
S'str-append'
p2927
sbsg2861
(iplugins.pylisp
ConsCell
p2928
(dp2929
g2855
(iplugins.pylisp
ConsCell
p2930
(dp2931
g2855
(iplugins.pylisp
Symbol
p2932
(dp2933
g843
S'str-append'
p2934
sbsg2861
(iplugins.pylisp
ConsCell
p2935
(dp2936
g2855
(iplugins.pylisp
ConsCell
p2937
(dp2938
g2855
(iplugins.pylisp
Symbol
p2939
(dp2940
g843
S'nom-gen'
p2941
sbsg2861
(iplugins.pylisp
Nil
p2942
(dp2943
bsbsg2861
(iplugins.pylisp
ConsCell
p2944
(dp2945
g2855
(iplugins.pylisp
String
p2946
(dp2947
g2909
S'-'
p2948
sbsg2861
(iplugins.pylisp
Nil
p2949
(dp2950
bsbsbsbsg2861
(iplugins.pylisp
ConsCell
p2951
(dp2952
g2855
(iplugins.pylisp
ConsCell
p2953
(dp2954
g2855
(iplugins.pylisp
Symbol
p2955
(dp2956
g843
S'next'
p2957
sbsg2861
(iplugins.pylisp
ConsCell
p2958
(dp2959
g2855
(iplugins.pylisp
ConsCell
p2960
(dp2961
g2855
(iplugins.pylisp
Symbol
p2962
(dp2963
g843
g2948
sbsg2861
(iplugins.pylisp
ConsCell
p2964
(dp2965
g2855
(iplugins.pylisp
Symbol
p2966
(dp2967
g843
g2884
sbsg2861
(iplugins.pylisp
ConsCell
p2968
(dp2969
g2855
(iplugins.pylisp
Integer
p2970
(dp2971
g2909
I1
sbsg2861
(iplugins.pylisp
Nil
p2972
(dp2973
bsbsbsbsg2861
(iplugins.pylisp
Nil
p2974
(dp2975
bsbsbsg2861
(iplugins.pylisp
Nil
p2976
(dp2977
bsbsbsbsg2861
(iplugins.pylisp
Nil
p2978
(dp2979
bsbsbsbsbsg2861
(iplugins.pylisp
Nil
p2980
(dp2981
bsbsbsbsg2861
(iplugins.pylisp
Nil
p2982
(dp2983
bsbsbsg2861
(iplugins.pylisp
Nil
p2984
(dp2985
bsbsg2861
(iplugins.pylisp
ConsCell
p2986
(dp2987
g2855
(iplugins.pylisp
ConsCell
p2988
(dp2989
g2855
(iplugins.pylisp
Symbol
p2990
(dp2991
g843
S'str-append'
p2992
sbsg2861
(iplugins.pylisp
ConsCell
p2993
(dp2994
g2855
(iplugins.pylisp
String
p2995
(dp2996
g2909
S'om'
p2997
sbsg2861
(iplugins.pylisp
ConsCell
p2998
(dp2999
g2855
(iplugins.pylisp
ConsCell
p3000
(dp3001
g2855
(iplugins.pylisp
Symbol
p3002
(dp3003
g843
S'str-append'
p3004
sbsg2861
(iplugins.pylisp
ConsCell
p3005
(dp3006
g2855
(iplugins.pylisp
String
p3007
(dp3008
g2909
g2948
sbsg2861
(iplugins.pylisp
ConsCell
p3009
(dp3010
g2855
(iplugins.pylisp
ConsCell
p3011
(dp3012
g2855
(iplugins.pylisp
Symbol
p3013
(dp3014
g843
S'next'
p3015
sbsg2861
(iplugins.pylisp
ConsCell
p3016
(dp3017
g2855
(iplugins.pylisp
ConsCell
p3018
(dp3019
g2855
(iplugins.pylisp
Symbol
p3020
(dp3021
g843
g2948
sbsg2861
(iplugins.pylisp
ConsCell
p3022
(dp3023
g2855
(iplugins.pylisp
Symbol
p3024
(dp3025
g843
g2884
sbsg2861
(iplugins.pylisp
ConsCell
p3026
(dp3027
g2855
(iplugins.pylisp
Integer
p3028
(dp3029
g2909
I1
sbsg2861
(iplugins.pylisp
Nil
p3030
(dp3031
bsbsbsbsg2861
(iplugins.pylisp
Nil
p3032
(dp3033
bsbsbsg2861
(iplugins.pylisp
Nil
p3034
(dp3035
bsbsbsbsg2861
(iplugins.pylisp
Nil
p3036
(dp3037
bsbsbsbsg2861
(iplugins.pylisp
Nil
p3038
(dp3039
bsbsbsbsg2861
(iplugins.pylisp
Nil
p3040
(dp3041
bsbsbsS'parameters'
p3042
(iplugins.pylisp
ConsCell
p3043
(dp3044
g2855
(iplugins.pylisp
Symbol
p3045
(dp3046
g843
g2884
sbsg2861
(iplugins.pylisp
Nil
p3047
(dp3048
bsbsS'env'
p3049
g0
sbs(iplugins.pylisp
Symbol
p3050
(dp3051
g858
S'nom-mat-mat-mat-mat'
p3052
sb(iplugins.pylisp
Lambda
p3053
(dp3054
g847
(iplugins.pylisp
ExpressionBody
p3055
(dp3056
g850
(iplugins.pylisp
ConsCell
p3057
(dp3058
g853
(iplugins.pylisp
ConsCell
p3059
(dp3060
g853
(iplugins.pylisp
Symbol
p3061
(dp3062
g858
S'nom-mat-n'
p3063
sbsg860
(iplugins.pylisp
ConsCell
p3064
(dp3065
g853
(iplugins.pylisp
Integer
p3066
(dp3067
g865
I4
sbsg860
(iplugins.pylisp
Nil
p3068
(dp3069
bsbsbsg860
(iplugins.pylisp
Nil
p3070
(dp3071
bsbsbsg870
(iplugins.pylisp
Nil
p3072
(dp3073
bsg873
g0
sbs(iplugins.pylisp
Symbol
p3074
(dp3075
g2451
S'eight-ball'
p3076
sb(iplugins.pylisp
Integer
p3077
(dp3078
g2477
I123
sbs(iplugins.pylisp
Symbol
p3079
(dp3080
g1632
S'olol'
p3081
sb(iplugins.pylisp
Lambda
p3082
(dp3083
S'expression'
p3084
(iplugins.pylisp
ExpressionBody
p3085
(dp3086
S'expressions'
p3087
(iplugins.pylisp
ConsCell
p3088
(dp3089
S'car'
p3090
(iplugins.pylisp
ConsCell
p3091
(dp3092
g3090
(iplugins.pylisp
Symbol
p3093
(dp3094
g1632
S'command'
p3095
sbsS'cdr'
p3096
(iplugins.pylisp
ConsCell
p3097
(dp3098
g3090
(iplugins.pylisp
String
p3099
(dp3100
S'value'
p3101
S'title'
p3102
sbsg3096
(iplugins.pylisp
ConsCell
p3103
(dp3104
g3090
(iplugins.pylisp
ConsCell
p3105
(dp3106
g3090
(iplugins.pylisp
Symbol
p3107
(dp3108
g1632
S'command'
p3109
sbsg3096
(iplugins.pylisp
ConsCell
p3110
(dp3111
g3090
(iplugins.pylisp
String
p3112
(dp3113
g3101
S'gch'
p3114
sbsg3096
(iplugins.pylisp
ConsCell
p3115
(dp3116
g3090
(iplugins.pylisp
Symbol
p3117
(dp3118
g1632
S'param'
p3119
sbsg3096
(iplugins.pylisp
Nil
p3120
(dp3121
bsbsbsbsg3096
(iplugins.pylisp
Nil
p3122
(dp3123
bsbsbsbsg3096
(iplugins.pylisp
Nil
p3124
(dp3125
bsbsbsS'parameters'
p3126
(iplugins.pylisp
ConsCell
p3127
(dp3128
g3090
(iplugins.pylisp
Symbol
p3129
(dp3130
g1632
S'param'
p3131
sbsg3096
(iplugins.pylisp
Nil
p3132
(dp3133
bsbsS'env'
p3134
g0
sbs(iplugins.pylisp
Symbol
p3135
(dp3136
g1639
S'boobs'
p3137
sb(iplugins.pylisp
ConsCell
p3138
(dp3139
g1649
(iplugins.pylisp
Symbol
p3140
(dp3141
g1639
S'\xc2\xa0'
p3142
sbsg1655
(iplugins.pylisp
ConsCell
p3143
(dp3144
g1649
(iplugins.pylisp
Symbol
p3145
(dp3146
g1639
S'\xc2\xb7'
p3147
sbsg1655
(iplugins.pylisp
ConsCell
p3148
(dp3149
g1649
(iplugins.pylisp
Symbol
p3150
(dp3151
g1639
S'\xc2\xa0Y\xc2\xa0'
p3152
sbsg1655
(iplugins.pylisp
ConsCell
p3153
(dp3154
g1649
(iplugins.pylisp
Symbol
p3155
(dp3156
g1639
S'\xc2\xb7'
p3157
sbsg1655
(iplugins.pylisp
ConsCell
p3158
(dp3159
g1649
(iplugins.pylisp
Symbol
p3160
(dp3161
g1639
S'\xc2\xa0'
p3162
sbsg1655
(iplugins.pylisp
Nil
p3163
(dp3164
bsbsbsbsbsbs(iplugins.pylisp
Symbol
p3165
(dp3166
g2074
S'boll'
p3167
sb(iplugins.pylisp
Integer
p3168
(dp3169
S'value'
p3170
I3
sbs(iplugins.pylisp
Symbol
p3171
(dp3172
g420
S'blubb'
p3173
sb(iplugins.pylisp
Lambda
p3174
(dp3175
S'expression'
p3176
(iplugins.pylisp
ExpressionBody
p3177
(dp3178
S'expressions'
p3179
(iplugins.pylisp
ConsCell
p3180
(dp3181
S'car'
p3182
(iplugins.pylisp
Symbol
p3183
(dp3184
S'name'
p3185
S'blubb'
p3186
sbsS'cdr'
p3187
(iplugins.pylisp
Nil
p3188
(dp3189
bsbsbsS'parameters'
p3190
(iplugins.pylisp
Nil
p3191
(dp3192
bsS'env'
p3193
g0
sbs(iplugins.pylisp
Symbol
p3194
(dp3195
g2451
S'nth'
p3196
sb(iplugins.pylisp
Lambda
p3197
(dp3198
S'expression'
p3199
(iplugins.pylisp
ExpressionBody
p3200
(dp3201
S'expressions'
p3202
(iplugins.pylisp
ConsCell
p3203
(dp3204
S'car'
p3205
(iplugins.pylisp
ConsCell
p3206
(dp3207
g3205
(iplugins.pylisp
Symbol
p3208
(dp3209
S'name'
p3210
S'if'
p3211
sbsS'cdr'
p3212
(iplugins.pylisp
ConsCell
p3213
(dp3214
g3205
(iplugins.pylisp
ConsCell
p3215
(dp3216
g3205
(iplugins.pylisp
Symbol
p3217
(dp3218
g3210
S'='
p3219
sbsg3212
(iplugins.pylisp
ConsCell
p3220
(dp3221
g3205
(iplugins.pylisp
Symbol
p3222
(dp3223
g3210
S'n'
p3224
sbsg3212
(iplugins.pylisp
ConsCell
p3225
(dp3226
g3205
(iplugins.pylisp
Integer
p3227
(dp3228
S'value'
p3229
I0
sbsg3212
(iplugins.pylisp
Nil
p3230
(dp3231
bsbsbsbsg3212
(iplugins.pylisp
ConsCell
p3232
(dp3233
g3205
(iplugins.pylisp
ConsCell
p3234
(dp3235
g3205
(iplugins.pylisp
Symbol
p3236
(dp3237
g3210
S'car'
p3238
sbsg3212
(iplugins.pylisp
ConsCell
p3239
(dp3240
g3205
(iplugins.pylisp
Symbol
p3241
(dp3242
g3210
S'l'
p3243
sbsg3212
(iplugins.pylisp
Nil
p3244
(dp3245
bsbsbsg3212
(iplugins.pylisp
ConsCell
p3246
(dp3247
g3205
(iplugins.pylisp
ConsCell
p3248
(dp3249
g3205
(iplugins.pylisp
Symbol
p3250
(dp3251
g3210
S'nth'
p3252
sbsg3212
(iplugins.pylisp
ConsCell
p3253
(dp3254
g3205
(iplugins.pylisp
ConsCell
p3255
(dp3256
g3205
(iplugins.pylisp
Symbol
p3257
(dp3258
g3210
S'-'
p3259
sbsg3212
(iplugins.pylisp
ConsCell
p3260
(dp3261
g3205
(iplugins.pylisp
Symbol
p3262
(dp3263
g3210
g3224
sbsg3212
(iplugins.pylisp
ConsCell
p3264
(dp3265
g3205
(iplugins.pylisp
Integer
p3266
(dp3267
g3229
I1
sbsg3212
(iplugins.pylisp
Nil
p3268
(dp3269
bsbsbsbsg3212
(iplugins.pylisp
ConsCell
p3270
(dp3271
g3205
(iplugins.pylisp
ConsCell
p3272
(dp3273
g3205
(iplugins.pylisp
Symbol
p3274
(dp3275
g3210
S'rest'
p3276
sbsg3212
(iplugins.pylisp
ConsCell
p3277
(dp3278
g3205
(iplugins.pylisp
Symbol
p3279
(dp3280
g3210
g3243
sbsg3212
(iplugins.pylisp
Nil
p3281
(dp3282
bsbsbsg3212
(iplugins.pylisp
Nil
p3283
(dp3284
bsbsbsbsg3212
(iplugins.pylisp
Nil
p3285
(dp3286
bsbsbsbsbsg3212
(iplugins.pylisp
Nil
p3287
(dp3288
bsbsbsS'parameters'
p3289
(iplugins.pylisp
ConsCell
p3290
(dp3291
g3205
(iplugins.pylisp
Symbol
p3292
(dp3293
g3210
g3224
sbsg3212
(iplugins.pylisp
ConsCell
p3294
(dp3295
g3205
(iplugins.pylisp
Symbol
p3296
(dp3297
g3210
g3243
sbsg3212
(iplugins.pylisp
Nil
p3298
(dp3299
bsbsbsS'env'
p3300
g0
sbs(iplugins.pylisp
Symbol
p3301
(dp3302
g114
S'addschema+sched4'
p3303
sb(iplugins.pylisp
Lambda
p3304
(dp3305
g118
(iplugins.pylisp
ExpressionBody
p3306
(dp3307
g121
(iplugins.pylisp
ConsCell
p3308
(dp3309
g124
(iplugins.pylisp
ConsCell
p3310
(dp3311
g124
(iplugins.pylisp
Symbol
p3312
(dp3313
g114
S'command'
p3314
sbsg130
(iplugins.pylisp
ConsCell
p3315
(dp3316
g124
(iplugins.pylisp
String
p3317
(dp3318
S'value'
p3319
S'addschemaid'
p3320
sbsg130
(iplugins.pylisp
ConsCell
p3321
(dp3322
g124
(iplugins.pylisp
ConsCell
p3323
(dp3324
g124
(iplugins.pylisp
Symbol
p3325
(dp3326
g114
S'str-join'
p3327
sbsg130
(iplugins.pylisp
ConsCell
p3328
(dp3329
g124
(iplugins.pylisp
ConsCell
p3330
(dp3331
g124
(iplugins.pylisp
Symbol
p3332
(dp3333
g114
S'list'
p3334
sbsg130
(iplugins.pylisp
ConsCell
p3335
(dp3336
g124
(iplugins.pylisp
Symbol
p3337
(dp3338
g114
S'id'
p3339
sbsg130
(iplugins.pylisp
ConsCell
p3340
(dp3341
g124
(iplugins.pylisp
ConsCell
p3342
(dp3343
g124
(iplugins.pylisp
Symbol
p3344
(dp3345
g114
S'command'
p3346
sbsg130
(iplugins.pylisp
ConsCell
p3347
(dp3348
g124
(iplugins.pylisp
String
p3349
(dp3350
g3319
S'sched4'
p3351
sbsg130
(iplugins.pylisp
ConsCell
p3352
(dp3353
g124
(iplugins.pylisp
Symbol
p3354
(dp3355
g114
S'courses'
p3356
sbsg130
(iplugins.pylisp
Nil
p3357
(dp3358
bsbsbsbsg130
(iplugins.pylisp
Nil
p3359
(dp3360
bsbsbsbsg130
(iplugins.pylisp
ConsCell
p3361
(dp3362
g124
(iplugins.pylisp
String
p3363
(dp3364
g3319
S' '
p3365
sbsg130
(iplugins.pylisp
Nil
p3366
(dp3367
bsbsbsbsg130
(iplugins.pylisp
Nil
p3368
(dp3369
bsbsbsbsg130
(iplugins.pylisp
Nil
p3370
(dp3371
bsbsbsg218
(iplugins.pylisp
ConsCell
p3372
(dp3373
g124
(iplugins.pylisp
Symbol
p3374
(dp3375
g114
S'id'
p3376
sbsg130
(iplugins.pylisp
ConsCell
p3377
(dp3378
g124
(iplugins.pylisp
Symbol
p3379
(dp3380
g114
S'courses'
p3381
sbsg130
(iplugins.pylisp
Nil
p3382
(dp3383
bsbsbsg229
g0
sbs(iplugins.pylisp
Symbol
p3384
(dp3385
g6
S'nom-mat'
p3386
sb(iplugins.pylisp
Lambda
p3387
(dp3388
g10
(iplugins.pylisp
ExpressionBody
p3389
(dp3390
g13
(iplugins.pylisp
ConsCell
p3391
(dp3392
g16
(iplugins.pylisp
ConsCell
p3393
(dp3394
g16
(iplugins.pylisp
Symbol
p3395
(dp3396
g6
S'nomrate'
p3397
sbsg22
(iplugins.pylisp
ConsCell
p3398
(dp3399
g16
(iplugins.pylisp
ConsCell
p3400
(dp3401
g16
(iplugins.pylisp
Symbol
p3402
(dp3403
g6
S'matnamn'
p3404
sbsg22
(iplugins.pylisp
Nil
p3405
(dp3406
bsbsg22
(iplugins.pylisp
Nil
p3407
(dp3408
bsbsbsg22
(iplugins.pylisp
Nil
p3409
(dp3410
bsbsbsg94
(iplugins.pylisp
Nil
p3411
(dp3412
bsg105
g0
sbs(iplugins.pylisp
Symbol
p3413
(dp3414
g232
S'caar'
p3415
sb(iplugins.pylisp
Lambda
p3416
(dp3417
g880
(iplugins.pylisp
ExpressionBody
p3418
(dp3419
g883
(iplugins.pylisp
ConsCell
p3420
(dp3421
g886
(iplugins.pylisp
ConsCell
p3422
(dp3423
g886
(iplugins.pylisp
Symbol
p3424
(dp3425
g232
S'car'
p3426
sbsg239
(iplugins.pylisp
ConsCell
p3427
(dp3428
g886
(iplugins.pylisp
ConsCell
p3429
(dp3430
g886
(iplugins.pylisp
Symbol
p3431
(dp3432
g232
S'car'
p3433
sbsg239
(iplugins.pylisp
ConsCell
p3434
(dp3435
g886
(iplugins.pylisp
Symbol
p3436
(dp3437
g232
g903
sbsg239
(iplugins.pylisp
Nil
p3438
(dp3439
bsbsbsg239
(iplugins.pylisp
Nil
p3440
(dp3441
bsbsbsg239
(iplugins.pylisp
Nil
p3442
(dp3443
bsbsbsg958
(iplugins.pylisp
ConsCell
p3444
(dp3445
g886
(iplugins.pylisp
Symbol
p3446
(dp3447
g232
g903
sbsg239
(iplugins.pylisp
Nil
p3448
(dp3449
bsbsg965
g0
sbs(iplugins.pylisp
Symbol
p3450
(dp3451
g2759
S'c'
p3452
sb(iplugins.pylisp
Symbol
p3453
(dp3454
g2759
S'feta'
p3455
sbs(iplugins.pylisp
Symbol
p3456
(dp3457
g2074
S'*random-number*'
p3458
sb(iplugins.pylisp
Integer
p3459
(dp3460
g3170
I4
sbs(iplugins.pylisp
Symbol
p3461
(dp3462
g843
S'omnomme'
p3463
sb(iplugins.pylisp
Lambda
p3464
(dp3465
g2849
(iplugins.pylisp
ExpressionBody
p3466
(dp3467
g2852
(iplugins.pylisp
ConsCell
p3468
(dp3469
g2855
(iplugins.pylisp
ConsCell
p3470
(dp3471
g2855
(iplugins.pylisp
Symbol
p3472
(dp3473
g843
S'let'
p3474
sbsg2861
(iplugins.pylisp
ConsCell
p3475
(dp3476
g2855
(iplugins.pylisp
ConsCell
p3477
(dp3478
g2855
(iplugins.pylisp
ConsCell
p3479
(dp3480
g2855
(iplugins.pylisp
Symbol
p3481
(dp3482
g843
S'next'
p3483
sbsg2861
(iplugins.pylisp
ConsCell
p3484
(dp3485
g2855
(iplugins.pylisp
ConsCell
p3486
(dp3487
g2855
(iplugins.pylisp
Symbol
p3488
(dp3489
g843
S'lambda'
p3490
sbsg2861
(iplugins.pylisp
ConsCell
p3491
(dp3492
g2855
(iplugins.pylisp
ConsCell
p3493
(dp3494
g2855
(iplugins.pylisp
Symbol
p3495
(dp3496
g843
g2884
sbsg2861
(iplugins.pylisp
Nil
p3497
(dp3498
bsbsg2861
(iplugins.pylisp
ConsCell
p3499
(dp3500
g2855
(iplugins.pylisp
ConsCell
p3501
(dp3502
g2855
(iplugins.pylisp
Symbol
p3503
(dp3504
g843
S'if'
p3505
sbsg2861
(iplugins.pylisp
ConsCell
p3506
(dp3507
g2855
(iplugins.pylisp
ConsCell
p3508
(dp3509
g2855
(iplugins.pylisp
Symbol
p3510
(dp3511
g843
S'<='
p3512
sbsg2861
(iplugins.pylisp
ConsCell
p3513
(dp3514
g2855
(iplugins.pylisp
Symbol
p3515
(dp3516
g843
g2884
sbsg2861
(iplugins.pylisp
ConsCell
p3517
(dp3518
g2855
(iplugins.pylisp
Integer
p3519
(dp3520
g2909
I0
sbsg2861
(iplugins.pylisp
Nil
p3521
(dp3522
bsbsbsbsg2861
(iplugins.pylisp
ConsCell
p3523
(dp3524
g2855
(iplugins.pylisp
String
p3525
(dp3526
g2909
S'NOM'
p3527
sbsg2861
(iplugins.pylisp
ConsCell
p3528
(dp3529
g2855
(iplugins.pylisp
ConsCell
p3530
(dp3531
g2855
(iplugins.pylisp
Symbol
p3532
(dp3533
g843
S'str-append'
p3534
sbsg2861
(iplugins.pylisp
ConsCell
p3535
(dp3536
g2855
(iplugins.pylisp
ConsCell
p3537
(dp3538
g2855
(iplugins.pylisp
Symbol
p3539
(dp3540
g843
S'str-append'
p3541
sbsg2861
(iplugins.pylisp
ConsCell
p3542
(dp3543
g2855
(iplugins.pylisp
ConsCell
p3544
(dp3545
g2855
(iplugins.pylisp
Symbol
p3546
(dp3547
g843
S'nom-gen'
p3548
sbsg2861
(iplugins.pylisp
Nil
p3549
(dp3550
bsbsg2861
(iplugins.pylisp
ConsCell
p3551
(dp3552
g2855
(iplugins.pylisp
String
p3553
(dp3554
g2909
g2948
sbsg2861
(iplugins.pylisp
Nil
p3555
(dp3556
bsbsbsbsg2861
(iplugins.pylisp
ConsCell
p3557
(dp3558
g2855
(iplugins.pylisp
ConsCell
p3559
(dp3560
g2855
(iplugins.pylisp
Symbol
p3561
(dp3562
g843
S'next'
p3563
sbsg2861
(iplugins.pylisp
ConsCell
p3564
(dp3565
g2855
(iplugins.pylisp
ConsCell
p3566
(dp3567
g2855
(iplugins.pylisp
Symbol
p3568
(dp3569
g843
g2948
sbsg2861
(iplugins.pylisp
ConsCell
p3570
(dp3571
g2855
(iplugins.pylisp
Symbol
p3572
(dp3573
g843
g2884
sbsg2861
(iplugins.pylisp
ConsCell
p3574
(dp3575
g2855
(iplugins.pylisp
Integer
p3576
(dp3577
g2909
I1
sbsg2861
(iplugins.pylisp
Nil
p3578
(dp3579
bsbsbsbsg2861
(iplugins.pylisp
Nil
p3580
(dp3581
bsbsbsg2861
(iplugins.pylisp
Nil
p3582
(dp3583
bsbsbsbsg2861
(iplugins.pylisp
Nil
p3584
(dp3585
bsbsbsbsbsg2861
(iplugins.pylisp
Nil
p3586
(dp3587
bsbsbsbsg2861
(iplugins.pylisp
Nil
p3588
(dp3589
bsbsbsg2861
(iplugins.pylisp
Nil
p3590
(dp3591
bsbsg2861
(iplugins.pylisp
ConsCell
p3592
(dp3593
g2855
(iplugins.pylisp
ConsCell
p3594
(dp3595
g2855
(iplugins.pylisp
Symbol
p3596
(dp3597
g843
S'str-append'
p3598
sbsg2861
(iplugins.pylisp
ConsCell
p3599
(dp3600
g2855
(iplugins.pylisp
String
p3601
(dp3602
g2909
S'om'
p3603
sbsg2861
(iplugins.pylisp
ConsCell
p3604
(dp3605
g2855
(iplugins.pylisp
ConsCell
p3606
(dp3607
g2855
(iplugins.pylisp
Symbol
p3608
(dp3609
g843
S'str-append'
p3610
sbsg2861
(iplugins.pylisp
ConsCell
p3611
(dp3612
g2855
(iplugins.pylisp
String
p3613
(dp3614
g2909
g2948
sbsg2861
(iplugins.pylisp
ConsCell
p3615
(dp3616
g2855
(iplugins.pylisp
ConsCell
p3617
(dp3618
g2855
(iplugins.pylisp
Symbol
p3619
(dp3620
g843
S'next'
p3621
sbsg2861
(iplugins.pylisp
ConsCell
p3622
(dp3623
g2855
(iplugins.pylisp
ConsCell
p3624
(dp3625
g2855
(iplugins.pylisp
Symbol
p3626
(dp3627
g843
g2948
sbsg2861
(iplugins.pylisp
ConsCell
p3628
(dp3629
g2855
(iplugins.pylisp
Symbol
p3630
(dp3631
g843
g2884
sbsg2861
(iplugins.pylisp
ConsCell
p3632
(dp3633
g2855
(iplugins.pylisp
Integer
p3634
(dp3635
g2909
I1
sbsg2861
(iplugins.pylisp
Nil
p3636
(dp3637
bsbsbsbsg2861
(iplugins.pylisp
Nil
p3638
(dp3639
bsbsbsg2861
(iplugins.pylisp
Nil
p3640
(dp3641
bsbsbsbsg2861
(iplugins.pylisp
Nil
p3642
(dp3643
bsbsbsbsg2861
(iplugins.pylisp
Nil
p3644
(dp3645
bsbsbsbsg2861
(iplugins.pylisp
Nil
p3646
(dp3647
bsbsbsg3042
(iplugins.pylisp
ConsCell
p3648
(dp3649
g2855
(iplugins.pylisp
Symbol
p3650
(dp3651
g843
g2884
sbsg2861
(iplugins.pylisp
Nil
p3652
(dp3653
bsbsg3049
g0
sbs(iplugins.pylisp
Symbol
p3654
(dp3655
g2759
S'postlund'
p3656
sb(iplugins.pylisp
String
p3657
(dp3658
g39
S'B========================================================================================================================D'
p3659
sbs(iplugins.pylisp
Symbol
p3660
(dp3661
g1639
S'filter'
p3662
sb(iplugins.pylisp
Lambda
p3663
(dp3664
g1643
(iplugins.pylisp
ExpressionBody
p3665
(dp3666
g1646
(iplugins.pylisp
ConsCell
p3667
(dp3668
g1649
(iplugins.pylisp
ConsCell
p3669
(dp3670
g1649
(iplugins.pylisp
Symbol
p3671
(dp3672
g1639
S'if'
p3673
sbsg1655
(iplugins.pylisp
ConsCell
p3674
(dp3675
g1649
(iplugins.pylisp
ConsCell
p3676
(dp3677
g1649
(iplugins.pylisp
Symbol
p3678
(dp3679
g1639
S'endp'
p3680
sbsg1655
(iplugins.pylisp
ConsCell
p3681
(dp3682
g1649
(iplugins.pylisp
Symbol
p3683
(dp3684
g1639
g1868
sbsg1655
(iplugins.pylisp
Nil
p3685
(dp3686
bsbsbsg1655
(iplugins.pylisp
ConsCell
p3687
(dp3688
g1649
(iplugins.pylisp
Symbol
p3689
(dp3690
g1639
S'nil'
p3691
sbsg1655
(iplugins.pylisp
ConsCell
p3692
(dp3693
g1649
(iplugins.pylisp
ConsCell
p3694
(dp3695
g1649
(iplugins.pylisp
Symbol
p3696
(dp3697
g1639
S'if'
p3698
sbsg1655
(iplugins.pylisp
ConsCell
p3699
(dp3700
g1649
(iplugins.pylisp
ConsCell
p3701
(dp3702
g1649
(iplugins.pylisp
Symbol
p3703
(dp3704
g1639
g1892
sbsg1655
(iplugins.pylisp
ConsCell
p3705
(dp3706
g1649
(iplugins.pylisp
ConsCell
p3707
(dp3708
g1649
(iplugins.pylisp
Symbol
p3709
(dp3710
g1639
S'car'
p3711
sbsg1655
(iplugins.pylisp
ConsCell
p3712
(dp3713
g1649
(iplugins.pylisp
Symbol
p3714
(dp3715
g1639
g1868
sbsg1655
(iplugins.pylisp
Nil
p3716
(dp3717
bsbsbsg1655
(iplugins.pylisp
Nil
p3718
(dp3719
bsbsbsg1655
(iplugins.pylisp
ConsCell
p3720
(dp3721
g1649
(iplugins.pylisp
ConsCell
p3722
(dp3723
g1649
(iplugins.pylisp
Symbol
p3724
(dp3725
g1639
S'cons'
p3726
sbsg1655
(iplugins.pylisp
ConsCell
p3727
(dp3728
g1649
(iplugins.pylisp
ConsCell
p3729
(dp3730
g1649
(iplugins.pylisp
Symbol
p3731
(dp3732
g1639
S'car'
p3733
sbsg1655
(iplugins.pylisp
ConsCell
p3734
(dp3735
g1649
(iplugins.pylisp
Symbol
p3736
(dp3737
g1639
g1868
sbsg1655
(iplugins.pylisp
Nil
p3738
(dp3739
bsbsbsg1655
(iplugins.pylisp
ConsCell
p3740
(dp3741
g1649
(iplugins.pylisp
ConsCell
p3742
(dp3743
g1649
(iplugins.pylisp
Symbol
p3744
(dp3745
g1639
S'filter'
p3746
sbsg1655
(iplugins.pylisp
ConsCell
p3747
(dp3748
g1649
(iplugins.pylisp
Symbol
p3749
(dp3750
g1639
g1892
sbsg1655
(iplugins.pylisp
ConsCell
p3751
(dp3752
g1649
(iplugins.pylisp
ConsCell
p3753
(dp3754
g1649
(iplugins.pylisp
Symbol
p3755
(dp3756
g1639
S'cdr'
p3757
sbsg1655
(iplugins.pylisp
ConsCell
p3758
(dp3759
g1649
(iplugins.pylisp
Symbol
p3760
(dp3761
g1639
g1868
sbsg1655
(iplugins.pylisp
Nil
p3762
(dp3763
bsbsbsg1655
(iplugins.pylisp
Nil
p3764
(dp3765
bsbsbsbsg1655
(iplugins.pylisp
Nil
p3766
(dp3767
bsbsbsbsg1655
(iplugins.pylisp
ConsCell
p3768
(dp3769
g1649
(iplugins.pylisp
ConsCell
p3770
(dp3771
g1649
(iplugins.pylisp
Symbol
p3772
(dp3773
g1639
S'filter'
p3774
sbsg1655
(iplugins.pylisp
ConsCell
p3775
(dp3776
g1649
(iplugins.pylisp
Symbol
p3777
(dp3778
g1639
g1892
sbsg1655
(iplugins.pylisp
ConsCell
p3779
(dp3780
g1649
(iplugins.pylisp
ConsCell
p3781
(dp3782
g1649
(iplugins.pylisp
Symbol
p3783
(dp3784
g1639
S'cdr'
p3785
sbsg1655
(iplugins.pylisp
ConsCell
p3786
(dp3787
g1649
(iplugins.pylisp
Symbol
p3788
(dp3789
g1639
g1868
sbsg1655
(iplugins.pylisp
Nil
p3790
(dp3791
bsbsbsg1655
(iplugins.pylisp
Nil
p3792
(dp3793
bsbsbsbsg1655
(iplugins.pylisp
Nil
p3794
(dp3795
bsbsbsbsbsg1655
(iplugins.pylisp
Nil
p3796
(dp3797
bsbsbsbsbsg1655
(iplugins.pylisp
Nil
p3798
(dp3799
bsbsbsg1671
(iplugins.pylisp
ConsCell
p3800
(dp3801
g1649
(iplugins.pylisp
Symbol
p3802
(dp3803
g1639
g1892
sbsg1655
(iplugins.pylisp
ConsCell
p3804
(dp3805
g1649
(iplugins.pylisp
Symbol
p3806
(dp3807
g1639
g1868
sbsg1655
(iplugins.pylisp
Nil
p3808
(dp3809
bsbsbsg1678
g0
sbs(iplugins.pylisp
Symbol
p3810
(dp3811
g2759
S'length'
p3812
sb(iplugins.pylisp
Lambda
p3813
(dp3814
S'expression'
p3815
(iplugins.pylisp
ExpressionBody
p3816
(dp3817
S'expressions'
p3818
(iplugins.pylisp
ConsCell
p3819
(dp3820
S'car'
p3821
(iplugins.pylisp
ConsCell
p3822
(dp3823
g3821
(iplugins.pylisp
Symbol
p3824
(dp3825
g2759
S'if'
p3826
sbsS'cdr'
p3827
(iplugins.pylisp
ConsCell
p3828
(dp3829
g3821
(iplugins.pylisp
ConsCell
p3830
(dp3831
g3821
(iplugins.pylisp
Symbol
p3832
(dp3833
g2759
S'endp'
p3834
sbsg3827
(iplugins.pylisp
ConsCell
p3835
(dp3836
g3821
(iplugins.pylisp
Symbol
p3837
(dp3838
g2759
S'l'
p3839
sbsg3827
(iplugins.pylisp
Nil
p3840
(dp3841
bsbsbsg3827
(iplugins.pylisp
ConsCell
p3842
(dp3843
g3821
(iplugins.pylisp
Integer
p3844
(dp3845
S'value'
p3846
I0
sbsg3827
(iplugins.pylisp
ConsCell
p3847
(dp3848
g3821
(iplugins.pylisp
ConsCell
p3849
(dp3850
g3821
(iplugins.pylisp
Symbol
p3851
(dp3852
g2759
S'-'
p3853
sbsg3827
(iplugins.pylisp
ConsCell
p3854
(dp3855
g3821
(iplugins.pylisp
Integer
p3856
(dp3857
g3846
I1
sbsg3827
(iplugins.pylisp
ConsCell
p3858
(dp3859
g3821
(iplugins.pylisp
ConsCell
p3860
(dp3861
g3821
(iplugins.pylisp
Symbol
p3862
(dp3863
g2759
g3853
sbsg3827
(iplugins.pylisp
ConsCell
p3864
(dp3865
g3821
(iplugins.pylisp
Integer
p3866
(dp3867
g3846
I0
sbsg3827
(iplugins.pylisp
ConsCell
p3868
(dp3869
g3821
(iplugins.pylisp
ConsCell
p3870
(dp3871
g3821
(iplugins.pylisp
Symbol
p3872
(dp3873
g2759
S'length'
p3874
sbsg3827
(iplugins.pylisp
ConsCell
p3875
(dp3876
g3821
(iplugins.pylisp
ConsCell
p3877
(dp3878
g3821
(iplugins.pylisp
Symbol
p3879
(dp3880
g2759
S'cdr'
p3881
sbsg3827
(iplugins.pylisp
ConsCell
p3882
(dp3883
g3821
(iplugins.pylisp
Symbol
p3884
(dp3885
g2759
g3839
sbsg3827
(iplugins.pylisp
Nil
p3886
(dp3887
bsbsbsg3827
(iplugins.pylisp
Nil
p3888
(dp3889
bsbsbsg3827
(iplugins.pylisp
Nil
p3890
(dp3891
bsbsbsbsg3827
(iplugins.pylisp
Nil
p3892
(dp3893
bsbsbsbsg3827
(iplugins.pylisp
Nil
p3894
(dp3895
bsbsbsbsbsg3827
(iplugins.pylisp
Nil
p3896
(dp3897
bsbsbsS'parameters'
p3898
(iplugins.pylisp
ConsCell
p3899
(dp3900
g3821
(iplugins.pylisp
Symbol
p3901
(dp3902
g2759
g3839
sbsg3827
(iplugins.pylisp
Nil
p3903
(dp3904
bsbsS'env'
p3905
g0
sbs(iplugins.pylisp
Symbol
p3906
(dp3907
g232
S'first'
p3908
sb(iplugins.pylisp
NativeFunction
p3909
(dp3910
g236
cplugins.pylisp
car_func
p3911
sg238
I1
sg232
g886
sbs(iplugins.pylisp
Quoted
p3912
(dp3913
S'quoted_expression'
p3914
(iplugins.pylisp
Symbol
p3915
(dp3916
g968
g989
sbsb(iplugins.pylisp
Integer
p3917
(dp3918
g994
I2
sbs(iplugins.pylisp
Symbol
p3919
(dp3920
g420
S'cadr'
p3921
sb(iplugins.pylisp
Lambda
p3922
(dp3923
g1802
(iplugins.pylisp
ExpressionBody
p3924
(dp3925
g1805
(iplugins.pylisp
ConsCell
p3926
(dp3927
g424
(iplugins.pylisp
ConsCell
p3928
(dp3929
g424
(iplugins.pylisp
Symbol
p3930
(dp3931
g420
S'car'
p3932
sbsg428
(iplugins.pylisp
ConsCell
p3933
(dp3934
g424
(iplugins.pylisp
ConsCell
p3935
(dp3936
g424
(iplugins.pylisp
Symbol
p3937
(dp3938
g420
S'cdr'
p3939
sbsg428
(iplugins.pylisp
ConsCell
p3940
(dp3941
g424
(iplugins.pylisp
Symbol
p3942
(dp3943
g420
S'l'
p3944
sbsg428
(iplugins.pylisp
Nil
p3945
(dp3946
bsbsbsg428
(iplugins.pylisp
Nil
p3947
(dp3948
bsbsbsg428
(iplugins.pylisp
Nil
p3949
(dp3950
bsbsbsg1822
(iplugins.pylisp
ConsCell
p3951
(dp3952
g424
(iplugins.pylisp
Symbol
p3953
(dp3954
g420
g3944
sbsg428
(iplugins.pylisp
Nil
p3955
(dp3956
bsbsg1825
g0
sbs(iplugins.pylisp
Symbol
p3957
(dp3958
g114
S'pickmat'
p3959
sb(iplugins.pylisp
Lambda
p3960
(dp3961
g447
(iplugins.pylisp
ExpressionBody
p3962
(dp3963
g450
(iplugins.pylisp
ConsCell
p3964
(dp3965
g453
(iplugins.pylisp
ConsCell
p3966
(dp3967
g453
(iplugins.pylisp
Symbol
p3968
(dp3969
g443
S'let'
p3970
sbsg459
(iplugins.pylisp
ConsCell
p3971
(dp3972
g453
(iplugins.pylisp
ConsCell
p3973
(dp3974
g453
(iplugins.pylisp
ConsCell
p3975
(dp3976
g453
(iplugins.pylisp
Symbol
p3977
(dp3978
g443
S'mater'
p3979
sbsg459
(iplugins.pylisp
ConsCell
p3980
(dp3981
g453
(iplugins.pylisp
ConsCell
p3982
(dp3983
g453
(iplugins.pylisp
Symbol
p3984
(dp3985
g443
S'str-split'
p3986
sbsg459
(iplugins.pylisp
ConsCell
p3987
(dp3988
g453
(iplugins.pylisp
ConsCell
p3989
(dp3990
g453
(iplugins.pylisp
Symbol
p3991
(dp3992
g443
S'str-append'
p3993
sbsg459
(iplugins.pylisp
ConsCell
p3994
(dp3995
g453
(iplugins.pylisp
ConsCell
p3996
(dp3997
g453
(iplugins.pylisp
Symbol
p3998
(dp3999
g443
S'command'
p4000
sbsg459
(iplugins.pylisp
ConsCell
p4001
(dp4002
g453
(iplugins.pylisp
String
p4003
(dp4004
g476
S'mat'
p4005
sbsg459
(iplugins.pylisp
ConsCell
p4006
(dp4007
g453
(iplugins.pylisp
String
p4008
(dp4009
g476
S'liu'
p4010
sbsg459
(iplugins.pylisp
Nil
p4011
(dp4012
bsbsbsbsg459
(iplugins.pylisp
ConsCell
p4013
(dp4014
g453
(iplugins.pylisp
String
p4015
(dp4016
g476
S' | Pastavagnen | Matl\xc3\xa5da | Baljan: Jochen, Kaffe, Kl\xc3\xa4gg'
p4017
sbsg459
(iplugins.pylisp
Nil
p4018
(dp4019
bsbsbsbsg459
(iplugins.pylisp
ConsCell
p4020
(dp4021
g453
(iplugins.pylisp
String
p4022
(dp4023
g476
S' | '
p4024
sbsg459
(iplugins.pylisp
Nil
p4025
(dp4026
bsbsbsbsg459
(iplugins.pylisp
Nil
p4027
(dp4028
bsbsbsg459
(iplugins.pylisp
Nil
p4029
(dp4030
bsbsg459
(iplugins.pylisp
ConsCell
p4031
(dp4032
g453
(iplugins.pylisp
ConsCell
p4033
(dp4034
g453
(iplugins.pylisp
Symbol
p4035
(dp4036
g443
S'command'
p4037
sbsg459
(iplugins.pylisp
ConsCell
p4038
(dp4039
g453
(iplugins.pylisp
String
p4040
(dp4041
g476
S'pick'
p4042
sbsg459
(iplugins.pylisp
ConsCell
p4043
(dp4044
g453
(iplugins.pylisp
ConsCell
p4045
(dp4046
g453
(iplugins.pylisp
Symbol
p4047
(dp4048
g443
S'str-join'
p4049
sbsg459
(iplugins.pylisp
ConsCell
p4050
(dp4051
g453
(iplugins.pylisp
Symbol
p4052
(dp4053
g443
S'mater'
p4054
sbsg459
(iplugins.pylisp
ConsCell
p4055
(dp4056
g453
(iplugins.pylisp
String
p4057
(dp4058
g476
S' or '
p4059
sbsg459
(iplugins.pylisp
Nil
p4060
(dp4061
bsbsbsbsg459
(iplugins.pylisp
Nil
p4062
(dp4063
bsbsbsbsg459
(iplugins.pylisp
Nil
p4064
(dp4065
bsbsbsbsg459
(iplugins.pylisp
Nil
p4066
(dp4067
bsbsbsg575
(iplugins.pylisp
Nil
p4068
(dp4069
bsg587
g0
sbs(iplugins.pylisp
Symbol
p4070
(dp4071
g876
S'>='
p4072
sb(iplugins.pylisp
Lambda
p4073
(dp4074
S'expression'
p4075
(iplugins.pylisp
ExpressionBody
p4076
(dp4077
S'expressions'
p4078
(iplugins.pylisp
ConsCell
p4079
(dp4080
S'car'
p4081
(iplugins.pylisp
ConsCell
p4082
(dp4083
g4081
(iplugins.pylisp
Symbol
p4084
(dp4085
g876
S'or'
p4086
sbsS'cdr'
p4087
(iplugins.pylisp
ConsCell
p4088
(dp4089
g4081
(iplugins.pylisp
ConsCell
p4090
(dp4091
g4081
(iplugins.pylisp
Symbol
p4092
(dp4093
g876
S'>'
p4094
sbsg4087
(iplugins.pylisp
ConsCell
p4095
(dp4096
g4081
(iplugins.pylisp
Symbol
p4097
(dp4098
g876
S'a'
p4099
sbsg4087
(iplugins.pylisp
ConsCell
p4100
(dp4101
g4081
(iplugins.pylisp
Symbol
p4102
(dp4103
g876
S'b'
p4104
sbsg4087
(iplugins.pylisp
Nil
p4105
(dp4106
bsbsbsbsg4087
(iplugins.pylisp
ConsCell
p4107
(dp4108
g4081
(iplugins.pylisp
ConsCell
p4109
(dp4110
g4081
(iplugins.pylisp
Symbol
p4111
(dp4112
g876
S'='
p4113
sbsg4087
(iplugins.pylisp
ConsCell
p4114
(dp4115
g4081
(iplugins.pylisp
Symbol
p4116
(dp4117
g876
g4099
sbsg4087
(iplugins.pylisp
ConsCell
p4118
(dp4119
g4081
(iplugins.pylisp
Symbol
p4120
(dp4121
g876
g4104
sbsg4087
(iplugins.pylisp
Nil
p4122
(dp4123
bsbsbsbsg4087
(iplugins.pylisp
Nil
p4124
(dp4125
bsbsbsbsg4087
(iplugins.pylisp
Nil
p4126
(dp4127
bsbsbsS'parameters'
p4128
(iplugins.pylisp
ConsCell
p4129
(dp4130
g4081
(iplugins.pylisp
Symbol
p4131
(dp4132
g876
g4099
sbsg4087
(iplugins.pylisp
ConsCell
p4133
(dp4134
g4081
(iplugins.pylisp
Symbol
p4135
(dp4136
g876
g4104
sbsg4087
(iplugins.pylisp
Nil
p4137
(dp4138
bsbsbsS'env'
p4139
g0
sbs(iplugins.pylisp
Symbol
p4140
(dp4141
g2074
S's\xc3\xa4mst?'
p4142
sb(iplugins.pylisp
Lambda
p4143
(dp4144
S'expression'
p4145
(iplugins.pylisp
ExpressionBody
p4146
(dp4147
S'expressions'
p4148
(iplugins.pylisp
ConsCell
p4149
(dp4150
g2775
(iplugins.pylisp
ConsCell
p4151
(dp4152
g2775
(iplugins.pylisp
Symbol
p4153
(dp4154
g2074
S'eq'
p4155
sbsg2779
(iplugins.pylisp
ConsCell
p4156
(dp4157
g2775
(iplugins.pylisp
Symbol
p4158
(dp4159
g2074
S'person'
p4160
sbsg2779
(iplugins.pylisp
ConsCell
p4161
(dp4162
g2775
(iplugins.pylisp
Quoted
p4163
(dp4164
S'quoted_expression'
p4165
(iplugins.pylisp
Symbol
p4166
(dp4167
g2074
S'tjoff'
p4168
sbsbsg2779
(iplugins.pylisp
Nil
p4169
(dp4170
bsbsbsbsg2779
(iplugins.pylisp
Nil
p4171
(dp4172
bsbsbsS'parameters'
p4173
(iplugins.pylisp
ConsCell
p4174
(dp4175
g2775
(iplugins.pylisp
Symbol
p4176
(dp4177
g2074
S'person'
p4178
sbsg2779
(iplugins.pylisp
Nil
p4179
(dp4180
bsbsS'env'
p4181
g0
sbs(iplugins.pylisp
Symbol
p4182
(dp4183
g6
S'xyz'
p4184
sb(iplugins.pylisp
String
p4185
(dp4186
g39
S'\x02\x033,5F\xc3\x84RGER\x03\x02'
p4187
sbs(iplugins.pylisp
Symbol
p4188
(dp4189
g6
S'helpkuk'
p4190
sb(iplugins.pylisp
Lambda
p4191
(dp4192
g10
(iplugins.pylisp
ExpressionBody
p4193
(dp4194
g13
(iplugins.pylisp
ConsCell
p4195
(dp4196
g16
(iplugins.pylisp
ConsCell
p4197
(dp4198
g16
(iplugins.pylisp
Symbol
p4199
(dp4200
g6
S'if'
p4201
sbsg22
(iplugins.pylisp
ConsCell
p4202
(dp4203
g16
(iplugins.pylisp
ConsCell
p4204
(dp4205
g16
(iplugins.pylisp
Symbol
p4206
(dp4207
g6
g1545
sbsg22
(iplugins.pylisp
ConsCell
p4208
(dp4209
g16
(iplugins.pylisp
Symbol
p4210
(dp4211
g6
g34
sbsg22
(iplugins.pylisp
ConsCell
p4212
(dp4213
g16
(iplugins.pylisp
Integer
p4214
(dp4215
g39
I0
sbsg22
(iplugins.pylisp
Nil
p4216
(dp4217
bsbsbsbsg22
(iplugins.pylisp
ConsCell
p4218
(dp4219
g16
(iplugins.pylisp
ConsCell
p4220
(dp4221
g16
(iplugins.pylisp
Symbol
p4222
(dp4223
g6
S'helpkuk'
p4224
sbsg22
(iplugins.pylisp
ConsCell
p4225
(dp4226
g16
(iplugins.pylisp
ConsCell
p4227
(dp4228
g16
(iplugins.pylisp
Symbol
p4229
(dp4230
g6
g67
sbsg22
(iplugins.pylisp
ConsCell
p4231
(dp4232
g16
(iplugins.pylisp
Symbol
p4233
(dp4234
g6
g34
sbsg22
(iplugins.pylisp
ConsCell
p4235
(dp4236
g16
(iplugins.pylisp
Integer
p4237
(dp4238
g39
I1
sbsg22
(iplugins.pylisp
Nil
p4239
(dp4240
bsbsbsbsg22
(iplugins.pylisp
ConsCell
p4241
(dp4242
g16
(iplugins.pylisp
ConsCell
p4243
(dp4244
g16
(iplugins.pylisp
Symbol
p4245
(dp4246
g6
S'str-append'
p4247
sbsg22
(iplugins.pylisp
ConsCell
p4248
(dp4249
g16
(iplugins.pylisp
String
p4250
(dp4251
g39
g29
sbsg22
(iplugins.pylisp
ConsCell
p4252
(dp4253
g16
(iplugins.pylisp
Symbol
p4254
(dp4255
g6
g1975
sbsg22
(iplugins.pylisp
Nil
p4256
(dp4257
bsbsbsbsg22
(iplugins.pylisp
Nil
p4258
(dp4259
bsbsbsbsg22
(iplugins.pylisp
ConsCell
p4260
(dp4261
g16
(iplugins.pylisp
ConsCell
p4262
(dp4263
g16
(iplugins.pylisp
Symbol
p4264
(dp4265
g6
S'str-append'
p4266
sbsg22
(iplugins.pylisp
ConsCell
p4267
(dp4268
g16
(iplugins.pylisp
String
p4269
(dp4270
g39
S'B'
p4271
sbsg22
(iplugins.pylisp
ConsCell
p4272
(dp4273
g16
(iplugins.pylisp
Symbol
p4274
(dp4275
g6
g1975
sbsg22
(iplugins.pylisp
Nil
p4276
(dp4277
bsbsbsbsg22
(iplugins.pylisp
Nil
p4278
(dp4279
bsbsbsbsbsg22
(iplugins.pylisp
Nil
p4280
(dp4281
bsbsbsg94
(iplugins.pylisp
ConsCell
p4282
(dp4283
g16
(iplugins.pylisp
Symbol
p4284
(dp4285
g6
g34
sbsg22
(iplugins.pylisp
ConsCell
p4286
(dp4287
g16
(iplugins.pylisp
Symbol
p4288
(dp4289
g6
g1975
sbsg22
(iplugins.pylisp
Nil
p4290
(dp4291
bsbsbsg105
g0
sbs(iplugins.pylisp
Symbol
p4292
(dp4293
g1792
S'funcall'
p4294
sb(iplugins.pylisp
Macro
p4295
(dp4296
S'expression'
p4297
(iplugins.pylisp
ConsCell
p4298
(dp4299
S'car'
p4300
(iplugins.pylisp
Symbol
p4301
(dp4302
g1792
S'cons'
p4303
sbsS'cdr'
p4304
(iplugins.pylisp
ConsCell
p4305
(dp4306
g4300
(iplugins.pylisp
Symbol
p4307
(dp4308
g1792
S'f'
p4309
sbsg4304
(iplugins.pylisp
ConsCell
p4310
(dp4311
g4300
(iplugins.pylisp
Symbol
p4312
(dp4313
g1792
S'args'
p4314
sbsg4304
(iplugins.pylisp
Nil
p4315
(dp4316
bsbsbsbsS'parameters'
p4317
(iplugins.pylisp
ConsCell
p4318
(dp4319
g4300
(iplugins.pylisp
Symbol
p4320
(dp4321
g1792
g4309
sbsg4304
(iplugins.pylisp
ConsCell
p4322
(dp4323
g4300
(iplugins.pylisp
Symbol
p4324
(dp4325
g1792
S'args'
p4326
sbsg4304
(iplugins.pylisp
Nil
p4327
(dp4328
bsbsbsS'env'
p4329
g0
sbs(iplugins.pylisp
Symbol
p4330
(dp4331
g858
S'nom-mat-n'
p4332
sb(iplugins.pylisp
Lambda
p4333
(dp4334
g847
(iplugins.pylisp
ExpressionBody
p4335
(dp4336
g850
(iplugins.pylisp
ConsCell
p4337
(dp4338
g853
(iplugins.pylisp
ConsCell
p4339
(dp4340
g853
(iplugins.pylisp
Symbol
p4341
(dp4342
g858
S'nomrate'
p4343
sbsg860
(iplugins.pylisp
ConsCell
p4344
(dp4345
g853
(iplugins.pylisp
ConsCell
p4346
(dp4347
g853
(iplugins.pylisp
Symbol
p4348
(dp4349
g858
S'str-join'
p4350
sbsg860
(iplugins.pylisp
ConsCell
p4351
(dp4352
g853
(iplugins.pylisp
ConsCell
p4353
(dp4354
g853
(iplugins.pylisp
Symbol
p4355
(dp4356
g858
S'collect'
p4357
sbsg860
(iplugins.pylisp
ConsCell
p4358
(dp4359
g853
(iplugins.pylisp
Symbol
p4360
(dp4361
g858
S'matnamn'
p4362
sbsg860
(iplugins.pylisp
ConsCell
p4363
(dp4364
g853
(iplugins.pylisp
Symbol
p4365
(dp4366
g858
g1445
sbsg860
(iplugins.pylisp
Nil
p4367
(dp4368
bsbsbsbsg860
(iplugins.pylisp
ConsCell
p4369
(dp4370
g853
(iplugins.pylisp
String
p4371
(dp4372
g865
S' med '
p4373
sbsg860
(iplugins.pylisp
Nil
p4374
(dp4375
bsbsbsbsg860
(iplugins.pylisp
Nil
p4376
(dp4377
bsbsbsg860
(iplugins.pylisp
Nil
p4378
(dp4379
bsbsbsg870
(iplugins.pylisp
ConsCell
p4380
(dp4381
g853
(iplugins.pylisp
Symbol
p4382
(dp4383
g858
g1445
sbsg860
(iplugins.pylisp
Nil
p4384
(dp4385
bsbsg873
g0
sbs(iplugins.pylisp
Symbol
p4386
(dp4387
g1167
S'sgd'
p4388
sb(iplugins.pylisp
Lambda
p4389
(dp4390
g1171
(iplugins.pylisp
ExpressionBody
p4391
(dp4392
g1174
(iplugins.pylisp
ConsCell
p4393
(dp4394
g1177
(iplugins.pylisp
ConsCell
p4395
(dp4396
g1177
(iplugins.pylisp
Symbol
p4397
(dp4398
g1167
S'if'
p4399
sbsg1183
(iplugins.pylisp
ConsCell
p4400
(dp4401
g1177
(iplugins.pylisp
ConsCell
p4402
(dp4403
g1177
(iplugins.pylisp
Symbol
p4404
(dp4405
g1167
S'<='
p4406
sbsg1183
(iplugins.pylisp
ConsCell
p4407
(dp4408
g1177
(iplugins.pylisp
Symbol
p4409
(dp4410
g1167
g1188
sbsg1183
(iplugins.pylisp
ConsCell
p4411
(dp4412
g1177
(iplugins.pylisp
Symbol
p4413
(dp4414
g1167
g1211
sbsg1183
(iplugins.pylisp
Nil
p4415
(dp4416
bsbsbsbsg1183
(iplugins.pylisp
ConsCell
p4417
(dp4418
g1177
(iplugins.pylisp
ConsCell
p4419
(dp4420
g1177
(iplugins.pylisp
Symbol
p4421
(dp4422
g1167
S'sgd'
p4423
sbsg1183
(iplugins.pylisp
ConsCell
p4424
(dp4425
g1177
(iplugins.pylisp
Symbol
p4426
(dp4427
g1167
g1211
sbsg1183
(iplugins.pylisp
ConsCell
p4428
(dp4429
g1177
(iplugins.pylisp
Symbol
p4430
(dp4431
g1167
g1188
sbsg1183
(iplugins.pylisp
Nil
p4432
(dp4433
bsbsbsbsg1183
(iplugins.pylisp
ConsCell
p4434
(dp4435
g1177
(iplugins.pylisp
ConsCell
p4436
(dp4437
g1177
(iplugins.pylisp
Symbol
p4438
(dp4439
g1167
S'if'
p4440
sbsg1183
(iplugins.pylisp
ConsCell
p4441
(dp4442
g1177
(iplugins.pylisp
ConsCell
p4443
(dp4444
g1177
(iplugins.pylisp
Symbol
p4445
(dp4446
g1167
S'='
p4447
sbsg1183
(iplugins.pylisp
ConsCell
p4448
(dp4449
g1177
(iplugins.pylisp
Symbol
p4450
(dp4451
g1167
g1211
sbsg1183
(iplugins.pylisp
ConsCell
p4452
(dp4453
g1177
(iplugins.pylisp
Integer
p4454
(dp4455
S'value'
p4456
I0
sbsg1183
(iplugins.pylisp
Nil
p4457
(dp4458
bsbsbsbsg1183
(iplugins.pylisp
ConsCell
p4459
(dp4460
g1177
(iplugins.pylisp
Symbol
p4461
(dp4462
g1167
g1188
sbsg1183
(iplugins.pylisp
ConsCell
p4463
(dp4464
g1177
(iplugins.pylisp
ConsCell
p4465
(dp4466
g1177
(iplugins.pylisp
Symbol
p4467
(dp4468
g1167
S'sgd'
p4469
sbsg1183
(iplugins.pylisp
ConsCell
p4470
(dp4471
g1177
(iplugins.pylisp
Symbol
p4472
(dp4473
g1167
g1211
sbsg1183
(iplugins.pylisp
ConsCell
p4474
(dp4475
g1177
(iplugins.pylisp
ConsCell
p4476
(dp4477
g1177
(iplugins.pylisp
Symbol
p4478
(dp4479
g1167
S'mod'
p4480
sbsg1183
(iplugins.pylisp
ConsCell
p4481
(dp4482
g1177
(iplugins.pylisp
Symbol
p4483
(dp4484
g1167
g1188
sbsg1183
(iplugins.pylisp
ConsCell
p4485
(dp4486
g1177
(iplugins.pylisp
Symbol
p4487
(dp4488
g1167
g1211
sbsg1183
(iplugins.pylisp
Nil
p4489
(dp4490
bsbsbsbsg1183
(iplugins.pylisp
Nil
p4491
(dp4492
bsbsbsbsg1183
(iplugins.pylisp
Nil
p4493
(dp4494
bsbsbsbsbsg1183
(iplugins.pylisp
Nil
p4495
(dp4496
bsbsbsbsbsg1183
(iplugins.pylisp
Nil
p4497
(dp4498
bsbsbsg1224
(iplugins.pylisp
ConsCell
p4499
(dp4500
g1177
(iplugins.pylisp
Symbol
p4501
(dp4502
g1167
g1188
sbsg1183
(iplugins.pylisp
ConsCell
p4503
(dp4504
g1177
(iplugins.pylisp
Symbol
p4505
(dp4506
g1167
g1211
sbsg1183
(iplugins.pylisp
Nil
p4507
(dp4508
bsbsbsg1235
g0
sbs(iplugins.pylisp
Symbol
p4509
(dp4510
g858
S'bra'
p4511
sbg1523
s(iplugins.pylisp
Symbol
p4512
(dp4513
g108
S'zip'
p4514
sb(iplugins.pylisp
Lambda
p4515
(dp4516
g288
(iplugins.pylisp
ExpressionBody
p4517
(dp4518
g291
(iplugins.pylisp
ConsCell
p4519
(dp4520
g294
(iplugins.pylisp
ConsCell
p4521
(dp4522
g294
(iplugins.pylisp
Symbol
p4523
(dp4524
g108
S'if'
p4525
sbsg300
(iplugins.pylisp
ConsCell
p4526
(dp4527
g294
(iplugins.pylisp
ConsCell
p4528
(dp4529
g294
(iplugins.pylisp
Symbol
p4530
(dp4531
g108
S'or'
p4532
sbsg300
(iplugins.pylisp
ConsCell
p4533
(dp4534
g294
(iplugins.pylisp
ConsCell
p4535
(dp4536
g294
(iplugins.pylisp
Symbol
p4537
(dp4538
g108
S'endp'
p4539
sbsg300
(iplugins.pylisp
ConsCell
p4540
(dp4541
g294
(iplugins.pylisp
Symbol
p4542
(dp4543
g108
S'la'
p4544
sbsg300
(iplugins.pylisp
Nil
p4545
(dp4546
bsbsbsg300
(iplugins.pylisp
ConsCell
p4547
(dp4548
g294
(iplugins.pylisp
ConsCell
p4549
(dp4550
g294
(iplugins.pylisp
Symbol
p4551
(dp4552
g108
S'endp'
p4553
sbsg300
(iplugins.pylisp
ConsCell
p4554
(dp4555
g294
(iplugins.pylisp
Symbol
p4556
(dp4557
g108
S'lb'
p4558
sbsg300
(iplugins.pylisp
Nil
p4559
(dp4560
bsbsbsg300
(iplugins.pylisp
Nil
p4561
(dp4562
bsbsbsbsg300
(iplugins.pylisp
ConsCell
p4563
(dp4564
g294
(iplugins.pylisp
Symbol
p4565
(dp4566
g108
S'nil'
p4567
sbsg300
(iplugins.pylisp
ConsCell
p4568
(dp4569
g294
(iplugins.pylisp
ConsCell
p4570
(dp4571
g294
(iplugins.pylisp
Symbol
p4572
(dp4573
g108
S'cons'
p4574
sbsg300
(iplugins.pylisp
ConsCell
p4575
(dp4576
g294
(iplugins.pylisp
ConsCell
p4577
(dp4578
g294
(iplugins.pylisp
Symbol
p4579
(dp4580
g108
S'cons'
p4581
sbsg300
(iplugins.pylisp
ConsCell
p4582
(dp4583
g294
(iplugins.pylisp
ConsCell
p4584
(dp4585
g294
(iplugins.pylisp
Symbol
p4586
(dp4587
g108
S'car'
p4588
sbsg300
(iplugins.pylisp
ConsCell
p4589
(dp4590
g294
(iplugins.pylisp
Symbol
p4591
(dp4592
g108
S'la'
p4593
sbsg300
(iplugins.pylisp
Nil
p4594
(dp4595
bsbsbsg300
(iplugins.pylisp
ConsCell
p4596
(dp4597
g294
(iplugins.pylisp
ConsCell
p4598
(dp4599
g294
(iplugins.pylisp
Symbol
p4600
(dp4601
g108
S'car'
p4602
sbsg300
(iplugins.pylisp
ConsCell
p4603
(dp4604
g294
(iplugins.pylisp
Symbol
p4605
(dp4606
g108
S'lb'
p4607
sbsg300
(iplugins.pylisp
Nil
p4608
(dp4609
bsbsbsg300
(iplugins.pylisp
Nil
p4610
(dp4611
bsbsbsbsg300
(iplugins.pylisp
ConsCell
p4612
(dp4613
g294
(iplugins.pylisp
ConsCell
p4614
(dp4615
g294
(iplugins.pylisp
Symbol
p4616
(dp4617
g108
S'zip'
p4618
sbsg300
(iplugins.pylisp
ConsCell
p4619
(dp4620
g294
(iplugins.pylisp
ConsCell
p4621
(dp4622
g294
(iplugins.pylisp
Symbol
p4623
(dp4624
g108
S'cdr'
p4625
sbsg300
(iplugins.pylisp
ConsCell
p4626
(dp4627
g294
(iplugins.pylisp
Symbol
p4628
(dp4629
g108
S'la'
p4630
sbsg300
(iplugins.pylisp
Nil
p4631
(dp4632
bsbsbsg300
(iplugins.pylisp
ConsCell
p4633
(dp4634
g294
(iplugins.pylisp
ConsCell
p4635
(dp4636
g294
(iplugins.pylisp
Symbol
p4637
(dp4638
g108
S'cdr'
p4639
sbsg300
(iplugins.pylisp
ConsCell
p4640
(dp4641
g294
(iplugins.pylisp
Symbol
p4642
(dp4643
g108
S'lb'
p4644
sbsg300
(iplugins.pylisp
Nil
p4645
(dp4646
bsbsbsg300
(iplugins.pylisp
Nil
p4647
(dp4648
bsbsbsbsg300
(iplugins.pylisp
Nil
p4649
(dp4650
bsbsbsbsg300
(iplugins.pylisp
Nil
p4651
(dp4652
bsbsbsbsbsg300
(iplugins.pylisp
Nil
p4653
(dp4654
bsbsbsg342
(iplugins.pylisp
ConsCell
p4655
(dp4656
g294
(iplugins.pylisp
Symbol
p4657
(dp4658
g108
S'la'
p4659
sbsg300
(iplugins.pylisp
ConsCell
p4660
(dp4661
g294
(iplugins.pylisp
Symbol
p4662
(dp4663
g108
S'lb'
p4664
sbsg300
(iplugins.pylisp
Nil
p4665
(dp4666
bsbsbsg349
g0
sbs(iplugins.pylisp
Symbol
p4667
(dp4668
g2759
S'spam'
p4669
sb(iplugins.pylisp
Lambda
p4670
(dp4671
g3815
(iplugins.pylisp
ExpressionBody
p4672
(dp4673
g3818
(iplugins.pylisp
ConsCell
p4674
(dp4675
g3821
(iplugins.pylisp
ConsCell
p4676
(dp4677
g3821
(iplugins.pylisp
Symbol
p4678
(dp4679
g2759
S'print'
p4680
sbsg3827
(iplugins.pylisp
ConsCell
p4681
(dp4682
g3821
(iplugins.pylisp
ConsCell
p4683
(dp4684
g3821
(iplugins.pylisp
Symbol
p4685
(dp4686
g2759
S'print'
p4687
sbsg3827
(iplugins.pylisp
ConsCell
p4688
(dp4689
g3821
(iplugins.pylisp
ConsCell
p4690
(dp4691
g3821
(iplugins.pylisp
Symbol
p4692
(dp4693
g2759
S'print'
p4694
sbsg3827
(iplugins.pylisp
ConsCell
p4695
(dp4696
g3821
(iplugins.pylisp
ConsCell
p4697
(dp4698
g3821
(iplugins.pylisp
Symbol
p4699
(dp4700
g2759
S'print'
p4701
sbsg3827
(iplugins.pylisp
ConsCell
p4702
(dp4703
g3821
(iplugins.pylisp
ConsCell
p4704
(dp4705
g3821
(iplugins.pylisp
Symbol
p4706
(dp4707
g2759
S'print'
p4708
sbsg3827
(iplugins.pylisp
ConsCell
p4709
(dp4710
g3821
(iplugins.pylisp
ConsCell
p4711
(dp4712
g3821
(iplugins.pylisp
Symbol
p4713
(dp4714
g2759
S'print'
p4715
sbsg3827
(iplugins.pylisp
ConsCell
p4716
(dp4717
g3821
(iplugins.pylisp
ConsCell
p4718
(dp4719
g3821
(iplugins.pylisp
Symbol
p4720
(dp4721
g2759
S'print'
p4722
sbsg3827
(iplugins.pylisp
ConsCell
p4723
(dp4724
g3821
(iplugins.pylisp
ConsCell
p4725
(dp4726
g3821
(iplugins.pylisp
Symbol
p4727
(dp4728
g2759
S'print'
p4729
sbsg3827
(iplugins.pylisp
ConsCell
p4730
(dp4731
g3821
(iplugins.pylisp
ConsCell
p4732
(dp4733
g3821
(iplugins.pylisp
Symbol
p4734
(dp4735
g2759
S'print'
p4736
sbsg3827
(iplugins.pylisp
ConsCell
p4737
(dp4738
g3821
(iplugins.pylisp
ConsCell
p4739
(dp4740
g3821
(iplugins.pylisp
Symbol
p4741
(dp4742
g2759
S'print'
p4743
sbsg3827
(iplugins.pylisp
ConsCell
p4744
(dp4745
g3821
(iplugins.pylisp
Symbol
p4746
(dp4747
g2759
S'string'
p4748
sbsg3827
(iplugins.pylisp
Nil
p4749
(dp4750
bsbsbsg3827
(iplugins.pylisp
Nil
p4751
(dp4752
bsbsbsg3827
(iplugins.pylisp
Nil
p4753
(dp4754
bsbsbsg3827
(iplugins.pylisp
Nil
p4755
(dp4756
bsbsbsg3827
(iplugins.pylisp
Nil
p4757
(dp4758
bsbsbsg3827
(iplugins.pylisp
Nil
p4759
(dp4760
bsbsbsg3827
(iplugins.pylisp
Nil
p4761
(dp4762
bsbsbsg3827
(iplugins.pylisp
Nil
p4763
(dp4764
bsbsbsg3827
(iplugins.pylisp
Nil
p4765
(dp4766
bsbsbsg3827
(iplugins.pylisp
Nil
p4767
(dp4768
bsbsbsg3827
(iplugins.pylisp
Nil
p4769
(dp4770
bsbsbsg3898
(iplugins.pylisp
ConsCell
p4771
(dp4772
g3821
(iplugins.pylisp
Symbol
p4773
(dp4774
g2759
S'string'
p4775
sbsg3827
(iplugins.pylisp
Nil
p4776
(dp4777
bsbsg3905
g0
sbs(iplugins.pylisp
Symbol
p4778
(dp4779
g843
S'nom-gen'
p4780
sb(iplugins.pylisp
Lambda
p4781
(dp4782
g2849
(iplugins.pylisp
ExpressionBody
p4783
(dp4784
g2852
(iplugins.pylisp
ConsCell
p4785
(dp4786
g2855
(iplugins.pylisp
ConsCell
p4787
(dp4788
g2855
(iplugins.pylisp
Symbol
p4789
(dp4790
g843
S'nth'
p4791
sbsg2861
(iplugins.pylisp
ConsCell
p4792
(dp4793
g2855
(iplugins.pylisp
ConsCell
p4794
(dp4795
g2855
(iplugins.pylisp
Symbol
p4796
(dp4797
g843
S'rand'
p4798
sbsg2861
(iplugins.pylisp
ConsCell
p4799
(dp4800
g2855
(iplugins.pylisp
Integer
p4801
(dp4802
g2909
I3
sbsg2861
(iplugins.pylisp
Nil
p4803
(dp4804
bsbsbsg2861
(iplugins.pylisp
ConsCell
p4805
(dp4806
g2855
(iplugins.pylisp
Quoted
p4807
(dp4808
S'quoted_expression'
p4809
(iplugins.pylisp
ConsCell
p4810
(dp4811
g2855
(iplugins.pylisp
String
p4812
(dp4813
g2909
S'om'
p4814
sbsg2861
(iplugins.pylisp
ConsCell
p4815
(dp4816
g2855
(iplugins.pylisp
String
p4817
(dp4818
g2909
S'nomme'
p4819
sbsg2861
(iplugins.pylisp
ConsCell
p4820
(dp4821
g2855
(iplugins.pylisp
String
p4822
(dp4823
g2909
S'nom'
p4824
sbsg2861
(iplugins.pylisp
Nil
p4825
(dp4826
bsbsbsbsbsg2861
(iplugins.pylisp
Nil
p4827
(dp4828
bsbsbsbsg2861
(iplugins.pylisp
Nil
p4829
(dp4830
bsbsbsg3042
(iplugins.pylisp
Nil
p4831
(dp4832
bsg3049
g0
sbs(iplugins.pylisp
Symbol
p4833
(dp4834
g108
S'copies'
p4835
sb(iplugins.pylisp
Lambda
p4836
(dp4837
g288
(iplugins.pylisp
ExpressionBody
p4838
(dp4839
g291
(iplugins.pylisp
ConsCell
p4840
(dp4841
g294
(iplugins.pylisp
ConsCell
p4842
(dp4843
g294
(iplugins.pylisp
Symbol
p4844
(dp4845
g108
S'if'
p4846
sbsg300
(iplugins.pylisp
ConsCell
p4847
(dp4848
g294
(iplugins.pylisp
ConsCell
p4849
(dp4850
g294
(iplugins.pylisp
Symbol
p4851
(dp4852
g108
S'='
p4853
sbsg300
(iplugins.pylisp
ConsCell
p4854
(dp4855
g294
(iplugins.pylisp
Symbol
p4856
(dp4857
g108
g312
sbsg300
(iplugins.pylisp
ConsCell
p4858
(dp4859
g294
(iplugins.pylisp
Integer
p4860
(dp4861
S'value'
p4862
I0
sbsg300
(iplugins.pylisp
Nil
p4863
(dp4864
bsbsbsbsg300
(iplugins.pylisp
ConsCell
p4865
(dp4866
g294
(iplugins.pylisp
Symbol
p4867
(dp4868
g108
S'nil'
p4869
sbsg300
(iplugins.pylisp
ConsCell
p4870
(dp4871
g294
(iplugins.pylisp
ConsCell
p4872
(dp4873
g294
(iplugins.pylisp
Symbol
p4874
(dp4875
g108
S'cons'
p4876
sbsg300
(iplugins.pylisp
ConsCell
p4877
(dp4878
g294
(iplugins.pylisp
Symbol
p4879
(dp4880
g108
S'x'
p4881
sbsg300
(iplugins.pylisp
ConsCell
p4882
(dp4883
g294
(iplugins.pylisp
ConsCell
p4884
(dp4885
g294
(iplugins.pylisp
Symbol
p4886
(dp4887
g108
S'copies'
p4888
sbsg300
(iplugins.pylisp
ConsCell
p4889
(dp4890
g294
(iplugins.pylisp
ConsCell
p4891
(dp4892
g294
(iplugins.pylisp
Symbol
p4893
(dp4894
g108
S'-'
p4895
sbsg300
(iplugins.pylisp
ConsCell
p4896
(dp4897
g294
(iplugins.pylisp
Symbol
p4898
(dp4899
g108
g312
sbsg300
(iplugins.pylisp
ConsCell
p4900
(dp4901
g294
(iplugins.pylisp
Integer
p4902
(dp4903
g4862
I1
sbsg300
(iplugins.pylisp
Nil
p4904
(dp4905
bsbsbsbsg300
(iplugins.pylisp
ConsCell
p4906
(dp4907
g294
(iplugins.pylisp
Symbol
p4908
(dp4909
g108
g4881
sbsg300
(iplugins.pylisp
Nil
p4910
(dp4911
bsbsbsbsg300
(iplugins.pylisp
Nil
p4912
(dp4913
bsbsbsbsg300
(iplugins.pylisp
Nil
p4914
(dp4915
bsbsbsbsbsg300
(iplugins.pylisp
Nil
p4916
(dp4917
bsbsbsg342
(iplugins.pylisp
ConsCell
p4918
(dp4919
g294
(iplugins.pylisp
Symbol
p4920
(dp4921
g108
g312
sbsg300
(iplugins.pylisp
ConsCell
p4922
(dp4923
g294
(iplugins.pylisp
Symbol
p4924
(dp4925
g108
g4881
sbsg300
(iplugins.pylisp
Nil
p4926
(dp4927
bsbsbsg349
g0
sbs(iplugins.pylisp
Symbol
p4928
(dp4929
g6
S'lol'
p4930
sb(iplugins.pylisp
Lambda
p4931
(dp4932
g10
(iplugins.pylisp
ExpressionBody
p4933
(dp4934
g13
(iplugins.pylisp
ConsCell
p4935
(dp4936
g16
(iplugins.pylisp
ConsCell
p4937
(dp4938
g16
(iplugins.pylisp
Symbol
p4939
(dp4940
g6
S'str-append'
p4941
sbsg22
(iplugins.pylisp
ConsCell
p4942
(dp4943
g16
(iplugins.pylisp
String
p4944
(dp4945
g39
g2019
sbsg22
(iplugins.pylisp
ConsCell
p4946
(dp4947
g16
(iplugins.pylisp
ConsCell
p4948
(dp4949
g16
(iplugins.pylisp
Symbol
p4950
(dp4951
g6
S'str-append'
p4952
sbsg22
(iplugins.pylisp
ConsCell
p4953
(dp4954
g16
(iplugins.pylisp
ConsCell
p4955
(dp4956
g16
(iplugins.pylisp
Symbol
p4957
(dp4958
g6
S'stimes'
p4959
sbsg22
(iplugins.pylisp
ConsCell
p4960
(dp4961
g16
(iplugins.pylisp
Symbol
p4962
(dp4963
g6
g34
sbsg22
(iplugins.pylisp
ConsCell
p4964
(dp4965
g16
(iplugins.pylisp
String
p4966
(dp4967
g39
S'o'
p4968
sbsg22
(iplugins.pylisp
Nil
p4969
(dp4970
bsbsbsbsg22
(iplugins.pylisp
ConsCell
p4971
(dp4972
g16
(iplugins.pylisp
String
p4973
(dp4974
g39
g2019
sbsg22
(iplugins.pylisp
Nil
p4975
(dp4976
bsbsbsbsg22
(iplugins.pylisp
Nil
p4977
(dp4978
bsbsbsbsg22
(iplugins.pylisp
Nil
p4979
(dp4980
bsbsbsg94
(iplugins.pylisp
ConsCell
p4981
(dp4982
g16
(iplugins.pylisp
Symbol
p4983
(dp4984
g6
g34
sbsg22
(iplugins.pylisp
Nil
p4985
(dp4986
bsbsg105
g0
sbs(iplugins.pylisp
Symbol
p4987
(dp4988
S'name'
p4989
S'do-twice'
p4990
sb(iplugins.pylisp
Macro
p4991
(dp4992
S'expression'
p4993
(iplugins.pylisp
ConsCell
p4994
(dp4995
S'car'
p4996
(iplugins.pylisp
Symbol
p4997
(dp4998
g4989
S'+'
p4999
sbsS'cdr'
p5000
(iplugins.pylisp
ConsCell
p5001
(dp5002
g4996
(iplugins.pylisp
Symbol
p5003
(dp5004
g4989
S'a'
p5005
sbsg5000
(iplugins.pylisp
ConsCell
p5006
(dp5007
g4996
(iplugins.pylisp
Symbol
p5008
(dp5009
g4989
g5005
sbsg5000
(iplugins.pylisp
Nil
p5010
(dp5011
bsbsbsbsS'parameters'
p5012
(iplugins.pylisp
ConsCell
p5013
(dp5014
g4996
(iplugins.pylisp
Symbol
p5015
(dp5016
g4989
g5005
sbsg5000
(iplugins.pylisp
Nil
p5017
(dp5018
bsbsS'env'
p5019
g0
sbs(iplugins.pylisp
Symbol
p5020
(dp5021
g443
S'foldr'
p5022
sb(iplugins.pylisp
Lambda
p5023
(dp5024
g447
(iplugins.pylisp
ExpressionBody
p5025
(dp5026
g450
(iplugins.pylisp
ConsCell
p5027
(dp5028
g453
(iplugins.pylisp
ConsCell
p5029
(dp5030
g453
(iplugins.pylisp
Symbol
p5031
(dp5032
g443
S'if'
p5033
sbsg459
(iplugins.pylisp
ConsCell
p5034
(dp5035
g453
(iplugins.pylisp
ConsCell
p5036
(dp5037
g453
(iplugins.pylisp
Symbol
p5038
(dp5039
g443
S'null'
p5040
sbsg459
(iplugins.pylisp
ConsCell
p5041
(dp5042
g453
(iplugins.pylisp
Symbol
p5043
(dp5044
g443
S'ls'
p5045
sbsg459
(iplugins.pylisp
Nil
p5046
(dp5047
bsbsbsg459
(iplugins.pylisp
ConsCell
p5048
(dp5049
g453
(iplugins.pylisp
ConsCell
p5050
(dp5051
g453
(iplugins.pylisp
Symbol
p5052
(dp5053
g443
S'f'
p5054
sbsg459
(iplugins.pylisp
ConsCell
p5055
(dp5056
g453
(iplugins.pylisp
Symbol
p5057
(dp5058
g443
S'id'
p5059
sbsg459
(iplugins.pylisp
Nil
p5060
(dp5061
bsbsbsg459
(iplugins.pylisp
ConsCell
p5062
(dp5063
g453
(iplugins.pylisp
ConsCell
p5064
(dp5065
g453
(iplugins.pylisp
Symbol
p5066
(dp5067
g443
g5054
sbsg459
(iplugins.pylisp
ConsCell
p5068
(dp5069
g453
(iplugins.pylisp
ConsCell
p5070
(dp5071
g453
(iplugins.pylisp
Symbol
p5072
(dp5073
g443
S'foldr'
p5074
sbsg459
(iplugins.pylisp
ConsCell
p5075
(dp5076
g453
(iplugins.pylisp
Symbol
p5077
(dp5078
g443
g5054
sbsg459
(iplugins.pylisp
ConsCell
p5079
(dp5080
g453
(iplugins.pylisp
Symbol
p5081
(dp5082
g443
S'id'
p5083
sbsg459
(iplugins.pylisp
ConsCell
p5084
(dp5085
g453
(iplugins.pylisp
ConsCell
p5086
(dp5087
g453
(iplugins.pylisp
Symbol
p5088
(dp5089
g443
S'cdr'
p5090
sbsg459
(iplugins.pylisp
ConsCell
p5091
(dp5092
g453
(iplugins.pylisp
Symbol
p5093
(dp5094
g443
S'ls'
p5095
sbsg459
(iplugins.pylisp
Nil
p5096
(dp5097
bsbsbsg459
(iplugins.pylisp
Nil
p5098
(dp5099
bsbsbsbsbsg459
(iplugins.pylisp
Nil
p5100
(dp5101
bsbsbsg459
(iplugins.pylisp
Nil
p5102
(dp5103
bsbsbsbsbsg459
(iplugins.pylisp
Nil
p5104
(dp5105
bsbsbsg575
(iplugins.pylisp
ConsCell
p5106
(dp5107
g453
(iplugins.pylisp
Symbol
p5108
(dp5109
g443
g5054
sbsg459
(iplugins.pylisp
ConsCell
p5110
(dp5111
g453
(iplugins.pylisp
Symbol
p5112
(dp5113
g443
S'id'
p5114
sbsg459
(iplugins.pylisp
ConsCell
p5115
(dp5116
g453
(iplugins.pylisp
Symbol
p5117
(dp5118
g443
S'ls'
p5119
sbsg459
(iplugins.pylisp
Nil
p5120
(dp5121
bsbsbsbsg587
g0
sbs(iplugins.pylisp
Symbol
p5122
(dp5123
g108
S'pi'
p5124
sb(iplugins.pylisp
Integer
p5125
(dp5126
g4862
I4
sbs(iplugins.pylisp
Symbol
p5127
(dp5128
g108
S'hej'
p5129
sb(iplugins.pylisp
Symbol
p5130
(dp5131
g108
S'hejehej'
p5132
sbs(iplugins.pylisp
Symbol
p5133
(dp5134
S'name'
p5135
S'>'
p5136
sb(iplugins.pylisp
Lambda
p5137
(dp5138
g4075
(iplugins.pylisp
ExpressionBody
p5139
(dp5140
g4078
(iplugins.pylisp
ConsCell
p5141
(dp5142
g4081
(iplugins.pylisp
ConsCell
p5143
(dp5144
g4081
(iplugins.pylisp
Symbol
p5145
(dp5146
g876
S'not'
p5147
sbsg4087
(iplugins.pylisp
ConsCell
p5148
(dp5149
g4081
(iplugins.pylisp
ConsCell
p5150
(dp5151
g4081
(iplugins.pylisp
Symbol
p5152
(dp5153
g876
S'or'
p5154
sbsg4087
(iplugins.pylisp
ConsCell
p5155
(dp5156
g4081
(iplugins.pylisp
ConsCell
p5157
(dp5158
g4081
(iplugins.pylisp
Symbol
p5159
(dp5160
g876
S'<'
p5161
sbsg4087
(iplugins.pylisp
ConsCell
p5162
(dp5163
g4081
(iplugins.pylisp
Symbol
p5164
(dp5165
g876
g4099
sbsg4087
(iplugins.pylisp
ConsCell
p5166
(dp5167
g4081
(iplugins.pylisp
Symbol
p5168
(dp5169
g876
g4104
sbsg4087
(iplugins.pylisp
Nil
p5170
(dp5171
bsbsbsbsg4087
(iplugins.pylisp
ConsCell
p5172
(dp5173
g4081
(iplugins.pylisp
ConsCell
p5174
(dp5175
g4081
(iplugins.pylisp
Symbol
p5176
(dp5177
g876
g4113
sbsg4087
(iplugins.pylisp
ConsCell
p5178
(dp5179
g4081
(iplugins.pylisp
Symbol
p5180
(dp5181
g876
g4099
sbsg4087
(iplugins.pylisp
ConsCell
p5182
(dp5183
g4081
(iplugins.pylisp
Symbol
p5184
(dp5185
g876
g4104
sbsg4087
(iplugins.pylisp
Nil
p5186
(dp5187
bsbsbsbsg4087
(iplugins.pylisp
Nil
p5188
(dp5189
bsbsbsbsg4087
(iplugins.pylisp
Nil
p5190
(dp5191
bsbsbsg4087
(iplugins.pylisp
Nil
p5192
(dp5193
bsbsbsg4128
(iplugins.pylisp
ConsCell
p5194
(dp5195
g4081
(iplugins.pylisp
Symbol
p5196
(dp5197
g876
g4099
sbsg4087
(iplugins.pylisp
ConsCell
p5198
(dp5199
g4081
(iplugins.pylisp
Symbol
p5200
(dp5201
g876
g4104
sbsg4087
(iplugins.pylisp
Nil
p5202
(dp5203
bsbsbsg4139
g0
sbs(iplugins.pylisp
Symbol
p5204
(dp5205
S'name'
p5206
S'eyes'
p5207
sb(iplugins.pylisp
Symbol
p5208
(dp5209
g5206
S'\xe0\xb2\xa0_\xe0\xb2\xa0'
p5210
sbs(iplugins.pylisp
Symbol
p5211
(dp5212
g968
S'testing'
p5213
sb(iplugins.pylisp
Lambda
p5214
(dp5215
g972
(iplugins.pylisp
ExpressionBody
p5216
(dp5217
g975
(iplugins.pylisp
ConsCell
p5218
(dp5219
g978
(iplugins.pylisp
ConsCell
p5220
(dp5221
g978
(iplugins.pylisp
Symbol
p5222
(dp5223
g968
g983
sbsg984
(iplugins.pylisp
ConsCell
p5224
(dp5225
g978
(iplugins.pylisp
Symbol
p5226
(dp5227
g968
g989
sbsg984
(iplugins.pylisp
ConsCell
p5228
(dp5229
g978
(iplugins.pylisp
Integer
p5230
(dp5231
g994
I2
sbsg984
(iplugins.pylisp
Nil
p5232
(dp5233
bsbsbsbsg984
(iplugins.pylisp
Nil
p5234
(dp5235
bsbsbsg999
(iplugins.pylisp
ConsCell
p5236
(dp5237
g978
(iplugins.pylisp
Symbol
p5238
(dp5239
g968
g989
sbsg984
(iplugins.pylisp
Nil
p5240
(dp5241
bsbsg1006
g0
sbs(iplugins.pylisp
Symbol
p5242
(dp5243
g858
S'nom-mat-mat-mat'
p5244
sb(iplugins.pylisp
Lambda
p5245
(dp5246
g847
(iplugins.pylisp
ExpressionBody
p5247
(dp5248
g850
(iplugins.pylisp
ConsCell
p5249
(dp5250
g853
(iplugins.pylisp
ConsCell
p5251
(dp5252
g853
(iplugins.pylisp
Symbol
p5253
(dp5254
g858
S'nom-mat-n'
p5255
sbsg860
(iplugins.pylisp
ConsCell
p5256
(dp5257
g853
(iplugins.pylisp
Integer
p5258
(dp5259
g865
I3
sbsg860
(iplugins.pylisp
Nil
p5260
(dp5261
bsbsbsg860
(iplugins.pylisp
Nil
p5262
(dp5263
bsbsbsg870
(iplugins.pylisp
Nil
p5264
(dp5265
bsg873
g0
sbs(iplugins.pylisp
Symbol
p5266
(dp5267
g1792
S'xvid700MB'
p5268
sb(iplugins.pylisp
Integer
p5269
(dp5270
g2039
I42
sbs(iplugins.pylisp
Symbol
p5271
(dp5272
g3210
S'rand-func'
p5273
sb(iplugins.pylisp
Lambda
p5274
(dp5275
g3199
(iplugins.pylisp
ExpressionBody
p5276
(dp5277
g3202
(iplugins.pylisp
ConsCell
p5278
(dp5279
g3205
(iplugins.pylisp
ConsCell
p5280
(dp5281
g3205
(iplugins.pylisp
Symbol
p5282
(dp5283
g3210
S'let'
p5284
sbsg3212
(iplugins.pylisp
ConsCell
p5285
(dp5286
g3205
(iplugins.pylisp
ConsCell
p5287
(dp5288
g3205
(iplugins.pylisp
ConsCell
p5289
(dp5290
g3205
(iplugins.pylisp
Symbol
p5291
(dp5292
g3210
S'functions'
p5293
sbsg3212
(iplugins.pylisp
ConsCell
p5294
(dp5295
g3205
(iplugins.pylisp
ConsCell
p5296
(dp5297
g3205
(iplugins.pylisp
Symbol
p5298
(dp5299
g3210
S'list'
p5300
sbsg3212
(iplugins.pylisp
ConsCell
p5301
(dp5302
g3205
(iplugins.pylisp
Symbol
p5303
(dp5304
g3210
S'+'
p5305
sbsg3212
(iplugins.pylisp
ConsCell
p5306
(dp5307
g3205
(iplugins.pylisp
Symbol
p5308
(dp5309
g3210
S'dxrandom'
p5310
sbsg3212
(iplugins.pylisp
ConsCell
p5311
(dp5312
g3205
(iplugins.pylisp
Symbol
p5313
(dp5314
g3210
S'nsfw'
p5315
sbsg3212
(iplugins.pylisp
Nil
p5316
(dp5317
bsbsbsbsbsg3212
(iplugins.pylisp
Nil
p5318
(dp5319
bsbsbsg3212
(iplugins.pylisp
Nil
p5320
(dp5321
bsbsg3212
(iplugins.pylisp
ConsCell
p5322
(dp5323
g3205
(iplugins.pylisp
ConsCell
p5324
(dp5325
g3205
(iplugins.pylisp
Symbol
p5326
(dp5327
g3210
S'nth'
p5328
sbsg3212
(iplugins.pylisp
ConsCell
p5329
(dp5330
g3205
(iplugins.pylisp
ConsCell
p5331
(dp5332
g3205
(iplugins.pylisp
Symbol
p5333
(dp5334
g3210
S'rand'
p5335
sbsg3212
(iplugins.pylisp
ConsCell
p5336
(dp5337
g3205
(iplugins.pylisp
ConsCell
p5338
(dp5339
g3205
(iplugins.pylisp
Symbol
p5340
(dp5341
g3210
S'length'
p5342
sbsg3212
(iplugins.pylisp
ConsCell
p5343
(dp5344
g3205
(iplugins.pylisp
Symbol
p5345
(dp5346
g3210
S'functions'
p5347
sbsg3212
(iplugins.pylisp
Nil
p5348
(dp5349
bsbsbsg3212
(iplugins.pylisp
Nil
p5350
(dp5351
bsbsbsg3212
(iplugins.pylisp
ConsCell
p5352
(dp5353
g3205
(iplugins.pylisp
Symbol
p5354
(dp5355
g3210
S'functions'
p5356
sbsg3212
(iplugins.pylisp
Nil
p5357
(dp5358
bsbsbsbsg3212
(iplugins.pylisp
Nil
p5359
(dp5360
bsbsbsbsg3212
(iplugins.pylisp
Nil
p5361
(dp5362
bsbsbsg3289
(iplugins.pylisp
Nil
p5363
(dp5364
bsg3300
g0
sbs(iplugins.pylisp
Symbol
p5365
(dp5366
g1639
S'favtitle'
p5367
sb(iplugins.pylisp
Lambda
p5368
(dp5369
g1643
(iplugins.pylisp
ExpressionBody
p5370
(dp5371
g1646
(iplugins.pylisp
ConsCell
p5372
(dp5373
g1649
(iplugins.pylisp
ConsCell
p5374
(dp5375
g1649
(iplugins.pylisp
Symbol
p5376
(dp5377
g1639
S'command'
p5378
sbsg1655
(iplugins.pylisp
ConsCell
p5379
(dp5380
g1649
(iplugins.pylisp
String
p5381
(dp5382
g1660
S'title'
p5383
sbsg1655
(iplugins.pylisp
ConsCell
p5384
(dp5385
g1649
(iplugins.pylisp
ConsCell
p5386
(dp5387
g1649
(iplugins.pylisp
Symbol
p5388
(dp5389
g1639
S'command'
p5390
sbsg1655
(iplugins.pylisp
ConsCell
p5391
(dp5392
g1649
(iplugins.pylisp
Symbol
p5393
(dp5394
g1639
S'name'
p5395
sbsg1655
(iplugins.pylisp
ConsCell
p5396
(dp5397
g1649
(iplugins.pylisp
String
p5398
(dp5399
g1660
S'lispnik'
p5400
sbsg1655
(iplugins.pylisp
Nil
p5401
(dp5402
bsbsbsbsg1655
(iplugins.pylisp
Nil
p5403
(dp5404
bsbsbsbsg1655
(iplugins.pylisp
Nil
p5405
(dp5406
bsbsbsg1671
(iplugins.pylisp
ConsCell
p5407
(dp5408
g1649
(iplugins.pylisp
Symbol
p5409
(dp5410
g1639
S'name'
p5411
sbsg1655
(iplugins.pylisp
Nil
p5412
(dp5413
bsbsg1678
g0
sbs(iplugins.pylisp
Symbol
p5414
(dp5415
g420
S'cadadr'
p5416
sb(iplugins.pylisp
Lambda
p5417
(dp5418
g1802
(iplugins.pylisp
ExpressionBody
p5419
(dp5420
g1805
(iplugins.pylisp
ConsCell
p5421
(dp5422
g424
(iplugins.pylisp
ConsCell
p5423
(dp5424
g424
(iplugins.pylisp
Symbol
p5425
(dp5426
g420
S'car'
p5427
sbsg428
(iplugins.pylisp
ConsCell
p5428
(dp5429
g424
(iplugins.pylisp
ConsCell
p5430
(dp5431
g424
(iplugins.pylisp
Symbol
p5432
(dp5433
g420
S'cdr'
p5434
sbsg428
(iplugins.pylisp
ConsCell
p5435
(dp5436
g424
(iplugins.pylisp
ConsCell
p5437
(dp5438
g424
(iplugins.pylisp
Symbol
p5439
(dp5440
g420
S'car'
p5441
sbsg428
(iplugins.pylisp
ConsCell
p5442
(dp5443
g424
(iplugins.pylisp
ConsCell
p5444
(dp5445
g424
(iplugins.pylisp
Symbol
p5446
(dp5447
g420
S'cdr'
p5448
sbsg428
(iplugins.pylisp
ConsCell
p5449
(dp5450
g424
(iplugins.pylisp
Symbol
p5451
(dp5452
g420
g2273
sbsg428
(iplugins.pylisp
Nil
p5453
(dp5454
bsbsbsg428
(iplugins.pylisp
Nil
p5455
(dp5456
bsbsbsg428
(iplugins.pylisp
Nil
p5457
(dp5458
bsbsbsg428
(iplugins.pylisp
Nil
p5459
(dp5460
bsbsbsg428
(iplugins.pylisp
Nil
p5461
(dp5462
bsbsbsg1822
(iplugins.pylisp
ConsCell
p5463
(dp5464
g424
(iplugins.pylisp
Symbol
p5465
(dp5466
g420
g2273
sbsg428
(iplugins.pylisp
Nil
p5467
(dp5468
bsbsg1825
g0
sbs(iplugins.pylisp
Symbol
p5469
(dp5470
g1639
S'dxtitle'
p5471
sb(iplugins.pylisp
Lambda
p5472
(dp5473
g10
(iplugins.pylisp
ExpressionBody
p5474
(dp5475
g13
(iplugins.pylisp
ConsCell
p5476
(dp5477
g16
(iplugins.pylisp
ConsCell
p5478
(dp5479
g16
(iplugins.pylisp
Symbol
p5480
(dp5481
g6
S'let'
p5482
sbsg22
(iplugins.pylisp
ConsCell
p5483
(dp5484
g16
(iplugins.pylisp
ConsCell
p5485
(dp5486
g16
(iplugins.pylisp
ConsCell
p5487
(dp5488
g16
(iplugins.pylisp
Symbol
p5489
(dp5490
g6
S'url'
p5491
sbsg22
(iplugins.pylisp
ConsCell
p5492
(dp5493
g16
(iplugins.pylisp
ConsCell
p5494
(dp5495
g16
(iplugins.pylisp
Symbol
p5496
(dp5497
g6
S'command'
p5498
sbsg22
(iplugins.pylisp
ConsCell
p5499
(dp5500
g16
(iplugins.pylisp
String
p5501
(dp5502
g39
S'dx'
p5503
sbsg22
(iplugins.pylisp
ConsCell
p5504
(dp5505
g16
(iplugins.pylisp
ConsCell
p5506
(dp5507
g16
(iplugins.pylisp
Symbol
p5508
(dp5509
g6
S'string'
p5510
sbsg22
(iplugins.pylisp
ConsCell
p5511
(dp5512
g16
(iplugins.pylisp
Symbol
p5513
(dp5514
g6
S'sku'
p5515
sbsg22
(iplugins.pylisp
Nil
p5516
(dp5517
bsbsbsg22
(iplugins.pylisp
Nil
p5518
(dp5519
bsbsbsbsg22
(iplugins.pylisp
Nil
p5520
(dp5521
bsbsbsg22
(iplugins.pylisp
Nil
p5522
(dp5523
bsbsg22
(iplugins.pylisp
ConsCell
p5524
(dp5525
g16
(iplugins.pylisp
ConsCell
p5526
(dp5527
g16
(iplugins.pylisp
Symbol
p5528
(dp5529
g6
S'str-join'
p5530
sbsg22
(iplugins.pylisp
ConsCell
p5531
(dp5532
g16
(iplugins.pylisp
ConsCell
p5533
(dp5534
g16
(iplugins.pylisp
Symbol
p5535
(dp5536
g6
S'list'
p5537
sbsg22
(iplugins.pylisp
ConsCell
p5538
(dp5539
g16
(iplugins.pylisp
ConsCell
p5540
(dp5541
g16
(iplugins.pylisp
Symbol
p5542
(dp5543
g6
S'command'
p5544
sbsg22
(iplugins.pylisp
ConsCell
p5545
(dp5546
g16
(iplugins.pylisp
String
p5547
(dp5548
g39
S'title'
p5549
sbsg22
(iplugins.pylisp
ConsCell
p5550
(dp5551
g16
(iplugins.pylisp
Symbol
p5552
(dp5553
g6
S'url'
p5554
sbsg22
(iplugins.pylisp
Nil
p5555
(dp5556
bsbsbsbsg22
(iplugins.pylisp
ConsCell
p5557
(dp5558
g16
(iplugins.pylisp
Symbol
p5559
(dp5560
g6
S'url'
p5561
sbsg22
(iplugins.pylisp
Nil
p5562
(dp5563
bsbsbsbsg22
(iplugins.pylisp
ConsCell
p5564
(dp5565
g16
(iplugins.pylisp
String
p5566
(dp5567
g39
S' @ '
p5568
sbsg22
(iplugins.pylisp
Nil
p5569
(dp5570
bsbsbsbsg22
(iplugins.pylisp
Nil
p5571
(dp5572
bsbsbsbsg22
(iplugins.pylisp
Nil
p5573
(dp5574
bsbsbsg94
(iplugins.pylisp
ConsCell
p5575
(dp5576
g16
(iplugins.pylisp
Symbol
p5577
(dp5578
g6
S'sku'
p5579
sbsg22
(iplugins.pylisp
Nil
p5580
(dp5581
bsbsg105
g0
sbs(iplugins.pylisp
Symbol
p5582
(dp5583
g114
S'botnik'
p5584
sb(iplugins.pylisp
Symbol
p5585
(dp5586
g114
S'+kaffe'
p5587
sbs(iplugins.pylisp
Symbol
p5588
(dp5589
g114
S'potensmangd'
p5590
sb(iplugins.pylisp
Lambda
p5591
(dp5592
g118
(iplugins.pylisp
ExpressionBody
p5593
(dp5594
g121
(iplugins.pylisp
ConsCell
p5595
(dp5596
g124
(iplugins.pylisp
ConsCell
p5597
(dp5598
g124
(iplugins.pylisp
Symbol
p5599
(dp5600
g114
S'if'
p5601
sbsg130
(iplugins.pylisp
ConsCell
p5602
(dp5603
g124
(iplugins.pylisp
ConsCell
p5604
(dp5605
g124
(iplugins.pylisp
Symbol
p5606
(dp5607
g114
S'endp'
p5608
sbsg130
(iplugins.pylisp
ConsCell
p5609
(dp5610
g124
(iplugins.pylisp
Symbol
p5611
(dp5612
g114
g142
sbsg130
(iplugins.pylisp
Nil
p5613
(dp5614
bsbsbsg130
(iplugins.pylisp
ConsCell
p5615
(dp5616
g124
(iplugins.pylisp
Quoted
p5617
(dp5618
g149
(iplugins.pylisp
ConsCell
p5619
(dp5620
g124
(iplugins.pylisp
Nil
p5621
(dp5622
bsg130
(iplugins.pylisp
Nil
p5623
(dp5624
bsbsbsg130
(iplugins.pylisp
ConsCell
p5625
(dp5626
g124
(iplugins.pylisp
ConsCell
p5627
(dp5628
g124
(iplugins.pylisp
Symbol
p5629
(dp5630
g114
S'let'
p5631
sbsg130
(iplugins.pylisp
ConsCell
p5632
(dp5633
g124
(iplugins.pylisp
ConsCell
p5634
(dp5635
g124
(iplugins.pylisp
ConsCell
p5636
(dp5637
g124
(iplugins.pylisp
Symbol
p5638
(dp5639
g114
S'res'
p5640
sbsg130
(iplugins.pylisp
ConsCell
p5641
(dp5642
g124
(iplugins.pylisp
ConsCell
p5643
(dp5644
g124
(iplugins.pylisp
Symbol
p5645
(dp5646
g114
S'potensmangd'
p5647
sbsg130
(iplugins.pylisp
ConsCell
p5648
(dp5649
g124
(iplugins.pylisp
ConsCell
p5650
(dp5651
g124
(iplugins.pylisp
Symbol
p5652
(dp5653
g114
S'rest'
p5654
sbsg130
(iplugins.pylisp
ConsCell
p5655
(dp5656
g124
(iplugins.pylisp
Symbol
p5657
(dp5658
g114
g142
sbsg130
(iplugins.pylisp
Nil
p5659
(dp5660
bsbsbsg130
(iplugins.pylisp
Nil
p5661
(dp5662
bsbsbsg130
(iplugins.pylisp
Nil
p5663
(dp5664
bsbsbsg130
(iplugins.pylisp
Nil
p5665
(dp5666
bsbsg130
(iplugins.pylisp
ConsCell
p5667
(dp5668
g124
(iplugins.pylisp
ConsCell
p5669
(dp5670
g124
(iplugins.pylisp
Symbol
p5671
(dp5672
g114
S'randmerge'
p5673
sbsg130
(iplugins.pylisp
ConsCell
p5674
(dp5675
g124
(iplugins.pylisp
Symbol
p5676
(dp5677
g114
S'res'
p5678
sbsg130
(iplugins.pylisp
ConsCell
p5679
(dp5680
g124
(iplugins.pylisp
ConsCell
p5681
(dp5682
g124
(iplugins.pylisp
Symbol
p5683
(dp5684
g114
S'recurcons'
p5685
sbsg130
(iplugins.pylisp
ConsCell
p5686
(dp5687
g124
(iplugins.pylisp
ConsCell
p5688
(dp5689
g124
(iplugins.pylisp
Symbol
p5690
(dp5691
g114
S'first'
p5692
sbsg130
(iplugins.pylisp
ConsCell
p5693
(dp5694
g124
(iplugins.pylisp
Symbol
p5695
(dp5696
g114
g142
sbsg130
(iplugins.pylisp
Nil
p5697
(dp5698
bsbsbsg130
(iplugins.pylisp
ConsCell
p5699
(dp5700
g124
(iplugins.pylisp
Symbol
p5701
(dp5702
g114
S'res'
p5703
sbsg130
(iplugins.pylisp
Nil
p5704
(dp5705
bsbsbsbsg130
(iplugins.pylisp
Nil
p5706
(dp5707
bsbsbsbsg130
(iplugins.pylisp
Nil
p5708
(dp5709
bsbsbsbsg130
(iplugins.pylisp
Nil
p5710
(dp5711
bsbsbsbsbsg130
(iplugins.pylisp
Nil
p5712
(dp5713
bsbsbsg218
(iplugins.pylisp
ConsCell
p5714
(dp5715
g124
(iplugins.pylisp
Symbol
p5716
(dp5717
g114
g142
sbsg130
(iplugins.pylisp
Nil
p5718
(dp5719
bsbsg229
g0
sbs(iplugins.pylisp
Symbol
p5720
(dp5721
g6
S'kukern'
p5722
sb(iplugins.pylisp
Lambda
p5723
(dp5724
g10
(iplugins.pylisp
ExpressionBody
p5725
(dp5726
g13
(iplugins.pylisp
ConsCell
p5727
(dp5728
g16
(iplugins.pylisp
ConsCell
p5729
(dp5730
g16
(iplugins.pylisp
Symbol
p5731
(dp5732
g6
S'helpkuk'
p5733
sbsg22
(iplugins.pylisp
ConsCell
p5734
(dp5735
g16
(iplugins.pylisp
Symbol
p5736
(dp5737
g6
g34
sbsg22
(iplugins.pylisp
ConsCell
p5738
(dp5739
g16
(iplugins.pylisp
String
p5740
(dp5741
g39
S'D'
p5742
sbsg22
(iplugins.pylisp
Nil
p5743
(dp5744
bsbsbsbsg22
(iplugins.pylisp
Nil
p5745
(dp5746
bsbsbsg94
(iplugins.pylisp
ConsCell
p5747
(dp5748
g16
(iplugins.pylisp
Symbol
p5749
(dp5750
g6
g34
sbsg22
(iplugins.pylisp
Nil
p5751
(dp5752
bsbsg105
g0
sbs(iplugins.pylisp
Symbol
p5753
(dp5754
g114
S'loooop'
p5755
sb(iplugins.pylisp
NativeFunction
p5756
(dp5757
S'function'
p5758
cplugins.pylisp
list_func
p5759
sS'num_args'
p5760
I-1
sg114
S'list'
p5761
sbs(iplugins.pylisp
Symbol
p5762
(dp5763
g108
S'hampy'
p5764
sb(iplugins.pylisp
Symbol
p5765
(dp5766
g108
S's\xc3\xa4mst'
p5767
sbs(iplugins.pylisp
Symbol
p5768
(dp5769
g2759
S'kaffe'
p5770
sb(iplugins.pylisp
Symbol
p5771
(dp5772
S'name'
p5773
S'\xcf\x80kaffe'
p5774
sbs(iplugins.pylisp
Symbol
p5775
(dp5776
g2407
S'loop'
p5777
sb(iplugins.pylisp
Lambda
p5778
(dp5779
g2396
(iplugins.pylisp
ExpressionBody
p5780
(dp5781
g2399
(iplugins.pylisp
ConsCell
p5782
(dp5783
g2402
(iplugins.pylisp
ConsCell
p5784
(dp5785
g2402
(iplugins.pylisp
Symbol
p5786
(dp5787
g2407
S'loop'
p5788
sbsg2409
(iplugins.pylisp
Nil
p5789
(dp5790
bsbsg2409
(iplugins.pylisp
Nil
p5791
(dp5792
bsbsbsg2437
(iplugins.pylisp
Nil
p5793
(dp5794
bsg2448
g0
sbs(iplugins.pylisp
Symbol
p5795
(dp5796
g420
S'Oliver'
p5797
sb(iplugins.pylisp
ConsCell
p5798
(dp5799
g424
(iplugins.pylisp
Symbol
p5800
(dp5801
g420
S'\xe2\x81\xbb\\'
p5802
sbsg428
(iplugins.pylisp
ConsCell
p5803
(dp5804
g424
(iplugins.pylisp
ConsCell
p5805
(dp5806
g424
(iplugins.pylisp
Symbol
p5807
(dp5808
g420
S'\xe2\x81\xb0_o'
p5809
sbsg428
(iplugins.pylisp
Nil
p5810
(dp5811
bsbsg428
(iplugins.pylisp
ConsCell
p5812
(dp5813
g424
(iplugins.pylisp
Symbol
p5814
(dp5815
g420
S'/\xe2\x81\xbb'
p5816
sbsg428
(iplugins.pylisp
Nil
p5817
(dp5818
bsbsbsbs(iplugins.pylisp
Symbol
p5819
(dp5820
g114
S'hejhej'
p5821
sb(iplugins.pylisp
String
p5822
(dp5823
g3319
S'+echo hej'
p5824
sbs(iplugins.pylisp
Symbol
p5825
(dp5826
g1266
S'recurse'
p5827
sb(iplugins.pylisp
Lambda
p5828
(dp5829
S'expression'
p5830
(iplugins.pylisp
ExpressionBody
p5831
(dp5832
S'expressions'
p5833
(iplugins.pylisp
ConsCell
p5834
(dp5835
S'car'
p5836
(iplugins.pylisp
ConsCell
p5837
(dp5838
g5836
(iplugins.pylisp
Symbol
p5839
(dp5840
g1266
S'if'
p5841
sbsS'cdr'
p5842
(iplugins.pylisp
ConsCell
p5843
(dp5844
g5836
(iplugins.pylisp
ConsCell
p5845
(dp5846
g5836
(iplugins.pylisp
Symbol
p5847
(dp5848
g1266
S'='
p5849
sbsg5842
(iplugins.pylisp
ConsCell
p5850
(dp5851
g5836
(iplugins.pylisp
ConsCell
p5852
(dp5853
g5836
(iplugins.pylisp
Symbol
p5854
(dp5855
g1266
S'setq'
p5856
sbsg5842
(iplugins.pylisp
ConsCell
p5857
(dp5858
g5836
(iplugins.pylisp
Symbol
p5859
(dp5860
g1266
S'level'
p5861
sbsg5842
(iplugins.pylisp
ConsCell
p5862
(dp5863
g5836
(iplugins.pylisp
ConsCell
p5864
(dp5865
g5836
(iplugins.pylisp
Symbol
p5866
(dp5867
g1266
S'-'
p5868
sbsg5842
(iplugins.pylisp
ConsCell
p5869
(dp5870
g5836
(iplugins.pylisp
Symbol
p5871
(dp5872
g1266
S'level'
p5873
sbsg5842
(iplugins.pylisp
ConsCell
p5874
(dp5875
g5836
(iplugins.pylisp
Integer
p5876
(dp5877
g1270
I1
sbsg5842
(iplugins.pylisp
Nil
p5878
(dp5879
bsbsbsbsg5842
(iplugins.pylisp
Nil
p5880
(dp5881
bsbsbsbsg5842
(iplugins.pylisp
ConsCell
p5882
(dp5883
g5836
(iplugins.pylisp
Integer
p5884
(dp5885
g1270
I0
sbsg5842
(iplugins.pylisp
Nil
p5886
(dp5887
bsbsbsbsg5842
(iplugins.pylisp
ConsCell
p5888
(dp5889
g5836
(iplugins.pylisp
Symbol
p5890
(dp5891
g1266
S'level'
p5892
sbsg5842
(iplugins.pylisp
ConsCell
p5893
(dp5894
g5836
(iplugins.pylisp
ConsCell
p5895
(dp5896
g5836
(iplugins.pylisp
Symbol
p5897
(dp5898
g1266
S'recurse'
p5899
sbsg5842
(iplugins.pylisp
Nil
p5900
(dp5901
bsbsg5842
(iplugins.pylisp
Nil
p5902
(dp5903
bsbsbsbsbsg5842
(iplugins.pylisp
Nil
p5904
(dp5905
bsbsbsS'parameters'
p5906
(iplugins.pylisp
Nil
p5907
(dp5908
bsS'env'
p5909
g0
sbs(iplugins.pylisp
Symbol
p5910
(dp5911
g876
S'<='
p5912
sb(iplugins.pylisp
Lambda
p5913
(dp5914
g4075
(iplugins.pylisp
ExpressionBody
p5915
(dp5916
g4078
(iplugins.pylisp
ConsCell
p5917
(dp5918
g4081
(iplugins.pylisp
ConsCell
p5919
(dp5920
g4081
(iplugins.pylisp
Symbol
p5921
(dp5922
g876
S'or'
p5923
sbsg4087
(iplugins.pylisp
ConsCell
p5924
(dp5925
g4081
(iplugins.pylisp
ConsCell
p5926
(dp5927
g4081
(iplugins.pylisp
Symbol
p5928
(dp5929
g876
g5161
sbsg4087
(iplugins.pylisp
ConsCell
p5930
(dp5931
g4081
(iplugins.pylisp
Symbol
p5932
(dp5933
g876
g4099
sbsg4087
(iplugins.pylisp
ConsCell
p5934
(dp5935
g4081
(iplugins.pylisp
Symbol
p5936
(dp5937
g876
g4104
sbsg4087
(iplugins.pylisp
Nil
p5938
(dp5939
bsbsbsbsg4087
(iplugins.pylisp
ConsCell
p5940
(dp5941
g4081
(iplugins.pylisp
ConsCell
p5942
(dp5943
g4081
(iplugins.pylisp
Symbol
p5944
(dp5945
g876
g4113
sbsg4087
(iplugins.pylisp
ConsCell
p5946
(dp5947
g4081
(iplugins.pylisp
Symbol
p5948
(dp5949
g876
g4099
sbsg4087
(iplugins.pylisp
ConsCell
p5950
(dp5951
g4081
(iplugins.pylisp
Symbol
p5952
(dp5953
g876
g4104
sbsg4087
(iplugins.pylisp
Nil
p5954
(dp5955
bsbsbsbsg4087
(iplugins.pylisp
Nil
p5956
(dp5957
bsbsbsbsg4087
(iplugins.pylisp
Nil
p5958
(dp5959
bsbsbsg4128
(iplugins.pylisp
ConsCell
p5960
(dp5961
g4081
(iplugins.pylisp
Symbol
p5962
(dp5963
g876
g4099
sbsg4087
(iplugins.pylisp
ConsCell
p5964
(dp5965
g4081
(iplugins.pylisp
Symbol
p5966
(dp5967
g876
g4104
sbsg4087
(iplugins.pylisp
Nil
p5968
(dp5969
bsbsbsg4139
g0
sbs(iplugins.pylisp
Symbol
p5970
(dp5971
g2759
S'infrec'
p5972
sb(iplugins.pylisp
Lambda
p5973
(dp5974
g3815
(iplugins.pylisp
ExpressionBody
p5975
(dp5976
g3818
(iplugins.pylisp
ConsCell
p5977
(dp5978
g3821
(iplugins.pylisp
ConsCell
p5979
(dp5980
g3821
(iplugins.pylisp
Symbol
p5981
(dp5982
g2759
S'infrec'
p5983
sbsg3827
(iplugins.pylisp
ConsCell
p5984
(dp5985
g3821
(iplugins.pylisp
Symbol
p5986
(dp5987
g2759
S'lol'
p5988
sbsg3827
(iplugins.pylisp
Nil
p5989
(dp5990
bsbsbsg3827
(iplugins.pylisp
Nil
p5991
(dp5992
bsbsbsg3898
(iplugins.pylisp
ConsCell
p5993
(dp5994
g3821
(iplugins.pylisp
Symbol
p5995
(dp5996
g2759
S'lol'
p5997
sbsg3827
(iplugins.pylisp
Nil
p5998
(dp5999
bsbsg3905
g0
sbs(iplugins.pylisp
Symbol
p6000
(dp6001
g108
S'dupa'
p6002
sb(iplugins.pylisp
ConsCell
p6003
(dp6004
g294
(iplugins.pylisp
Symbol
p6005
(dp6006
g108
S'\xc2\xa0'
p6007
sbsg300
(iplugins.pylisp
ConsCell
p6008
(dp6009
g294
(iplugins.pylisp
Symbol
p6010
(dp6011
g108
S'O'
p6012
sbsg300
(iplugins.pylisp
ConsCell
p6013
(dp6014
g294
(iplugins.pylisp
Symbol
p6015
(dp6016
g108
S'\xc2\xa0'
p6017
sbsg300
(iplugins.pylisp
Nil
p6018
(dp6019
bsbsbsbs(iplugins.pylisp
Symbol
p6020
(dp6021
g2759
S'merola'
p6022
sb(iplugins.pylisp
String
p6023
(dp6024
g3846
S'tv\xc3\xa4tta mig. NUU!!!'
p6025
sbs(iplugins.pylisp
Symbol
p6026
(dp6027
g2074
S'ampleyfly'
p6028
sb(iplugins.pylisp
Symbol
p6029
(dp6030
g2074
S'ampleyfly'
p6031
sbs(iplugins.pylisp
Symbol
p6032
(dp6033
g1681
S'inc'
p6034
sb(iplugins.pylisp
Lambda
p6035
(dp6036
g1685
(iplugins.pylisp
ExpressionBody
p6037
(dp6038
g1688
(iplugins.pylisp
ConsCell
p6039
(dp6040
g1691
(iplugins.pylisp
ConsCell
p6041
(dp6042
g1691
(iplugins.pylisp
Symbol
p6043
(dp6044
g1681
S'+'
p6045
sbsg1697
(iplugins.pylisp
ConsCell
p6046
(dp6047
g1691
(iplugins.pylisp
Symbol
p6048
(dp6049
g1681
S'x'
p6050
sbsg1697
(iplugins.pylisp
ConsCell
p6051
(dp6052
g1691
(iplugins.pylisp
Integer
p6053
(dp6054
S'value'
p6055
I1
sbsg1697
(iplugins.pylisp
Nil
p6056
(dp6057
bsbsbsbsg1697
(iplugins.pylisp
Nil
p6058
(dp6059
bsbsbsg1778
(iplugins.pylisp
ConsCell
p6060
(dp6061
g1691
(iplugins.pylisp
Symbol
p6062
(dp6063
g1681
g6050
sbsg1697
(iplugins.pylisp
Nil
p6064
(dp6065
bsbsg1789
g0
sbs(iplugins.pylisp
Quoted
p6066
(dp6067
g3914
(iplugins.pylisp
Symbol
p6068
(dp6069
g968
g989
sbsb(iplugins.pylisp
Integer
p6070
(dp6071
g994
I2
sbs(iplugins.pylisp
Symbol
p6072
(dp6073
S'name'
p6074
S'gcd'
p6075
sb(iplugins.pylisp
Lambda
p6076
(dp6077
S'expression'
p6078
(iplugins.pylisp
ExpressionBody
p6079
(dp6080
S'expressions'
p6081
(iplugins.pylisp
ConsCell
p6082
(dp6083
S'car'
p6084
(iplugins.pylisp
ConsCell
p6085
(dp6086
g6084
(iplugins.pylisp
Symbol
p6087
(dp6088
g6074
S'if'
p6089
sbsS'cdr'
p6090
(iplugins.pylisp
ConsCell
p6091
(dp6092
g6084
(iplugins.pylisp
ConsCell
p6093
(dp6094
g6084
(iplugins.pylisp
Symbol
p6095
(dp6096
g6074
S'<'
p6097
sbsg6090
(iplugins.pylisp
ConsCell
p6098
(dp6099
g6084
(iplugins.pylisp
Symbol
p6100
(dp6101
g6074
S'a'
p6102
sbsg6090
(iplugins.pylisp
ConsCell
p6103
(dp6104
g6084
(iplugins.pylisp
Symbol
p6105
(dp6106
g6074
S'b'
p6107
sbsg6090
(iplugins.pylisp
Nil
p6108
(dp6109
bsbsbsbsg6090
(iplugins.pylisp
ConsCell
p6110
(dp6111
g6084
(iplugins.pylisp
ConsCell
p6112
(dp6113
g6084
(iplugins.pylisp
Symbol
p6114
(dp6115
g6074
S'gcd'
p6116
sbsg6090
(iplugins.pylisp
ConsCell
p6117
(dp6118
g6084
(iplugins.pylisp
Symbol
p6119
(dp6120
g6074
g6107
sbsg6090
(iplugins.pylisp
ConsCell
p6121
(dp6122
g6084
(iplugins.pylisp
Symbol
p6123
(dp6124
g6074
g6102
sbsg6090
(iplugins.pylisp
Nil
p6125
(dp6126
bsbsbsbsg6090
(iplugins.pylisp
ConsCell
p6127
(dp6128
g6084
(iplugins.pylisp
ConsCell
p6129
(dp6130
g6084
(iplugins.pylisp
Symbol
p6131
(dp6132
g6074
S'if'
p6133
sbsg6090
(iplugins.pylisp
ConsCell
p6134
(dp6135
g6084
(iplugins.pylisp
ConsCell
p6136
(dp6137
g6084
(iplugins.pylisp
Symbol
p6138
(dp6139
g6074
S'='
p6140
sbsg6090
(iplugins.pylisp
ConsCell
p6141
(dp6142
g6084
(iplugins.pylisp
Symbol
p6143
(dp6144
g6074
g6107
sbsg6090
(iplugins.pylisp
ConsCell
p6145
(dp6146
g6084
(iplugins.pylisp
Integer
p6147
(dp6148
S'value'
p6149
I0
sbsg6090
(iplugins.pylisp
Nil
p6150
(dp6151
bsbsbsbsg6090
(iplugins.pylisp
ConsCell
p6152
(dp6153
g6084
(iplugins.pylisp
Symbol
p6154
(dp6155
g6074
g6102
sbsg6090
(iplugins.pylisp
ConsCell
p6156
(dp6157
g6084
(iplugins.pylisp
ConsCell
p6158
(dp6159
g6084
(iplugins.pylisp
Symbol
p6160
(dp6161
g6074
S'gcd'
p6162
sbsg6090
(iplugins.pylisp
ConsCell
p6163
(dp6164
g6084
(iplugins.pylisp
Symbol
p6165
(dp6166
g6074
g6107
sbsg6090
(iplugins.pylisp
ConsCell
p6167
(dp6168
g6084
(iplugins.pylisp
ConsCell
p6169
(dp6170
g6084
(iplugins.pylisp
Symbol
p6171
(dp6172
g6074
S'mod'
p6173
sbsg6090
(iplugins.pylisp
ConsCell
p6174
(dp6175
g6084
(iplugins.pylisp
Symbol
p6176
(dp6177
g6074
g6102
sbsg6090
(iplugins.pylisp
ConsCell
p6178
(dp6179
g6084
(iplugins.pylisp
Symbol
p6180
(dp6181
g6074
g6107
sbsg6090
(iplugins.pylisp
Nil
p6182
(dp6183
bsbsbsbsg6090
(iplugins.pylisp
Nil
p6184
(dp6185
bsbsbsbsg6090
(iplugins.pylisp
Nil
p6186
(dp6187
bsbsbsbsbsg6090
(iplugins.pylisp
Nil
p6188
(dp6189
bsbsbsbsbsg6090
(iplugins.pylisp
Nil
p6190
(dp6191
bsbsbsS'parameters'
p6192
(iplugins.pylisp
ConsCell
p6193
(dp6194
g6084
(iplugins.pylisp
Symbol
p6195
(dp6196
g6074
g6102
sbsg6090
(iplugins.pylisp
ConsCell
p6197
(dp6198
g6084
(iplugins.pylisp
Symbol
p6199
(dp6200
g6074
g6107
sbsg6090
(iplugins.pylisp
Nil
p6201
(dp6202
bsbsbsS'env'
p6203
g0
sbs(iplugins.pylisp
Symbol
p6204
(dp6205
g6
S'CeQeal'
p6206
sb(iplugins.pylisp
Nil
p6207
(dp6208
bs(iplugins.pylisp
Symbol
p6209
(dp6210
g1639
S'favdown'
p6211
sb(iplugins.pylisp
Lambda
p6212
(dp6213
g1643
(iplugins.pylisp
ExpressionBody
p6214
(dp6215
g1646
(iplugins.pylisp
ConsCell
p6216
(dp6217
g1649
(iplugins.pylisp
ConsCell
p6218
(dp6219
g1649
(iplugins.pylisp
Symbol
p6220
(dp6221
g1639
S'command'
p6222
sbsg1655
(iplugins.pylisp
ConsCell
p6223
(dp6224
g1649
(iplugins.pylisp
String
p6225
(dp6226
g1660
S'down'
p6227
sbsg1655
(iplugins.pylisp
ConsCell
p6228
(dp6229
g1649
(iplugins.pylisp
ConsCell
p6230
(dp6231
g1649
(iplugins.pylisp
Symbol
p6232
(dp6233
g1639
S'command'
p6234
sbsg1655
(iplugins.pylisp
ConsCell
p6235
(dp6236
g1649
(iplugins.pylisp
Symbol
p6237
(dp6238
g1639
S'name'
p6239
sbsg1655
(iplugins.pylisp
ConsCell
p6240
(dp6241
g1649
(iplugins.pylisp
String
p6242
(dp6243
g1660
S'lispnik'
p6244
sbsg1655
(iplugins.pylisp
Nil
p6245
(dp6246
bsbsbsbsg1655
(iplugins.pylisp
Nil
p6247
(dp6248
bsbsbsbsg1655
(iplugins.pylisp
Nil
p6249
(dp6250
bsbsbsg1671
(iplugins.pylisp
ConsCell
p6251
(dp6252
g1649
(iplugins.pylisp
Symbol
p6253
(dp6254
g1639
S'name'
p6255
sbsg1655
(iplugins.pylisp
Nil
p6256
(dp6257
bsbsg1678
g0
sbs(iplugins.pylisp
Symbol
p6258
(dp6259
g1521
S'-'
p6260
sb(iplugins.pylisp
NativeFunction
p6261
(dp6262
S'function'
p6263
cplugins.pylisp
sub_func
p6264
sS'num_args'
p6265
I2
sg1521
g6260
sbs(iplugins.pylisp
Symbol
p6266
(dp6267
g2759
S'setkuk'
p6268
sb(iplugins.pylisp
Lambda
p6269
(dp6270
g3815
(iplugins.pylisp
ExpressionBody
p6271
(dp6272
g3818
(iplugins.pylisp
ConsCell
p6273
(dp6274
g3821
(iplugins.pylisp
ConsCell
p6275
(dp6276
g3821
(iplugins.pylisp
Symbol
p6277
(dp6278
g2759
S'setq'
p6279
sbsg3827
(iplugins.pylisp
ConsCell
p6280
(dp6281
g3821
(iplugins.pylisp
Symbol
p6282
(dp6283
g2759
S'name'
p6284
sbsg3827
(iplugins.pylisp
ConsCell
p6285
(dp6286
g3821
(iplugins.pylisp
Symbol
p6287
(dp6288
g2759
S'val'
p6289
sbsg3827
(iplugins.pylisp
Nil
p6290
(dp6291
bsbsbsbsg3827
(iplugins.pylisp
Nil
p6292
(dp6293
bsbsbsg3898
(iplugins.pylisp
ConsCell
p6294
(dp6295
g3821
(iplugins.pylisp
Symbol
p6296
(dp6297
g2759
S'name'
p6298
sbsg3827
(iplugins.pylisp
ConsCell
p6299
(dp6300
g3821
(iplugins.pylisp
Symbol
p6301
(dp6302
g2759
S'val'
p6303
sbsg3827
(iplugins.pylisp
Nil
p6304
(dp6305
bsbsbsg3905
g0
sbs(iplugins.pylisp
Symbol
p6306
(dp6307
g1681
S'sum-list'
p6308
sb(iplugins.pylisp
Lambda
p6309
(dp6310
g4145
(iplugins.pylisp
ExpressionBody
p6311
(dp6312
g4148
(iplugins.pylisp
ConsCell
p6313
(dp6314
g2775
(iplugins.pylisp
ConsCell
p6315
(dp6316
g2775
(iplugins.pylisp
Symbol
p6317
(dp6318
g2074
S'if'
p6319
sbsg2779
(iplugins.pylisp
ConsCell
p6320
(dp6321
g2775
(iplugins.pylisp
ConsCell
p6322
(dp6323
g2775
(iplugins.pylisp
Symbol
p6324
(dp6325
g2074
S'not'
p6326
sbsg2779
(iplugins.pylisp
ConsCell
p6327
(dp6328
g2775
(iplugins.pylisp
ConsCell
p6329
(dp6330
g2775
(iplugins.pylisp
Symbol
p6331
(dp6332
g2074
S'listp'
p6333
sbsg2779
(iplugins.pylisp
ConsCell
p6334
(dp6335
g2775
(iplugins.pylisp
Symbol
p6336
(dp6337
g2074
S'l'
p6338
sbsg2779
(iplugins.pylisp
Nil
p6339
(dp6340
bsbsbsg2779
(iplugins.pylisp
Nil
p6341
(dp6342
bsbsbsg2779
(iplugins.pylisp
ConsCell
p6343
(dp6344
g2775
(iplugins.pylisp
ConsCell
p6345
(dp6346
g2775
(iplugins.pylisp
Symbol
p6347
(dp6348
g2074
S'print'
p6349
sbsg2779
(iplugins.pylisp
ConsCell
p6350
(dp6351
g2775
(iplugins.pylisp
String
p6352
(dp6353
g3170
S'lol ingen lista'
p6354
sbsg2779
(iplugins.pylisp
Nil
p6355
(dp6356
bsbsbsg2779
(iplugins.pylisp
ConsCell
p6357
(dp6358
g2775
(iplugins.pylisp
ConsCell
p6359
(dp6360
g2775
(iplugins.pylisp
Symbol
p6361
(dp6362
g2074
S'if'
p6363
sbsg2779
(iplugins.pylisp
ConsCell
p6364
(dp6365
g2775
(iplugins.pylisp
ConsCell
p6366
(dp6367
g2775
(iplugins.pylisp
Symbol
p6368
(dp6369
g2074
S'endp'
p6370
sbsg2779
(iplugins.pylisp
ConsCell
p6371
(dp6372
g2775
(iplugins.pylisp
Symbol
p6373
(dp6374
g2074
g6338
sbsg2779
(iplugins.pylisp
Nil
p6375
(dp6376
bsbsbsg2779
(iplugins.pylisp
ConsCell
p6377
(dp6378
g2775
(iplugins.pylisp
Integer
p6379
(dp6380
g3170
I0
sbsg2779
(iplugins.pylisp
ConsCell
p6381
(dp6382
g2775
(iplugins.pylisp
ConsCell
p6383
(dp6384
g2775
(iplugins.pylisp
Symbol
p6385
(dp6386
g2074
S'-'
p6387
sbsg2779
(iplugins.pylisp
ConsCell
p6388
(dp6389
g2775
(iplugins.pylisp
ConsCell
p6390
(dp6391
g2775
(iplugins.pylisp
Symbol
p6392
(dp6393
g2074
S'first'
p6394
sbsg2779
(iplugins.pylisp
ConsCell
p6395
(dp6396
g2775
(iplugins.pylisp
Symbol
p6397
(dp6398
g2074
g6338
sbsg2779
(iplugins.pylisp
Nil
p6399
(dp6400
bsbsbsg2779
(iplugins.pylisp
ConsCell
p6401
(dp6402
g2775
(iplugins.pylisp
ConsCell
p6403
(dp6404
g2775
(iplugins.pylisp
Symbol
p6405
(dp6406
g2074
g6387
sbsg2779
(iplugins.pylisp
ConsCell
p6407
(dp6408
g2775
(iplugins.pylisp
Integer
p6409
(dp6410
g3170
I0
sbsg2779
(iplugins.pylisp
ConsCell
p6411
(dp6412
g2775
(iplugins.pylisp
ConsCell
p6413
(dp6414
g2775
(iplugins.pylisp
Symbol
p6415
(dp6416
g2074
S'+'
p6417
sbsg2779
(iplugins.pylisp
ConsCell
p6418
(dp6419
g2775
(iplugins.pylisp
ConsCell
p6420
(dp6421
g2775
(iplugins.pylisp
Symbol
p6422
(dp6423
g2074
S'rest'
p6424
sbsg2779
(iplugins.pylisp
ConsCell
p6425
(dp6426
g2775
(iplugins.pylisp
Symbol
p6427
(dp6428
g2074
g6338
sbsg2779
(iplugins.pylisp
Nil
p6429
(dp6430
bsbsbsg2779
(iplugins.pylisp
Nil
p6431
(dp6432
bsbsbsg2779
(iplugins.pylisp
Nil
p6433
(dp6434
bsbsbsbsg2779
(iplugins.pylisp
Nil
p6435
(dp6436
bsbsbsbsg2779
(iplugins.pylisp
Nil
p6437
(dp6438
bsbsbsbsbsg2779
(iplugins.pylisp
Nil
p6439
(dp6440
bsbsbsbsbsg2779
(iplugins.pylisp
Nil
p6441
(dp6442
bsbsbsg4173
(iplugins.pylisp
ConsCell
p6443
(dp6444
g2775
(iplugins.pylisp
Symbol
p6445
(dp6446
g2074
g6338
sbsg2779
(iplugins.pylisp
Nil
p6447
(dp6448
bsbsg4181
g0
sbs(iplugins.pylisp
Symbol
p6449
(dp6450
g6
S'omnom'
p6451
sb(iplugins.pylisp
Lambda
p6452
(dp6453
g10
(iplugins.pylisp
ExpressionBody
p6454
(dp6455
g13
(iplugins.pylisp
ConsCell
p6456
(dp6457
g16
(iplugins.pylisp
ConsCell
p6458
(dp6459
g16
(iplugins.pylisp
Symbol
p6460
(dp6461
g6
S'str-append'
p6462
sbsg22
(iplugins.pylisp
ConsCell
p6463
(dp6464
g16
(iplugins.pylisp
String
p6465
(dp6466
g39
S'om'
p6467
sbsg22
(iplugins.pylisp
ConsCell
p6468
(dp6469
g16
(iplugins.pylisp
ConsCell
p6470
(dp6471
g16
(iplugins.pylisp
Symbol
p6472
(dp6473
g6
S'str-join'
p6474
sbsg22
(iplugins.pylisp
ConsCell
p6475
(dp6476
g16
(iplugins.pylisp
ConsCell
p6477
(dp6478
g16
(iplugins.pylisp
Symbol
p6479
(dp6480
g6
S'copies'
p6481
sbsg22
(iplugins.pylisp
ConsCell
p6482
(dp6483
g16
(iplugins.pylisp
Symbol
p6484
(dp6485
g6
g34
sbsg22
(iplugins.pylisp
ConsCell
p6486
(dp6487
g16
(iplugins.pylisp
String
p6488
(dp6489
g39
S'nom'
p6490
sbsg22
(iplugins.pylisp
Nil
p6491
(dp6492
bsbsbsbsg22
(iplugins.pylisp
ConsCell
p6493
(dp6494
g16
(iplugins.pylisp
String
p6495
(dp6496
g39
g67
sbsg22
(iplugins.pylisp
Nil
p6497
(dp6498
bsbsbsbsg22
(iplugins.pylisp
Nil
p6499
(dp6500
bsbsbsbsg22
(iplugins.pylisp
Nil
p6501
(dp6502
bsbsbsg94
(iplugins.pylisp
ConsCell
p6503
(dp6504
g16
(iplugins.pylisp
Symbol
p6505
(dp6506
g6
g34
sbsg22
(iplugins.pylisp
Nil
p6507
(dp6508
bsbsg105
g0
sbs(iplugins.pylisp
Symbol
p6509
(dp6510
g108
S'test'
p6511
sb(iplugins.pylisp
Integer
p6512
(dp6513
g4862
I4
sbs(iplugins.pylisp
Symbol
p6514
(dp6515
g5206
S'aduno'
p6516
sb(iplugins.pylisp
Symbol
p6517
(dp6518
g5206
S'\xc2\xaf\\{o_\xc2\xba}/\xc2\xaf'
p6519
sbs(iplugins.pylisp
Symbol
p6520
(dp6521
g6
S'approximate-pi'
p6522
sb(iplugins.pylisp
Lambda
p6523
(dp6524
g10
(iplugins.pylisp
ExpressionBody
p6525
(dp6526
g13
(iplugins.pylisp
ConsCell
p6527
(dp6528
g16
(iplugins.pylisp
ConsCell
p6529
(dp6530
g16
(iplugins.pylisp
Symbol
p6531
(dp6532
g6
S'if'
p6533
sbsg22
(iplugins.pylisp
ConsCell
p6534
(dp6535
g16
(iplugins.pylisp
ConsCell
p6536
(dp6537
g16
(iplugins.pylisp
Symbol
p6538
(dp6539
g6
g29
sbsg22
(iplugins.pylisp
ConsCell
p6540
(dp6541
g16
(iplugins.pylisp
Symbol
p6542
(dp6543
g6
S'm'
p6544
sbsg22
(iplugins.pylisp
ConsCell
p6545
(dp6546
g16
(iplugins.pylisp
Symbol
p6547
(dp6548
g6
S'-1'
p6549
sbsg22
(iplugins.pylisp
Nil
p6550
(dp6551
bsbsbsbsg22
(iplugins.pylisp
ConsCell
p6552
(dp6553
g16
(iplugins.pylisp
Integer
p6554
(dp6555
g39
I1
sbsg22
(iplugins.pylisp
ConsCell
p6556
(dp6557
g16
(iplugins.pylisp
ConsCell
p6558
(dp6559
g16
(iplugins.pylisp
Symbol
p6560
(dp6561
g6
g1565
sbsg22
(iplugins.pylisp
ConsCell
p6562
(dp6563
g16
(iplugins.pylisp
ConsCell
p6564
(dp6565
g16
(iplugins.pylisp
Symbol
p6566
(dp6567
g6
S'*'
p6568
sbsg22
(iplugins.pylisp
ConsCell
p6569
(dp6570
g16
(iplugins.pylisp
Integer
p6571
(dp6572
g39
I4
sbsg22
(iplugins.pylisp
ConsCell
p6573
(dp6574
g16
(iplugins.pylisp
ConsCell
p6575
(dp6576
g16
(iplugins.pylisp
Symbol
p6577
(dp6578
g6
S'pow'
p6579
sbsg22
(iplugins.pylisp
ConsCell
p6580
(dp6581
g16
(iplugins.pylisp
Symbol
p6582
(dp6583
g6
S'-1'
p6584
sbsg22
(iplugins.pylisp
ConsCell
p6585
(dp6586
g16
(iplugins.pylisp
Symbol
p6587
(dp6588
g6
g6544
sbsg22
(iplugins.pylisp
Nil
p6589
(dp6590
bsbsbsbsg22
(iplugins.pylisp
Nil
p6591
(dp6592
bsbsbsbsg22
(iplugins.pylisp
ConsCell
p6593
(dp6594
g16
(iplugins.pylisp
ConsCell
p6595
(dp6596
g16
(iplugins.pylisp
Symbol
p6597
(dp6598
g6
S'+'
p6599
sbsg22
(iplugins.pylisp
ConsCell
p6600
(dp6601
g16
(iplugins.pylisp
ConsCell
p6602
(dp6603
g16
(iplugins.pylisp
Symbol
p6604
(dp6605
g6
g6568
sbsg22
(iplugins.pylisp
ConsCell
p6606
(dp6607
g16
(iplugins.pylisp
Integer
p6608
(dp6609
g39
I2
sbsg22
(iplugins.pylisp
ConsCell
p6610
(dp6611
g16
(iplugins.pylisp
Symbol
p6612
(dp6613
g6
g6544
sbsg22
(iplugins.pylisp
Nil
p6614
(dp6615
bsbsbsbsg22
(iplugins.pylisp
ConsCell
p6616
(dp6617
g16
(iplugins.pylisp
Integer
p6618
(dp6619
g39
I1
sbsg22
(iplugins.pylisp
Nil
p6620
(dp6621
bsbsbsbsg22
(iplugins.pylisp
Nil
p6622
(dp6623
bsbsbsbsg22
(iplugins.pylisp
Nil
p6624
(dp6625
bsbsbsbsbsg22
(iplugins.pylisp
Nil
p6626
(dp6627
bsbsbsg94
(iplugins.pylisp
ConsCell
p6628
(dp6629
g16
(iplugins.pylisp
Symbol
p6630
(dp6631
g6
g6544
sbsg22
(iplugins.pylisp
Nil
p6632
(dp6633
bsbsg105
g0
sbs(iplugins.pylisp
Symbol
p6634
(dp6635
g1521
S'nil'
p6636
sbg6207
s(iplugins.pylisp
Symbol
p6637
(dp6638
S'name'
p6639
S'add-together'
p6640
sb(iplugins.pylisp
Macro
p6641
(dp6642
S'expression'
p6643
(iplugins.pylisp
ConsCell
p6644
(dp6645
S'car'
p6646
(iplugins.pylisp
Symbol
p6647
(dp6648
S'name'
p6649
S'+'
p6650
sbsS'cdr'
p6651
(iplugins.pylisp
ConsCell
p6652
(dp6653
g6646
(iplugins.pylisp
Symbol
p6654
(dp6655
g6649
S'o'
p6656
sbsg6651
(iplugins.pylisp
ConsCell
p6657
(dp6658
g6646
(iplugins.pylisp
Symbol
p6659
(dp6660
g6649
S'p'
p6661
sbsg6651
(iplugins.pylisp
Nil
p6662
(dp6663
bsbsbsbsS'parameters'
p6664
(iplugins.pylisp
ConsCell
p6665
(dp6666
g6646
(iplugins.pylisp
Symbol
p6667
(dp6668
g6649
g6656
sbsg6651
(iplugins.pylisp
ConsCell
p6669
(dp6670
g6646
(iplugins.pylisp
Symbol
p6671
(dp6672
g6649
g6661
sbsg6651
(iplugins.pylisp
Nil
p6673
(dp6674
bsbsbsS'env'
p6675
g0
sbs(iplugins.pylisp
Symbol
p6676
(dp6677
g6074
S'simplify'
p6678
sb(iplugins.pylisp
Lambda
p6679
(dp6680
g6078
(iplugins.pylisp
ExpressionBody
p6681
(dp6682
g6081
(iplugins.pylisp
ConsCell
p6683
(dp6684
g6084
(iplugins.pylisp
ConsCell
p6685
(dp6686
g6084
(iplugins.pylisp
Symbol
p6687
(dp6688
g6074
S'let*'
p6689
sbsg6090
(iplugins.pylisp
ConsCell
p6690
(dp6691
g6084
(iplugins.pylisp
ConsCell
p6692
(dp6693
g6084
(iplugins.pylisp
ConsCell
p6694
(dp6695
g6084
(iplugins.pylisp
Symbol
p6696
(dp6697
g6074
S'dividend'
p6698
sbsg6090
(iplugins.pylisp
ConsCell
p6699
(dp6700
g6084
(iplugins.pylisp
ConsCell
p6701
(dp6702
g6084
(iplugins.pylisp
Symbol
p6703
(dp6704
g6074
S'car'
p6705
sbsg6090
(iplugins.pylisp
ConsCell
p6706
(dp6707
g6084
(iplugins.pylisp
Symbol
p6708
(dp6709
g6074
S'rat'
p6710
sbsg6090
(iplugins.pylisp
Nil
p6711
(dp6712
bsbsbsg6090
(iplugins.pylisp
Nil
p6713
(dp6714
bsbsbsg6090
(iplugins.pylisp
ConsCell
p6715
(dp6716
g6084
(iplugins.pylisp
ConsCell
p6717
(dp6718
g6084
(iplugins.pylisp
Symbol
p6719
(dp6720
g6074
S'divisor'
p6721
sbsg6090
(iplugins.pylisp
ConsCell
p6722
(dp6723
g6084
(iplugins.pylisp
ConsCell
p6724
(dp6725
g6084
(iplugins.pylisp
Symbol
p6726
(dp6727
g6074
S'cdr'
p6728
sbsg6090
(iplugins.pylisp
ConsCell
p6729
(dp6730
g6084
(iplugins.pylisp
Symbol
p6731
(dp6732
g6074
S'rat'
p6733
sbsg6090
(iplugins.pylisp
Nil
p6734
(dp6735
bsbsbsg6090
(iplugins.pylisp
Nil
p6736
(dp6737
bsbsbsg6090
(iplugins.pylisp
ConsCell
p6738
(dp6739
g6084
(iplugins.pylisp
ConsCell
p6740
(dp6741
g6084
(iplugins.pylisp
Symbol
p6742
(dp6743
g6074
S't'
p6744
sbsg6090
(iplugins.pylisp
ConsCell
p6745
(dp6746
g6084
(iplugins.pylisp
ConsCell
p6747
(dp6748
g6084
(iplugins.pylisp
Symbol
p6749
(dp6750
g6074
S'gcd'
p6751
sbsg6090
(iplugins.pylisp
ConsCell
p6752
(dp6753
g6084
(iplugins.pylisp
Symbol
p6754
(dp6755
g6074
S'dividend'
p6756
sbsg6090
(iplugins.pylisp
ConsCell
p6757
(dp6758
g6084
(iplugins.pylisp
Symbol
p6759
(dp6760
g6074
S'divisor'
p6761
sbsg6090
(iplugins.pylisp
Nil
p6762
(dp6763
bsbsbsbsg6090
(iplugins.pylisp
Nil
p6764
(dp6765
bsbsbsg6090
(iplugins.pylisp
Nil
p6766
(dp6767
bsbsbsbsg6090
(iplugins.pylisp
ConsCell
p6768
(dp6769
g6084
(iplugins.pylisp
ConsCell
p6770
(dp6771
g6084
(iplugins.pylisp
Symbol
p6772
(dp6773
g6074
S'if'
p6774
sbsg6090
(iplugins.pylisp
ConsCell
p6775
(dp6776
g6084
(iplugins.pylisp
ConsCell
p6777
(dp6778
g6084
(iplugins.pylisp
Symbol
p6779
(dp6780
g6074
g6140
sbsg6090
(iplugins.pylisp
ConsCell
p6781
(dp6782
g6084
(iplugins.pylisp
Symbol
p6783
(dp6784
g6074
g6744
sbsg6090
(iplugins.pylisp
ConsCell
p6785
(dp6786
g6084
(iplugins.pylisp
Integer
p6787
(dp6788
g6149
I1
sbsg6090
(iplugins.pylisp
Nil
p6789
(dp6790
bsbsbsbsg6090
(iplugins.pylisp
ConsCell
p6791
(dp6792
g6084
(iplugins.pylisp
ConsCell
p6793
(dp6794
g6084
(iplugins.pylisp
Symbol
p6795
(dp6796
g6074
S'cons'
p6797
sbsg6090
(iplugins.pylisp
ConsCell
p6798
(dp6799
g6084
(iplugins.pylisp
Symbol
p6800
(dp6801
g6074
S'dividend'
p6802
sbsg6090
(iplugins.pylisp
ConsCell
p6803
(dp6804
g6084
(iplugins.pylisp
Symbol
p6805
(dp6806
g6074
S'divisor'
p6807
sbsg6090
(iplugins.pylisp
Nil
p6808
(dp6809
bsbsbsbsg6090
(iplugins.pylisp
ConsCell
p6810
(dp6811
g6084
(iplugins.pylisp
ConsCell
p6812
(dp6813
g6084
(iplugins.pylisp
Symbol
p6814
(dp6815
g6074
S'simplify'
p6816
sbsg6090
(iplugins.pylisp
ConsCell
p6817
(dp6818
g6084
(iplugins.pylisp
ConsCell
p6819
(dp6820
g6084
(iplugins.pylisp
Symbol
p6821
(dp6822
g6074
S'cons'
p6823
sbsg6090
(iplugins.pylisp
ConsCell
p6824
(dp6825
g6084
(iplugins.pylisp
ConsCell
p6826
(dp6827
g6084
(iplugins.pylisp
Symbol
p6828
(dp6829
g6074
S'/'
p6830
sbsg6090
(iplugins.pylisp
ConsCell
p6831
(dp6832
g6084
(iplugins.pylisp
Symbol
p6833
(dp6834
g6074
S'dividend'
p6835
sbsg6090
(iplugins.pylisp
ConsCell
p6836
(dp6837
g6084
(iplugins.pylisp
Symbol
p6838
(dp6839
g6074
g6744
sbsg6090
(iplugins.pylisp
Nil
p6840
(dp6841
bsbsbsbsg6090
(iplugins.pylisp
ConsCell
p6842
(dp6843
g6084
(iplugins.pylisp
ConsCell
p6844
(dp6845
g6084
(iplugins.pylisp
Symbol
p6846
(dp6847
g6074
g6830
sbsg6090
(iplugins.pylisp
ConsCell
p6848
(dp6849
g6084
(iplugins.pylisp
Symbol
p6850
(dp6851
g6074
S'divisor'
p6852
sbsg6090
(iplugins.pylisp
ConsCell
p6853
(dp6854
g6084
(iplugins.pylisp
Symbol
p6855
(dp6856
g6074
g6744
sbsg6090
(iplugins.pylisp
Nil
p6857
(dp6858
bsbsbsbsg6090
(iplugins.pylisp
Nil
p6859
(dp6860
bsbsbsbsg6090
(iplugins.pylisp
Nil
p6861
(dp6862
bsbsbsg6090
(iplugins.pylisp
Nil
p6863
(dp6864
bsbsbsbsbsg6090
(iplugins.pylisp
Nil
p6865
(dp6866
bsbsbsbsg6090
(iplugins.pylisp
Nil
p6867
(dp6868
bsbsbsg6192
(iplugins.pylisp
ConsCell
p6869
(dp6870
g6084
(iplugins.pylisp
Symbol
p6871
(dp6872
g6074
S'rat'
p6873
sbsg6090
(iplugins.pylisp
Nil
p6874
(dp6875
bsbsg6203
g0
sbs(iplugins.pylisp
Symbol
p6876
(dp6877
g6
S'dxk\xc3\xb6p'
p6878
sb(iplugins.pylisp
Lambda
p6879
(dp6880
g10
(iplugins.pylisp
ExpressionBody
p6881
(dp6882
g13
(iplugins.pylisp
ConsCell
p6883
(dp6884
g16
(iplugins.pylisp
ConsCell
p6885
(dp6886
g16
(iplugins.pylisp
Symbol
p6887
(dp6888
g6
S'str-append'
p6889
sbsg22
(iplugins.pylisp
ConsCell
p6890
(dp6891
g16
(iplugins.pylisp
ConsCell
p6892
(dp6893
g16
(iplugins.pylisp
Symbol
p6894
(dp6895
g6
S'str-append'
p6896
sbsg22
(iplugins.pylisp
ConsCell
p6897
(dp6898
g16
(iplugins.pylisp
ConsCell
p6899
(dp6900
g16
(iplugins.pylisp
Symbol
p6901
(dp6902
g6
S'str-append'
p6903
sbsg22
(iplugins.pylisp
ConsCell
p6904
(dp6905
g16
(iplugins.pylisp
String
p6906
(dp6907
g39
g2302
sbsg22
(iplugins.pylisp
ConsCell
p6908
(dp6909
g16
(iplugins.pylisp
ConsCell
p6910
(dp6911
g16
(iplugins.pylisp
Symbol
p6912
(dp6913
g6
S'str-append'
p6914
sbsg22
(iplugins.pylisp
ConsCell
p6915
(dp6916
g16
(iplugins.pylisp
ConsCell
p6917
(dp6918
g16
(iplugins.pylisp
Symbol
p6919
(dp6920
g6
S'stimes'
p6921
sbsg22
(iplugins.pylisp
ConsCell
p6922
(dp6923
g16
(iplugins.pylisp
Symbol
p6924
(dp6925
g6
g34
sbsg22
(iplugins.pylisp
ConsCell
p6926
(dp6927
g16
(iplugins.pylisp
String
p6928
(dp6929
g39
S'\xc3\xb6'
p6930
sbsg22
(iplugins.pylisp
Nil
p6931
(dp6932
bsbsbsbsg22
(iplugins.pylisp
ConsCell
p6933
(dp6934
g16
(iplugins.pylisp
String
p6935
(dp6936
g39
g2332
sbsg22
(iplugins.pylisp
Nil
p6937
(dp6938
bsbsbsbsg22
(iplugins.pylisp
Nil
p6939
(dp6940
bsbsbsbsg22
(iplugins.pylisp
ConsCell
p6941
(dp6942
g16
(iplugins.pylisp
String
p6943
(dp6944
g39
S': '
p6945
sbsg22
(iplugins.pylisp
Nil
p6946
(dp6947
bsbsbsbsg22
(iplugins.pylisp
ConsCell
p6948
(dp6949
g16
(iplugins.pylisp
ConsCell
p6950
(dp6951
g16
(iplugins.pylisp
Symbol
p6952
(dp6953
g6
S'dxrandom'
p6954
sbsg22
(iplugins.pylisp
Nil
p6955
(dp6956
bsbsg22
(iplugins.pylisp
Nil
p6957
(dp6958
bsbsbsbsg22
(iplugins.pylisp
Nil
p6959
(dp6960
bsbsbsg94
(iplugins.pylisp
ConsCell
p6961
(dp6962
g16
(iplugins.pylisp
Symbol
p6963
(dp6964
g6
g34
sbsg22
(iplugins.pylisp
Nil
p6965
(dp6966
bsbsg105
g0
sbs(iplugins.pylisp
Symbol
p6967
(dp6968
g2074
S'identity'
p6969
sb(iplugins.pylisp
Lambda
p6970
(dp6971
g4145
(iplugins.pylisp
ExpressionBody
p6972
(dp6973
g4148
(iplugins.pylisp
ConsCell
p6974
(dp6975
g2775
(iplugins.pylisp
Symbol
p6976
(dp6977
g2074
S'o'
p6978
sbsg2779
(iplugins.pylisp
Nil
p6979
(dp6980
bsbsbsg4173
(iplugins.pylisp
ConsCell
p6981
(dp6982
g2775
(iplugins.pylisp
Symbol
p6983
(dp6984
g2074
g6978
sbsg2779
(iplugins.pylisp
Nil
p6985
(dp6986
bsbsg4181
g0
sbs(iplugins.pylisp
Symbol
p6987
(dp6988
g2074
S'\xe7\xb2\xbe\xe8\x82\x89'
p6989
sb(iplugins.pylisp
Symbol
p6990
(dp6991
g2074
S'k\xc3\xb6tt'
p6992
sbs(iplugins.pylisp
Symbol
p6993
(dp6994
g1639
S'third'
p6995
sb(iplugins.pylisp
Lambda
p6996
(dp6997
g1643
(iplugins.pylisp
ExpressionBody
p6998
(dp6999
g1646
(iplugins.pylisp
ConsCell
p7000
(dp7001
g1649
(iplugins.pylisp
ConsCell
p7002
(dp7003
g1649
(iplugins.pylisp
Symbol
p7004
(dp7005
g1639
S'nth'
p7006
sbsg1655
(iplugins.pylisp
ConsCell
p7007
(dp7008
g1649
(iplugins.pylisp
Symbol
p7009
(dp7010
g1639
g1868
sbsg1655
(iplugins.pylisp
ConsCell
p7011
(dp7012
g1649
(iplugins.pylisp
Integer
p7013
(dp7014
g1660
I2
sbsg1655
(iplugins.pylisp
Nil
p7015
(dp7016
bsbsbsbsg1655
(iplugins.pylisp
Nil
p7017
(dp7018
bsbsbsg1671
(iplugins.pylisp
ConsCell
p7019
(dp7020
g1649
(iplugins.pylisp
Symbol
p7021
(dp7022
g1639
g1868
sbsg1655
(iplugins.pylisp
Nil
p7023
(dp7024
bsbsg1678
g0
sbs(iplugins.pylisp
Symbol
p7025
(dp7026
g6
S'nomrate'
p7027
sb(iplugins.pylisp
Lambda
p7028
(dp7029
g10
(iplugins.pylisp
ExpressionBody
p7030
(dp7031
g13
(iplugins.pylisp
ConsCell
p7032
(dp7033
g16
(iplugins.pylisp
ConsCell
p7034
(dp7035
g16
(iplugins.pylisp
Symbol
p7036
(dp7037
g6
S'str-join'
p7038
sbsg22
(iplugins.pylisp
ConsCell
p7039
(dp7040
g16
(iplugins.pylisp
ConsCell
p7041
(dp7042
g16
(iplugins.pylisp
Symbol
p7043
(dp7044
g6
S'list'
p7045
sbsg22
(iplugins.pylisp
ConsCell
p7046
(dp7047
g16
(iplugins.pylisp
ConsCell
p7048
(dp7049
g16
(iplugins.pylisp
Symbol
p7050
(dp7051
g6
S'omnom'
p7052
sbsg22
(iplugins.pylisp
ConsCell
p7053
(dp7054
g16
(iplugins.pylisp
ConsCell
p7055
(dp7056
g16
(iplugins.pylisp
Symbol
p7057
(dp7058
g6
S'rand'
p7059
sbsg22
(iplugins.pylisp
ConsCell
p7060
(dp7061
g16
(iplugins.pylisp
Integer
p7062
(dp7063
g39
I10
sbsg22
(iplugins.pylisp
Nil
p7064
(dp7065
bsbsbsg22
(iplugins.pylisp
Nil
p7066
(dp7067
bsbsbsg22
(iplugins.pylisp
ConsCell
p7068
(dp7069
g16
(iplugins.pylisp
Symbol
p7070
(dp7071
g6
S'name'
p7072
sbsg22
(iplugins.pylisp
Nil
p7073
(dp7074
bsbsbsbsg22
(iplugins.pylisp
ConsCell
p7075
(dp7076
g16
(iplugins.pylisp
String
p7077
(dp7078
g39
S': '
p7079
sbsg22
(iplugins.pylisp
Nil
p7080
(dp7081
bsbsbsbsg22
(iplugins.pylisp
Nil
p7082
(dp7083
bsbsbsg94
(iplugins.pylisp
ConsCell
p7084
(dp7085
g16
(iplugins.pylisp
Symbol
p7086
(dp7087
g6
S'name'
p7088
sbsg22
(iplugins.pylisp
Nil
p7089
(dp7090
bsbsg105
g0
sbs(iplugins.pylisp
Symbol
p7091
(dp7092
g5773
S'k\xc3\xb6pstatus'
p7093
sb(iplugins.pylisp
Lambda
p7094
(dp7095
S'expression'
p7096
(iplugins.pylisp
ExpressionBody
p7097
(dp7098
S'expressions'
p7099
(iplugins.pylisp
ConsCell
p7100
(dp7101
S'car'
p7102
(iplugins.pylisp
ConsCell
p7103
(dp7104
g7102
(iplugins.pylisp
Symbol
p7105
(dp7106
g5773
S'command'
p7107
sbsS'cdr'
p7108
(iplugins.pylisp
ConsCell
p7109
(dp7110
g7102
(iplugins.pylisp
String
p7111
(dp7112
S'value'
p7113
S'kolli'
p7114
sbsg7108
(iplugins.pylisp
ConsCell
p7115
(dp7116
g7102
(iplugins.pylisp
String
p7117
(dp7118
g7113
S'RT036991925HK'
p7119
sbsg7108
(iplugins.pylisp
Nil
p7120
(dp7121
bsbsbsbsg7108
(iplugins.pylisp
Nil
p7122
(dp7123
bsbsbsS'parameters'
p7124
(iplugins.pylisp
Nil
p7125
(dp7126
bsS'env'
p7127
g0
sbs(iplugins.pylisp
Symbol
p7128
(dp7129
g420
S'setq'
p7130
sb(iplugins.pylisp
Lambda
p7131
(dp7132
g1802
(iplugins.pylisp
ExpressionBody
p7133
(dp7134
g1805
(iplugins.pylisp
ConsCell
p7135
(dp7136
g424
(iplugins.pylisp
ConsCell
p7137
(dp7138
g424
(iplugins.pylisp
Symbol
p7139
(dp7140
g420
S'print'
p7141
sbsg428
(iplugins.pylisp
ConsCell
p7142
(dp7143
g424
(iplugins.pylisp
String
p7144
(dp7145
g1419
S'nej du!'
p7146
sbsg428
(iplugins.pylisp
Nil
p7147
(dp7148
bsbsbsg428
(iplugins.pylisp
Nil
p7149
(dp7150
bsbsbsg1822
(iplugins.pylisp
ConsCell
p7151
(dp7152
g424
(iplugins.pylisp
Symbol
p7153
(dp7154
g420
g2273
sbsg428
(iplugins.pylisp
ConsCell
p7155
(dp7156
g424
(iplugins.pylisp
Symbol
p7157
(dp7158
g420
S'y'
p7159
sbsg428
(iplugins.pylisp
Nil
p7160
(dp7161
bsbsbsg1825
g0
sbs(iplugins.pylisp
Symbol
p7162
(dp7163
g858
S'time'
p7164
sb(iplugins.pylisp
Lambda
p7165
(dp7166
g847
(iplugins.pylisp
ExpressionBody
p7167
(dp7168
g850
(iplugins.pylisp
ConsCell
p7169
(dp7170
g853
(iplugins.pylisp
ConsCell
p7171
(dp7172
g853
(iplugins.pylisp
Symbol
p7173
(dp7174
g858
S'str-split'
p7175
sbsg860
(iplugins.pylisp
ConsCell
p7176
(dp7177
g853
(iplugins.pylisp
ConsCell
p7178
(dp7179
g853
(iplugins.pylisp
Symbol
p7180
(dp7181
g858
S'car'
p7182
sbsg860
(iplugins.pylisp
ConsCell
p7183
(dp7184
g853
(iplugins.pylisp
ConsCell
p7185
(dp7186
g853
(iplugins.pylisp
Symbol
p7187
(dp7188
g858
S'str-split'
p7189
sbsg860
(iplugins.pylisp
ConsCell
p7190
(dp7191
g853
(iplugins.pylisp
ConsCell
p7192
(dp7193
g853
(iplugins.pylisp
Symbol
p7194
(dp7195
g858
S'nth'
p7196
sbsg860
(iplugins.pylisp
ConsCell
p7197
(dp7198
g853
(iplugins.pylisp
Integer
p7199
(dp7200
g865
I1
sbsg860
(iplugins.pylisp
ConsCell
p7201
(dp7202
g853
(iplugins.pylisp
ConsCell
p7203
(dp7204
g853
(iplugins.pylisp
Symbol
p7205
(dp7206
g858
S'str-split'
p7207
sbsg860
(iplugins.pylisp
ConsCell
p7208
(dp7209
g853
(iplugins.pylisp
ConsCell
p7210
(dp7211
g853
(iplugins.pylisp
Symbol
p7212
(dp7213
g858
S'command'
p7214
sbsg860
(iplugins.pylisp
ConsCell
p7215
(dp7216
g853
(iplugins.pylisp
String
p7217
(dp7218
g865
S'time'
p7219
sbsg860
(iplugins.pylisp
ConsCell
p7220
(dp7221
g853
(iplugins.pylisp
String
p7222
(dp7223
g865
S'lispnik'
p7224
sbsg860
(iplugins.pylisp
Nil
p7225
(dp7226
bsbsbsbsg860
(iplugins.pylisp
ConsCell
p7227
(dp7228
g853
(iplugins.pylisp
String
p7229
(dp7230
g865
S'T'
p7231
sbsg860
(iplugins.pylisp
Nil
p7232
(dp7233
bsbsbsbsg860
(iplugins.pylisp
Nil
p7234
(dp7235
bsbsbsbsg860
(iplugins.pylisp
ConsCell
p7236
(dp7237
g853
(iplugins.pylisp
String
p7238
(dp7239
g865
S'.'
p7240
sbsg860
(iplugins.pylisp
Nil
p7241
(dp7242
bsbsbsbsg860
(iplugins.pylisp
Nil
p7243
(dp7244
bsbsbsg860
(iplugins.pylisp
ConsCell
p7245
(dp7246
g853
(iplugins.pylisp
String
p7247
(dp7248
g865
S':'
p7249
sbsg860
(iplugins.pylisp
Nil
p7250
(dp7251
bsbsbsbsg860
(iplugins.pylisp
Nil
p7252
(dp7253
bsbsbsg870
(iplugins.pylisp
Nil
p7254
(dp7255
bsg873
g0
sbs(iplugins.pylisp
Symbol
p7256
(dp7257
g1167
S'hello'
p7258
sb(iplugins.pylisp
Lambda
p7259
(dp7260
g1171
(iplugins.pylisp
ExpressionBody
p7261
(dp7262
g1174
(iplugins.pylisp
ConsCell
p7263
(dp7264
g1177
(iplugins.pylisp
ConsCell
p7265
(dp7266
g1177
(iplugins.pylisp
Symbol
p7267
(dp7268
g1167
S'print'
p7269
sbsg1183
(iplugins.pylisp
ConsCell
p7270
(dp7271
g1177
(iplugins.pylisp
ConsCell
p7272
(dp7273
g1177
(iplugins.pylisp
Symbol
p7274
(dp7275
g1167
S'str-append'
p7276
sbsg1183
(iplugins.pylisp
ConsCell
p7277
(dp7278
g1177
(iplugins.pylisp
String
p7279
(dp7280
g4456
S'hello '
p7281
sbsg1183
(iplugins.pylisp
ConsCell
p7282
(dp7283
g1177
(iplugins.pylisp
Symbol
p7284
(dp7285
g1167
S'name'
p7286
sbsg1183
(iplugins.pylisp
Nil
p7287
(dp7288
bsbsbsbsg1183
(iplugins.pylisp
Nil
p7289
(dp7290
bsbsbsg1183
(iplugins.pylisp
Nil
p7291
(dp7292
bsbsbsg1224
(iplugins.pylisp
ConsCell
p7293
(dp7294
g1177
(iplugins.pylisp
Symbol
p7295
(dp7296
g1167
S'name'
p7297
sbsg1183
(iplugins.pylisp
Nil
p7298
(dp7299
bsbsg1235
g0
sbssS'parent'
p7300
Nsb.