(iplugins.pylisp
Environment
p0
(dp1
S'dictionary'
p2
(dp3
(iplugins.pylisp
Symbol
p4
(dp5
S'name'
p6
S'stimes'
p7
sb(iplugins.pylisp
Lambda
p8
(dp9
S'expression'
p10
(iplugins.pylisp
ExpressionBody
p11
(dp12
S'expressions'
p13
(iplugins.pylisp
ConsCell
p14
(dp15
S'car'
p16
(iplugins.pylisp
ConsCell
p17
(dp18
g16
(iplugins.pylisp
Symbol
p19
(dp20
g6
S'if'
p21
sbsS'cdr'
p22
(iplugins.pylisp
ConsCell
p23
(dp24
g16
(iplugins.pylisp
ConsCell
p25
(dp26
g16
(iplugins.pylisp
Symbol
p27
(dp28
g6
S'='
p29
sbsg22
(iplugins.pylisp
ConsCell
p30
(dp31
g16
(iplugins.pylisp
Symbol
p32
(dp33
g6
S'n'
p34
sbsg22
(iplugins.pylisp
ConsCell
p35
(dp36
g16
(iplugins.pylisp
Integer
p37
(dp38
S'value'
p39
I1
sbsg22
(iplugins.pylisp
Nil
p40
(dp41
bsbsbsbsg22
(iplugins.pylisp
ConsCell
p42
(dp43
g16
(iplugins.pylisp
Symbol
p44
(dp45
g6
S's'
p46
sbsg22
(iplugins.pylisp
ConsCell
p47
(dp48
g16
(iplugins.pylisp
ConsCell
p49
(dp50
g16
(iplugins.pylisp
Symbol
p51
(dp52
g6
S'str-append'
p53
sbsg22
(iplugins.pylisp
ConsCell
p54
(dp55
g16
(iplugins.pylisp
ConsCell
p56
(dp57
g16
(iplugins.pylisp
Symbol
p58
(dp59
g6
S'stimes'
p60
sbsg22
(iplugins.pylisp
ConsCell
p61
(dp62
g16
(iplugins.pylisp
ConsCell
p63
(dp64
g16
(iplugins.pylisp
Symbol
p65
(dp66
g6
S'-'
p67
sbsg22
(iplugins.pylisp
ConsCell
p68
(dp69
g16
(iplugins.pylisp
Symbol
p70
(dp71
g6
g34
sbsg22
(iplugins.pylisp
ConsCell
p72
(dp73
g16
(iplugins.pylisp
Integer
p74
(dp75
g39
I1
sbsg22
(iplugins.pylisp
Nil
p76
(dp77
bsbsbsbsg22
(iplugins.pylisp
ConsCell
p78
(dp79
g16
(iplugins.pylisp
Symbol
p80
(dp81
g6
g46
sbsg22
(iplugins.pylisp
Nil
p82
(dp83
bsbsbsbsg22
(iplugins.pylisp
ConsCell
p84
(dp85
g16
(iplugins.pylisp
Symbol
p86
(dp87
g6
g46
sbsg22
(iplugins.pylisp
Nil
p88
(dp89
bsbsbsbsg22
(iplugins.pylisp
Nil
p90
(dp91
bsbsbsbsbsg22
(iplugins.pylisp
Nil
p92
(dp93
bsbsbsS'parameters'
p94
(iplugins.pylisp
ConsCell
p95
(dp96
g16
(iplugins.pylisp
Symbol
p97
(dp98
g6
g34
sbsg22
(iplugins.pylisp
ConsCell
p99
(dp100
g16
(iplugins.pylisp
Symbol
p101
(dp102
g6
g46
sbsg22
(iplugins.pylisp
Nil
p103
(dp104
bsbsbsS'env'
p105
g0
sbs(iplugins.pylisp
Symbol
p106
(dp107
S'name'
p108
S'runpa'
p109
sb(iplugins.pylisp
Dot
p110
(dp111
bs(iplugins.pylisp
Symbol
p112
(dp113
S'name'
p114
S'recurcons'
p115
sb(iplugins.pylisp
Lambda
p116
(dp117
S'expression'
p118
(iplugins.pylisp
ExpressionBody
p119
(dp120
S'expressions'
p121
(iplugins.pylisp
ConsCell
p122
(dp123
S'car'
p124
(iplugins.pylisp
ConsCell
p125
(dp126
g124
(iplugins.pylisp
Symbol
p127
(dp128
g114
S'if'
p129
sbsS'cdr'
p130
(iplugins.pylisp
ConsCell
p131
(dp132
g124
(iplugins.pylisp
ConsCell
p133
(dp134
g124
(iplugins.pylisp
Symbol
p135
(dp136
g114
S'endp'
p137
sbsg130
(iplugins.pylisp
ConsCell
p138
(dp139
g124
(iplugins.pylisp
Symbol
p140
(dp141
g114
S'l'
p142
sbsg130
(iplugins.pylisp
Nil
p143
(dp144
bsbsbsg130
(iplugins.pylisp
ConsCell
p145
(dp146
g124
(iplugins.pylisp
Quoted
p147
(dp148
S'quoted_expression'
p149
(iplugins.pylisp
Nil
p150
(dp151
bsbsg130
(iplugins.pylisp
ConsCell
p152
(dp153
g124
(iplugins.pylisp
ConsCell
p154
(dp155
g124
(iplugins.pylisp
Symbol
p156
(dp157
g114
S'cons'
p158
sbsg130
(iplugins.pylisp
ConsCell
p159
(dp160
g124
(iplugins.pylisp
ConsCell
p161
(dp162
g124
(iplugins.pylisp
Symbol
p163
(dp164
g114
S'cons'
p165
sbsg130
(iplugins.pylisp
ConsCell
p166
(dp167
g124
(iplugins.pylisp
Symbol
p168
(dp169
g114
S'a'
p170
sbsg130
(iplugins.pylisp
ConsCell
p171
(dp172
g124
(iplugins.pylisp
ConsCell
p173
(dp174
g124
(iplugins.pylisp
Symbol
p175
(dp176
g114
S'first'
p177
sbsg130
(iplugins.pylisp
ConsCell
p178
(dp179
g124
(iplugins.pylisp
Symbol
p180
(dp181
g114
g142
sbsg130
(iplugins.pylisp
Nil
p182
(dp183
bsbsbsg130
(iplugins.pylisp
Nil
p184
(dp185
bsbsbsbsg130
(iplugins.pylisp
ConsCell
p186
(dp187
g124
(iplugins.pylisp
ConsCell
p188
(dp189
g124
(iplugins.pylisp
Symbol
p190
(dp191
g114
S'recurcons'
p192
sbsg130
(iplugins.pylisp
ConsCell
p193
(dp194
g124
(iplugins.pylisp
Symbol
p195
(dp196
g114
g170
sbsg130
(iplugins.pylisp
ConsCell
p197
(dp198
g124
(iplugins.pylisp
ConsCell
p199
(dp200
g124
(iplugins.pylisp
Symbol
p201
(dp202
g114
S'rest'
p203
sbsg130
(iplugins.pylisp
ConsCell
p204
(dp205
g124
(iplugins.pylisp
Symbol
p206
(dp207
g114
g142
sbsg130
(iplugins.pylisp
Nil
p208
(dp209
bsbsbsg130
(iplugins.pylisp
Nil
p210
(dp211
bsbsbsbsg130
(iplugins.pylisp
Nil
p212
(dp213
bsbsbsbsg130
(iplugins.pylisp
Nil
p214
(dp215
bsbsbsbsbsg130
(iplugins.pylisp
Nil
p216
(dp217
bsbsbsS'parameters'
p218
(iplugins.pylisp
ConsCell
p219
(dp220
g124
(iplugins.pylisp
Symbol
p221
(dp222
g114
g170
sbsg130
(iplugins.pylisp
ConsCell
p223
(dp224
g124
(iplugins.pylisp
Symbol
p225
(dp226
g114
g142
sbsg130
(iplugins.pylisp
Nil
p227
(dp228
bsbsbsS'env'
p229
g0
sbs(iplugins.pylisp
Symbol
p230
(dp231
S'name'
p232
S'rest'
p233
sb(iplugins.pylisp
NativeFunction
p234
(dp235
S'function'
p236
cplugins.pylisp
cdr_func
p237
sS'num_args'
p238
I1
sg232
S'cdr'
p239
sbs(iplugins.pylisp
Symbol
p240
(dp241
S'name'
p242
S'pascal'
p243
sb(iplugins.pylisp
Lambda
p244
(dp245
S'expression'
p246
(iplugins.pylisp
ExpressionBody
p247
(dp248
S'expressions'
p249
(iplugins.pylisp
ConsCell
p250
(dp251
S'car'
p252
(iplugins.pylisp
ConsCell
p253
(dp254
g252
(iplugins.pylisp
Symbol
p255
(dp256
g242
S'pascal-recur'
p257
sbsS'cdr'
p258
(iplugins.pylisp
ConsCell
p259
(dp260
g252
(iplugins.pylisp
Quoted
p261
(dp262
S'quoted_expression'
p263
(iplugins.pylisp
Nil
p264
(dp265
bsbsg258
(iplugins.pylisp
ConsCell
p266
(dp267
g252
(iplugins.pylisp
Symbol
p268
(dp269
g242
S'n'
p270
sbsg258
(iplugins.pylisp
Nil
p271
(dp272
bsbsbsbsg258
(iplugins.pylisp
Nil
p273
(dp274
bsbsbsS'parameters'
p275
(iplugins.pylisp
ConsCell
p276
(dp277
g252
(iplugins.pylisp
Symbol
p278
(dp279
g242
g270
sbsg258
(iplugins.pylisp
Nil
p280
(dp281
bsbsS'env'
p282
g0
sbs(iplugins.pylisp
Symbol
p283
(dp284
g108
S'nsfw'
p285
sb(iplugins.pylisp
Lambda
p286
(dp287
S'expression'
p288
(iplugins.pylisp
ExpressionBody
p289
(dp290
S'expressions'
p291
(iplugins.pylisp
ConsCell
p292
(dp293
S'car'
p294
(iplugins.pylisp
ConsCell
p295
(dp296
g294
(iplugins.pylisp
Symbol
p297
(dp298
g108
S'zip'
p299
sbsS'cdr'
p300
(iplugins.pylisp
ConsCell
p301
(dp302
g294
(iplugins.pylisp
ConsCell
p303
(dp304
g294
(iplugins.pylisp
Symbol
p305
(dp306
g108
S'copies'
p307
sbsg300
(iplugins.pylisp
ConsCell
p308
(dp309
g294
(iplugins.pylisp
Symbol
p310
(dp311
g108
S'n'
p312
sbsg300
(iplugins.pylisp
ConsCell
p313
(dp314
g294
(iplugins.pylisp
Symbol
p315
(dp316
g108
S'boobs'
p317
sbsg300
(iplugins.pylisp
Nil
p318
(dp319
bsbsbsbsg300
(iplugins.pylisp
ConsCell
p320
(dp321
g294
(iplugins.pylisp
ConsCell
p322
(dp323
g294
(iplugins.pylisp
Symbol
p324
(dp325
g108
S'copies'
p326
sbsg300
(iplugins.pylisp
ConsCell
p327
(dp328
g294
(iplugins.pylisp
Symbol
p329
(dp330
g108
g312
sbsg300
(iplugins.pylisp
ConsCell
p331
(dp332
g294
(iplugins.pylisp
Symbol
p333
(dp334
g108
S'kuk'
p335
sbsg300
(iplugins.pylisp
Nil
p336
(dp337
bsbsbsbsg300
(iplugins.pylisp
Nil
p338
(dp339
bsbsbsbsg300
(iplugins.pylisp
Nil
p340
(dp341
bsbsbsS'parameters'
p342
(iplugins.pylisp
ConsCell
p343
(dp344
g294
(iplugins.pylisp
Symbol
p345
(dp346
g108
g312
sbsg300
(iplugins.pylisp
Nil
p347
(dp348
bsbsS'env'
p349
g0
sbs(iplugins.pylisp
Symbol
p350
(dp351
S'name'
p352
S'matnamn'
p353
sb(iplugins.pylisp
Lambda
p354
(dp355
g10
(iplugins.pylisp
ExpressionBody
p356
(dp357
g13
(iplugins.pylisp
ConsCell
p358
(dp359
g16
(iplugins.pylisp
ConsCell
p360
(dp361
g16
(iplugins.pylisp
Symbol
p362
(dp363
g6
S'car'
p364
sbsg22
(iplugins.pylisp
ConsCell
p365
(dp366
g16
(iplugins.pylisp
ConsCell
p367
(dp368
g16
(iplugins.pylisp
Symbol
p369
(dp370
g6
S'str-split'
p371
sbsg22
(iplugins.pylisp
ConsCell
p372
(dp373
g16
(iplugins.pylisp
ConsCell
p374
(dp375
g16
(iplugins.pylisp
Symbol
p376
(dp377
g6
S'command'
p378
sbsg22
(iplugins.pylisp
ConsCell
p379
(dp380
g16
(iplugins.pylisp
String
p381
(dp382
g39
S'title'
p383
sbsg22
(iplugins.pylisp
ConsCell
p384
(dp385
g16
(iplugins.pylisp
ConsCell
p386
(dp387
g16
(iplugins.pylisp
Symbol
p388
(dp389
g6
S'command'
p390
sbsg22
(iplugins.pylisp
ConsCell
p391
(dp392
g16
(iplugins.pylisp
String
p393
(dp394
g39
S'mattips'
p395
sbsg22
(iplugins.pylisp
ConsCell
p396
(dp397
g16
(iplugins.pylisp
String
p398
(dp399
g39
S'lispnik'
p400
sbsg22
(iplugins.pylisp
Nil
p401
(dp402
bsbsbsbsg22
(iplugins.pylisp
Nil
p403
(dp404
bsbsbsbsg22
(iplugins.pylisp
ConsCell
p405
(dp406
g16
(iplugins.pylisp
String
p407
(dp408
g39
S' - '
p409
sbsg22
(iplugins.pylisp
Nil
p410
(dp411
bsbsbsbsg22
(iplugins.pylisp
Nil
p412
(dp413
bsbsbsg22
(iplugins.pylisp
Nil
p414
(dp415
bsbsbsg94
(iplugins.pylisp
Nil
p416
(dp417
bsg105
g0
sbs(iplugins.pylisp
Symbol
p418
(dp419
S'name'
p420
S'hed|'
p421
sb(iplugins.pylisp
ConsCell
p422
(dp423
S'car'
p424
(iplugins.pylisp
Symbol
p425
(dp426
g420
S'\xe4ter'
p427
sbsS'cdr'
p428
(iplugins.pylisp
ConsCell
p429
(dp430
g424
(iplugins.pylisp
Symbol
p431
(dp432
g420
S'gr\xf6t,'
p433
sbsg428
(iplugins.pylisp
ConsCell
p434
(dp435
g424
(iplugins.pylisp
Symbol
p436
(dp437
g420
S'brb'
p438
sbsg428
(iplugins.pylisp
Nil
p439
(dp440
bsbsbsbs(iplugins.pylisp
Symbol
p441
(dp442
S'name'
p443
S'insult-n'
p444
sb(iplugins.pylisp
Lambda
p445
(dp446
S'expression'
p447
(iplugins.pylisp
ExpressionBody
p448
(dp449
S'expressions'
p450
(iplugins.pylisp
ConsCell
p451
(dp452
S'car'
p453
(iplugins.pylisp
ConsCell
p454
(dp455
g453
(iplugins.pylisp
Symbol
p456
(dp457
g443
S'if'
p458
sbsS'cdr'
p459
(iplugins.pylisp
ConsCell
p460
(dp461
g453
(iplugins.pylisp
ConsCell
p462
(dp463
g453
(iplugins.pylisp
Symbol
p464
(dp465
g443
S'='
p466
sbsg459
(iplugins.pylisp
ConsCell
p467
(dp468
g453
(iplugins.pylisp
Symbol
p469
(dp470
g443
S'n'
p471
sbsg459
(iplugins.pylisp
ConsCell
p472
(dp473
g453
(iplugins.pylisp
Integer
p474
(dp475
S'value'
p476
I1
sbsg459
(iplugins.pylisp
Nil
p477
(dp478
bsbsbsbsg459
(iplugins.pylisp
ConsCell
p479
(dp480
g453
(iplugins.pylisp
ConsCell
p481
(dp482
g453
(iplugins.pylisp
Symbol
p483
(dp484
g443
S'command'
p485
sbsg459
(iplugins.pylisp
ConsCell
p486
(dp487
g453
(iplugins.pylisp
String
p488
(dp489
g476
S'insult'
p490
sbsg459
(iplugins.pylisp
ConsCell
p491
(dp492
g453
(iplugins.pylisp
Symbol
p493
(dp494
g443
S'target'
p495
sbsg459
(iplugins.pylisp
Nil
p496
(dp497
bsbsbsbsg459
(iplugins.pylisp
ConsCell
p498
(dp499
g453
(iplugins.pylisp
ConsCell
p500
(dp501
g453
(iplugins.pylisp
Symbol
p502
(dp503
g443
S'str-append'
p504
sbsg459
(iplugins.pylisp
ConsCell
p505
(dp506
g453
(iplugins.pylisp
ConsCell
p507
(dp508
g453
(iplugins.pylisp
Symbol
p509
(dp510
g443
S'str-append'
p511
sbsg459
(iplugins.pylisp
ConsCell
p512
(dp513
g453
(iplugins.pylisp
ConsCell
p514
(dp515
g453
(iplugins.pylisp
Symbol
p516
(dp517
g443
S'insult-n'
p518
sbsg459
(iplugins.pylisp
ConsCell
p519
(dp520
g453
(iplugins.pylisp
Symbol
p521
(dp522
g443
S'target'
p523
sbsg459
(iplugins.pylisp
ConsCell
p524
(dp525
g453
(iplugins.pylisp
ConsCell
p526
(dp527
g453
(iplugins.pylisp
Symbol
p528
(dp529
g443
S'-'
p530
sbsg459
(iplugins.pylisp
ConsCell
p531
(dp532
g453
(iplugins.pylisp
Symbol
p533
(dp534
g443
g471
sbsg459
(iplugins.pylisp
ConsCell
p535
(dp536
g453
(iplugins.pylisp
Integer
p537
(dp538
g476
I1
sbsg459
(iplugins.pylisp
Nil
p539
(dp540
bsbsbsbsg459
(iplugins.pylisp
Nil
p541
(dp542
bsbsbsbsg459
(iplugins.pylisp
ConsCell
p543
(dp544
g453
(iplugins.pylisp
String
p545
(dp546
g476
S', '
p547
sbsg459
(iplugins.pylisp
Nil
p548
(dp549
bsbsbsbsg459
(iplugins.pylisp
ConsCell
p550
(dp551
g453
(iplugins.pylisp
ConsCell
p552
(dp553
g453
(iplugins.pylisp
Symbol
p554
(dp555
g443
S'command'
p556
sbsg459
(iplugins.pylisp
ConsCell
p557
(dp558
g453
(iplugins.pylisp
String
p559
(dp560
g476
S'insult'
p561
sbsg459
(iplugins.pylisp
ConsCell
p562
(dp563
g453
(iplugins.pylisp
String
p564
(dp565
g476
S'\xc2\xa0'
p566
sbsg459
(iplugins.pylisp
Nil
p567
(dp568
bsbsbsbsg459
(iplugins.pylisp
Nil
p569
(dp570
bsbsbsbsg459
(iplugins.pylisp
Nil
p571
(dp572
bsbsbsbsbsg459
(iplugins.pylisp
Nil
p573
(dp574
bsbsbsS'parameters'
p575
(iplugins.pylisp
ConsCell
p576
(dp577
g453
(iplugins.pylisp
Symbol
p578
(dp579
g443
S'target'
p580
sbsg459
(iplugins.pylisp
ConsCell
p581
(dp582
g453
(iplugins.pylisp
Symbol
p583
(dp584
g443
g471
sbsg459
(iplugins.pylisp
Nil
p585
(dp586
bsbsbsS'env'
p587
g0
sbs(iplugins.pylisp
Symbol
p588
(dp589
S'name'
p590
S'compliment-n'
p591
sb(iplugins.pylisp
Lambda
p592
(dp593
S'expression'
p594
(iplugins.pylisp
ExpressionBody
p595
(dp596
S'expressions'
p597
(iplugins.pylisp
ConsCell
p598
(dp599
S'car'
p600
(iplugins.pylisp
ConsCell
p601
(dp602
g600
(iplugins.pylisp
Symbol
p603
(dp604
g590
S'if'
p605
sbsS'cdr'
p606
(iplugins.pylisp
ConsCell
p607
(dp608
g600
(iplugins.pylisp
ConsCell
p609
(dp610
g600
(iplugins.pylisp
Symbol
p611
(dp612
g590
S'='
p613
sbsg606
(iplugins.pylisp
ConsCell
p614
(dp615
g600
(iplugins.pylisp
Symbol
p616
(dp617
g590
S'n'
p618
sbsg606
(iplugins.pylisp
ConsCell
p619
(dp620
g600
(iplugins.pylisp
Integer
p621
(dp622
S'value'
p623
I1
sbsg606
(iplugins.pylisp
Nil
p624
(dp625
bsbsbsbsg606
(iplugins.pylisp
ConsCell
p626
(dp627
g600
(iplugins.pylisp
ConsCell
p628
(dp629
g600
(iplugins.pylisp
Symbol
p630
(dp631
g590
S'command'
p632
sbsg606
(iplugins.pylisp
ConsCell
p633
(dp634
g600
(iplugins.pylisp
String
p635
(dp636
g623
S'compliment'
p637
sbsg606
(iplugins.pylisp
ConsCell
p638
(dp639
g600
(iplugins.pylisp
Symbol
p640
(dp641
g590
S'target'
p642
sbsg606
(iplugins.pylisp
Nil
p643
(dp644
bsbsbsbsg606
(iplugins.pylisp
ConsCell
p645
(dp646
g600
(iplugins.pylisp
ConsCell
p647
(dp648
g600
(iplugins.pylisp
Symbol
p649
(dp650
g590
S'str-append'
p651
sbsg606
(iplugins.pylisp
ConsCell
p652
(dp653
g600
(iplugins.pylisp
ConsCell
p654
(dp655
g600
(iplugins.pylisp
Symbol
p656
(dp657
g590
S'str-append'
p658
sbsg606
(iplugins.pylisp
ConsCell
p659
(dp660
g600
(iplugins.pylisp
ConsCell
p661
(dp662
g600
(iplugins.pylisp
Symbol
p663
(dp664
g590
S'compliment-n'
p665
sbsg606
(iplugins.pylisp
ConsCell
p666
(dp667
g600
(iplugins.pylisp
Symbol
p668
(dp669
g590
S'target'
p670
sbsg606
(iplugins.pylisp
ConsCell
p671
(dp672
g600
(iplugins.pylisp
ConsCell
p673
(dp674
g600
(iplugins.pylisp
Symbol
p675
(dp676
g590
S'-'
p677
sbsg606
(iplugins.pylisp
ConsCell
p678
(dp679
g600
(iplugins.pylisp
Symbol
p680
(dp681
g590
g618
sbsg606
(iplugins.pylisp
ConsCell
p682
(dp683
g600
(iplugins.pylisp
Integer
p684
(dp685
g623
I1
sbsg606
(iplugins.pylisp
Nil
p686
(dp687
bsbsbsbsg606
(iplugins.pylisp
Nil
p688
(dp689
bsbsbsbsg606
(iplugins.pylisp
ConsCell
p690
(dp691
g600
(iplugins.pylisp
String
p692
(dp693
g623
S', '
p694
sbsg606
(iplugins.pylisp
Nil
p695
(dp696
bsbsbsbsg606
(iplugins.pylisp
ConsCell
p697
(dp698
g600
(iplugins.pylisp
ConsCell
p699
(dp700
g600
(iplugins.pylisp
Symbol
p701
(dp702
g590
S'command'
p703
sbsg606
(iplugins.pylisp
ConsCell
p704
(dp705
g600
(iplugins.pylisp
String
p706
(dp707
g623
S'compliment'
p708
sbsg606
(iplugins.pylisp
ConsCell
p709
(dp710
g600
(iplugins.pylisp
String
p711
(dp712
g623
S'\xc2\xa0'
p713
sbsg606
(iplugins.pylisp
Nil
p714
(dp715
bsbsbsbsg606
(iplugins.pylisp
Nil
p716
(dp717
bsbsbsbsg606
(iplugins.pylisp
Nil
p718
(dp719
bsbsbsbsbsg606
(iplugins.pylisp
Nil
p720
(dp721
bsbsbsS'parameters'
p722
(iplugins.pylisp
ConsCell
p723
(dp724
g600
(iplugins.pylisp
Symbol
p725
(dp726
g590
S'target'
p727
sbsg606
(iplugins.pylisp
ConsCell
p728
(dp729
g600
(iplugins.pylisp
Symbol
p730
(dp731
g590
g618
sbsg606
(iplugins.pylisp
Nil
p732
(dp733
bsbsbsS'env'
p734
g0
sbs(iplugins.pylisp
Symbol
p735
(dp736
S'name'
p737
S'add'
p738
sb(iplugins.pylisp
Lambda
p739
(dp740
S'expression'
p741
(iplugins.pylisp
ExpressionBody
p742
(dp743
S'expressions'
p744
(iplugins.pylisp
ConsCell
p745
(dp746
S'car'
p747
(iplugins.pylisp
ConsCell
p748
(dp749
g747
(iplugins.pylisp
Symbol
p750
(dp751
S'name'
p752
S'-'
p753
sbsS'cdr'
p754
(iplugins.pylisp
ConsCell
p755
(dp756
g747
(iplugins.pylisp
Symbol
p757
(dp758
g752
S'a'
p759
sbsg754
(iplugins.pylisp
ConsCell
p760
(dp761
g747
(iplugins.pylisp
ConsCell
p762
(dp763
g747
(iplugins.pylisp
Symbol
p764
(dp765
g752
g753
sbsg754
(iplugins.pylisp
ConsCell
p766
(dp767
g747
(iplugins.pylisp
Integer
p768
(dp769
S'value'
p770
I0
sbsg754
(iplugins.pylisp
ConsCell
p771
(dp772
g747
(iplugins.pylisp
Symbol
p773
(dp774
g752
S'b'
p775
sbsg754
(iplugins.pylisp
Nil
p776
(dp777
bsbsbsbsg754
(iplugins.pylisp
Nil
p778
(dp779
bsbsbsbsg754
(iplugins.pylisp
Nil
p780
(dp781
bsbsbsS'parameters'
p782
(iplugins.pylisp
ConsCell
p783
(dp784
g747
(iplugins.pylisp
Symbol
p785
(dp786
g752
g759
sbsg754
(iplugins.pylisp
ConsCell
p787
(dp788
g747
(iplugins.pylisp
Symbol
p789
(dp790
g752
g775
sbsg754
(iplugins.pylisp
Nil
p791
(dp792
bsbsbsS'env'
p793
g0
sbs(iplugins.pylisp
Quoted
p794
(dp795
S'quoted_expression'
p796
(iplugins.pylisp
Symbol
p797
(dp798
S'name'
p799
S'a'
p800
sbsb(iplugins.pylisp
Integer
p801
(dp802
S'value'
p803
I2
sbs(iplugins.pylisp
Symbol
p804
(dp805
S'name'
p806
S'dxrandom'
p807
sb(iplugins.pylisp
Lambda
p808
(dp809
S'expression'
p810
(iplugins.pylisp
ExpressionBody
p811
(dp812
S'expressions'
p813
(iplugins.pylisp
ConsCell
p814
(dp815
S'car'
p816
(iplugins.pylisp
ConsCell
p817
(dp818
g816
(iplugins.pylisp
Symbol
p819
(dp820
g806
S'dxtitle'
p821
sbsS'cdr'
p822
(iplugins.pylisp
ConsCell
p823
(dp824
g816
(iplugins.pylisp
ConsCell
p825
(dp826
g816
(iplugins.pylisp
Symbol
p827
(dp828
g806
S'rand'
p829
sbsg822
(iplugins.pylisp
ConsCell
p830
(dp831
g816
(iplugins.pylisp
Integer
p832
(dp833
S'value'
p834
I20000
sbsg822
(iplugins.pylisp
Nil
p835
(dp836
bsbsbsg822
(iplugins.pylisp
Nil
p837
(dp838
bsbsbsg822
(iplugins.pylisp
Nil
p839
(dp840
bsbsbsS'parameters'
p841
(iplugins.pylisp
Nil
p842
(dp843
bsS'env'
p844
g0
sbs(iplugins.pylisp
Symbol
p845
(dp846
g108
S'flindeberg'
p847
sb(iplugins.pylisp
String
p848
(dp849
g39
S'Error 404: flindeberg not found'
p850
sbs(iplugins.pylisp
Symbol
p851
(dp852
S'name'
p853
S'nom-mat-mat'
p854
sb(iplugins.pylisp
Lambda
p855
(dp856
S'expression'
p857
(iplugins.pylisp
ExpressionBody
p858
(dp859
S'expressions'
p860
(iplugins.pylisp
ConsCell
p861
(dp862
S'car'
p863
(iplugins.pylisp
ConsCell
p864
(dp865
g863
(iplugins.pylisp
Symbol
p866
(dp867
S'name'
p868
S'nom-mat-n'
p869
sbsS'cdr'
p870
(iplugins.pylisp
ConsCell
p871
(dp872
g863
(iplugins.pylisp
Integer
p873
(dp874
S'value'
p875
I2
sbsg870
(iplugins.pylisp
Nil
p876
(dp877
bsbsbsg870
(iplugins.pylisp
Nil
p878
(dp879
bsbsbsS'parameters'
p880
(iplugins.pylisp
Nil
p881
(dp882
bsS'env'
p883
g0
sbs(iplugins.pylisp
Symbol
p884
(dp885
S'name'
p886
S'factorial'
p887
sb(iplugins.pylisp
Lambda
p888
(dp889
S'expression'
p890
(iplugins.pylisp
ExpressionBody
p891
(dp892
S'expressions'
p893
(iplugins.pylisp
ConsCell
p894
(dp895
S'car'
p896
(iplugins.pylisp
ConsCell
p897
(dp898
g896
(iplugins.pylisp
Symbol
p899
(dp900
g232
S'if'
p901
sbsg239
(iplugins.pylisp
ConsCell
p902
(dp903
g896
(iplugins.pylisp
ConsCell
p904
(dp905
g896
(iplugins.pylisp
Symbol
p906
(dp907
g232
S'='
p908
sbsg239
(iplugins.pylisp
ConsCell
p909
(dp910
g896
(iplugins.pylisp
Symbol
p911
(dp912
g232
S'x'
p913
sbsg239
(iplugins.pylisp
ConsCell
p914
(dp915
g896
(iplugins.pylisp
Integer
p916
(dp917
S'value'
p918
I1
sbsg239
(iplugins.pylisp
Nil
p919
(dp920
bsbsbsbsg239
(iplugins.pylisp
ConsCell
p921
(dp922
g896
(iplugins.pylisp
Integer
p923
(dp924
g918
I1
sbsg239
(iplugins.pylisp
ConsCell
p925
(dp926
g896
(iplugins.pylisp
ConsCell
p927
(dp928
g896
(iplugins.pylisp
Symbol
p929
(dp930
g232
S'*'
p931
sbsg239
(iplugins.pylisp
ConsCell
p932
(dp933
g896
(iplugins.pylisp
Symbol
p934
(dp935
g232
g913
sbsg239
(iplugins.pylisp
ConsCell
p936
(dp937
g896
(iplugins.pylisp
ConsCell
p938
(dp939
g896
(iplugins.pylisp
Symbol
p940
(dp941
g232
S'factorial'
p942
sbsg239
(iplugins.pylisp
ConsCell
p943
(dp944
g896
(iplugins.pylisp
ConsCell
p945
(dp946
g896
(iplugins.pylisp
Symbol
p947
(dp948
g232
S'-'
p949
sbsg239
(iplugins.pylisp
ConsCell
p950
(dp951
g896
(iplugins.pylisp
Symbol
p952
(dp953
g232
g913
sbsg239
(iplugins.pylisp
ConsCell
p954
(dp955
g896
(iplugins.pylisp
Integer
p956
(dp957
g918
I1
sbsg239
(iplugins.pylisp
Nil
p958
(dp959
bsbsbsbsg239
(iplugins.pylisp
Nil
p960
(dp961
bsbsbsg239
(iplugins.pylisp
Nil
p962
(dp963
bsbsbsbsg239
(iplugins.pylisp
Nil
p964
(dp965
bsbsbsbsbsg239
(iplugins.pylisp
Nil
p966
(dp967
bsbsbsS'parameters'
p968
(iplugins.pylisp
ConsCell
p969
(dp970
g896
(iplugins.pylisp
Symbol
p971
(dp972
g232
g913
sbsg239
(iplugins.pylisp
Nil
p973
(dp974
bsbsS'env'
p975
g0
sbs(iplugins.pylisp
Symbol
p976
(dp977
S'name'
p978
S'farlig'
p979
sb(iplugins.pylisp
Symbol
p980
(dp981
g978
S'\xe2\x98\xa0\xe2\x98\xa2\xe2\x98\xa3'
p982
sbs(iplugins.pylisp
Symbol
p983
(dp984
g799
S'add-2'
p985
sb(iplugins.pylisp
Lambda
p986
(dp987
S'expression'
p988
(iplugins.pylisp
ExpressionBody
p989
(dp990
S'expressions'
p991
(iplugins.pylisp
ConsCell
p992
(dp993
S'car'
p994
(iplugins.pylisp
ConsCell
p995
(dp996
g994
(iplugins.pylisp
Symbol
p997
(dp998
g799
S'+'
p999
sbsS'cdr'
p1000
(iplugins.pylisp
ConsCell
p1001
(dp1002
g994
(iplugins.pylisp
Symbol
p1003
(dp1004
g799
g800
sbsg1000
(iplugins.pylisp
ConsCell
p1005
(dp1006
g994
(iplugins.pylisp
Integer
p1007
(dp1008
g803
I2
sbsg1000
(iplugins.pylisp
Nil
p1009
(dp1010
bsbsbsbsg1000
(iplugins.pylisp
Nil
p1011
(dp1012
bsbsbsS'parameters'
p1013
(iplugins.pylisp
ConsCell
p1014
(dp1015
g994
(iplugins.pylisp
Symbol
p1016
(dp1017
g799
g800
sbsg1000
(iplugins.pylisp
Nil
p1018
(dp1019
bsbsS'env'
p1020
g0
sbs(iplugins.pylisp
Symbol
p1021
(dp1022
g242
S'sum-pairs'
p1023
sb(iplugins.pylisp
Lambda
p1024
(dp1025
g246
(iplugins.pylisp
ExpressionBody
p1026
(dp1027
g249
(iplugins.pylisp
ConsCell
p1028
(dp1029
g252
(iplugins.pylisp
ConsCell
p1030
(dp1031
g252
(iplugins.pylisp
Symbol
p1032
(dp1033
g242
S'if'
p1034
sbsg258
(iplugins.pylisp
ConsCell
p1035
(dp1036
g252
(iplugins.pylisp
ConsCell
p1037
(dp1038
g252
(iplugins.pylisp
Symbol
p1039
(dp1040
g242
S'endp'
p1041
sbsg258
(iplugins.pylisp
ConsCell
p1042
(dp1043
g252
(iplugins.pylisp
Symbol
p1044
(dp1045
g242
S'l'
p1046
sbsg258
(iplugins.pylisp
Nil
p1047
(dp1048
bsbsbsg258
(iplugins.pylisp
ConsCell
p1049
(dp1050
g252
(iplugins.pylisp
Quoted
p1051
(dp1052
g263
(iplugins.pylisp
Nil
p1053
(dp1054
bsbsg258
(iplugins.pylisp
ConsCell
p1055
(dp1056
g252
(iplugins.pylisp
ConsCell
p1057
(dp1058
g252
(iplugins.pylisp
Symbol
p1059
(dp1060
g242
S'if'
p1061
sbsg258
(iplugins.pylisp
ConsCell
p1062
(dp1063
g252
(iplugins.pylisp
ConsCell
p1064
(dp1065
g252
(iplugins.pylisp
Symbol
p1066
(dp1067
g242
S'endp'
p1068
sbsg258
(iplugins.pylisp
ConsCell
p1069
(dp1070
g252
(iplugins.pylisp
ConsCell
p1071
(dp1072
g252
(iplugins.pylisp
Symbol
p1073
(dp1074
g242
S'cdr'
p1075
sbsg258
(iplugins.pylisp
ConsCell
p1076
(dp1077
g252
(iplugins.pylisp
Symbol
p1078
(dp1079
g242
g1046
sbsg258
(iplugins.pylisp
Nil
p1080
(dp1081
bsbsbsg258
(iplugins.pylisp
Nil
p1082
(dp1083
bsbsbsg258
(iplugins.pylisp
ConsCell
p1084
(dp1085
g252
(iplugins.pylisp
Quoted
p1086
(dp1087
g263
(iplugins.pylisp
ConsCell
p1088
(dp1089
g252
(iplugins.pylisp
Integer
p1090
(dp1091
S'value'
p1092
I1
sbsg258
(iplugins.pylisp
Nil
p1093
(dp1094
bsbsbsg258
(iplugins.pylisp
ConsCell
p1095
(dp1096
g252
(iplugins.pylisp
ConsCell
p1097
(dp1098
g252
(iplugins.pylisp
Symbol
p1099
(dp1100
g242
S'cons'
p1101
sbsg258
(iplugins.pylisp
ConsCell
p1102
(dp1103
g252
(iplugins.pylisp
ConsCell
p1104
(dp1105
g252
(iplugins.pylisp
Symbol
p1106
(dp1107
g242
S'+'
p1108
sbsg258
(iplugins.pylisp
ConsCell
p1109
(dp1110
g252
(iplugins.pylisp
ConsCell
p1111
(dp1112
g252
(iplugins.pylisp
Symbol
p1113
(dp1114
g242
S'car'
p1115
sbsg258
(iplugins.pylisp
ConsCell
p1116
(dp1117
g252
(iplugins.pylisp
Symbol
p1118
(dp1119
g242
g1046
sbsg258
(iplugins.pylisp
Nil
p1120
(dp1121
bsbsbsg258
(iplugins.pylisp
ConsCell
p1122
(dp1123
g252
(iplugins.pylisp
ConsCell
p1124
(dp1125
g252
(iplugins.pylisp
Symbol
p1126
(dp1127
g242
S'cadr'
p1128
sbsg258
(iplugins.pylisp
ConsCell
p1129
(dp1130
g252
(iplugins.pylisp
Symbol
p1131
(dp1132
g242
g1046
sbsg258
(iplugins.pylisp
Nil
p1133
(dp1134
bsbsbsg258
(iplugins.pylisp
Nil
p1135
(dp1136
bsbsbsbsg258
(iplugins.pylisp
ConsCell
p1137
(dp1138
g252
(iplugins.pylisp
ConsCell
p1139
(dp1140
g252
(iplugins.pylisp
Symbol
p1141
(dp1142
g242
S'sum-pairs'
p1143
sbsg258
(iplugins.pylisp
ConsCell
p1144
(dp1145
g252
(iplugins.pylisp
ConsCell
p1146
(dp1147
g252
(iplugins.pylisp
Symbol
p1148
(dp1149
g242
S'cdr'
p1150
sbsg258
(iplugins.pylisp
ConsCell
p1151
(dp1152
g252
(iplugins.pylisp
Symbol
p1153
(dp1154
g242
g1046
sbsg258
(iplugins.pylisp
Nil
p1155
(dp1156
bsbsbsg258
(iplugins.pylisp
Nil
p1157
(dp1158
bsbsbsg258
(iplugins.pylisp
Nil
p1159
(dp1160
bsbsbsbsg258
(iplugins.pylisp
Nil
p1161
(dp1162
bsbsbsbsbsg258
(iplugins.pylisp
Nil
p1163
(dp1164
bsbsbsbsbsg258
(iplugins.pylisp
Nil
p1165
(dp1166
bsbsbsg275
(iplugins.pylisp
ConsCell
p1167
(dp1168
g252
(iplugins.pylisp
Symbol
p1169
(dp1170
g242
g1046
sbsg258
(iplugins.pylisp
Nil
p1171
(dp1172
bsbsg282
g0
sbs(iplugins.pylisp
Symbol
p1173
(dp1174
g242
S'sova'
p1175
sb(iplugins.pylisp
Symbol
p1176
(dp1177
g242
S'nu'
p1178
sbs(iplugins.pylisp
Symbol
p1179
(dp1180
S'name'
p1181
S'mod'
p1182
sb(iplugins.pylisp
Lambda
p1183
(dp1184
S'expression'
p1185
(iplugins.pylisp
ExpressionBody
p1186
(dp1187
S'expressions'
p1188
(iplugins.pylisp
ConsCell
p1189
(dp1190
S'car'
p1191
(iplugins.pylisp
ConsCell
p1192
(dp1193
g1191
(iplugins.pylisp
Symbol
p1194
(dp1195
g1181
S'-'
p1196
sbsS'cdr'
p1197
(iplugins.pylisp
ConsCell
p1198
(dp1199
g1191
(iplugins.pylisp
Symbol
p1200
(dp1201
g1181
S'a'
p1202
sbsg1197
(iplugins.pylisp
ConsCell
p1203
(dp1204
g1191
(iplugins.pylisp
ConsCell
p1205
(dp1206
g1191
(iplugins.pylisp
Symbol
p1207
(dp1208
g1181
S'*'
p1209
sbsg1197
(iplugins.pylisp
ConsCell
p1210
(dp1211
g1191
(iplugins.pylisp
ConsCell
p1212
(dp1213
g1191
(iplugins.pylisp
Symbol
p1214
(dp1215
g1181
S'/'
p1216
sbsg1197
(iplugins.pylisp
ConsCell
p1217
(dp1218
g1191
(iplugins.pylisp
Symbol
p1219
(dp1220
g1181
g1202
sbsg1197
(iplugins.pylisp
ConsCell
p1221
(dp1222
g1191
(iplugins.pylisp
Symbol
p1223
(dp1224
g1181
S'b'
p1225
sbsg1197
(iplugins.pylisp
Nil
p1226
(dp1227
bsbsbsbsg1197
(iplugins.pylisp
ConsCell
p1228
(dp1229
g1191
(iplugins.pylisp
Symbol
p1230
(dp1231
g1181
g1225
sbsg1197
(iplugins.pylisp
Nil
p1232
(dp1233
bsbsbsbsg1197
(iplugins.pylisp
Nil
p1234
(dp1235
bsbsbsbsg1197
(iplugins.pylisp
Nil
p1236
(dp1237
bsbsbsS'parameters'
p1238
(iplugins.pylisp
ConsCell
p1239
(dp1240
g1191
(iplugins.pylisp
Symbol
p1241
(dp1242
g1181
g1202
sbsg1197
(iplugins.pylisp
ConsCell
p1243
(dp1244
g1191
(iplugins.pylisp
Symbol
p1245
(dp1246
g1181
g1225
sbsg1197
(iplugins.pylisp
Nil
p1247
(dp1248
bsbsbsS'env'
p1249
g0
sbs(iplugins.pylisp
Symbol
p1250
(dp1251
g6
S'fakultet'
p1252
sb(iplugins.pylisp
Lambda
p1253
(dp1254
g10
(iplugins.pylisp
ExpressionBody
p1255
(dp1256
g13
(iplugins.pylisp
ConsCell
p1257
(dp1258
g16
(iplugins.pylisp
ConsCell
p1259
(dp1260
g16
(iplugins.pylisp
Symbol
p1261
(dp1262
g6
S'factorial'
p1263
sbsg22
(iplugins.pylisp
ConsCell
p1264
(dp1265
g16
(iplugins.pylisp
Symbol
p1266
(dp1267
g6
g34
sbsg22
(iplugins.pylisp
Nil
p1268
(dp1269
bsbsbsg22
(iplugins.pylisp
Nil
p1270
(dp1271
bsbsbsg94
(iplugins.pylisp
ConsCell
p1272
(dp1273
g16
(iplugins.pylisp
Symbol
p1274
(dp1275
g6
g34
sbsg22
(iplugins.pylisp
Nil
p1276
(dp1277
bsbsg105
g0
sbs(iplugins.pylisp
Symbol
p1278
(dp1279
S'name'
p1280
S'level'
p1281
sb(iplugins.pylisp
Integer
p1282
(dp1283
S'value'
p1284
I2
sbs(iplugins.pylisp
Symbol
p1285
(dp1286
g242
S'pascal-recur'
p1287
sb(iplugins.pylisp
Lambda
p1288
(dp1289
g246
(iplugins.pylisp
ExpressionBody
p1290
(dp1291
g249
(iplugins.pylisp
ConsCell
p1292
(dp1293
g252
(iplugins.pylisp
ConsCell
p1294
(dp1295
g252
(iplugins.pylisp
Symbol
p1296
(dp1297
g242
S'if'
p1298
sbsg258
(iplugins.pylisp
ConsCell
p1299
(dp1300
g252
(iplugins.pylisp
ConsCell
p1301
(dp1302
g252
(iplugins.pylisp
Symbol
p1303
(dp1304
g242
S'='
p1305
sbsg258
(iplugins.pylisp
ConsCell
p1306
(dp1307
g252
(iplugins.pylisp
Symbol
p1308
(dp1309
g242
g270
sbsg258
(iplugins.pylisp
ConsCell
p1310
(dp1311
g252
(iplugins.pylisp
Integer
p1312
(dp1313
g1092
I0
sbsg258
(iplugins.pylisp
Nil
p1314
(dp1315
bsbsbsbsg258
(iplugins.pylisp
ConsCell
p1316
(dp1317
g252
(iplugins.pylisp
Quoted
p1318
(dp1319
g263
(iplugins.pylisp
Nil
p1320
(dp1321
bsbsg258
(iplugins.pylisp
ConsCell
p1322
(dp1323
g252
(iplugins.pylisp
ConsCell
p1324
(dp1325
g252
(iplugins.pylisp
Symbol
p1326
(dp1327
g242
S'let'
p1328
sbsg258
(iplugins.pylisp
ConsCell
p1329
(dp1330
g252
(iplugins.pylisp
ConsCell
p1331
(dp1332
g252
(iplugins.pylisp
ConsCell
p1333
(dp1334
g252
(iplugins.pylisp
Symbol
p1335
(dp1336
g242
g1046
sbsg258
(iplugins.pylisp
ConsCell
p1337
(dp1338
g252
(iplugins.pylisp
ConsCell
p1339
(dp1340
g252
(iplugins.pylisp
Symbol
p1341
(dp1342
g242
S'cons'
p1343
sbsg258
(iplugins.pylisp
ConsCell
p1344
(dp1345
g252
(iplugins.pylisp
Quoted
p1346
(dp1347
g263
(iplugins.pylisp
Integer
p1348
(dp1349
g1092
I1
sbsbsg258
(iplugins.pylisp
ConsCell
p1350
(dp1351
g252
(iplugins.pylisp
ConsCell
p1352
(dp1353
g252
(iplugins.pylisp
Symbol
p1354
(dp1355
g242
S'sum-pairs'
p1356
sbsg258
(iplugins.pylisp
ConsCell
p1357
(dp1358
g252
(iplugins.pylisp
Symbol
p1359
(dp1360
g242
g1046
sbsg258
(iplugins.pylisp
Nil
p1361
(dp1362
bsbsbsg258
(iplugins.pylisp
Nil
p1363
(dp1364
bsbsbsbsg258
(iplugins.pylisp
Nil
p1365
(dp1366
bsbsbsg258
(iplugins.pylisp
Nil
p1367
(dp1368
bsbsg258
(iplugins.pylisp
ConsCell
p1369
(dp1370
g252
(iplugins.pylisp
ConsCell
p1371
(dp1372
g252
(iplugins.pylisp
Symbol
p1373
(dp1374
g242
S'cons'
p1375
sbsg258
(iplugins.pylisp
ConsCell
p1376
(dp1377
g252
(iplugins.pylisp
Symbol
p1378
(dp1379
g242
g1046
sbsg258
(iplugins.pylisp
ConsCell
p1380
(dp1381
g252
(iplugins.pylisp
ConsCell
p1382
(dp1383
g252
(iplugins.pylisp
Symbol
p1384
(dp1385
g242
S'pascal-recur'
p1386
sbsg258
(iplugins.pylisp
ConsCell
p1387
(dp1388
g252
(iplugins.pylisp
Symbol
p1389
(dp1390
g242
g1046
sbsg258
(iplugins.pylisp
ConsCell
p1391
(dp1392
g252
(iplugins.pylisp
ConsCell
p1393
(dp1394
g252
(iplugins.pylisp
Symbol
p1395
(dp1396
g242
S'-'
p1397
sbsg258
(iplugins.pylisp
ConsCell
p1398
(dp1399
g252
(iplugins.pylisp
Symbol
p1400
(dp1401
g242
g270
sbsg258
(iplugins.pylisp
ConsCell
p1402
(dp1403
g252
(iplugins.pylisp
Integer
p1404
(dp1405
g1092
I1
sbsg258
(iplugins.pylisp
Nil
p1406
(dp1407
bsbsbsbsg258
(iplugins.pylisp
Nil
p1408
(dp1409
bsbsbsbsg258
(iplugins.pylisp
Nil
p1410
(dp1411
bsbsbsbsg258
(iplugins.pylisp
Nil
p1412
(dp1413
bsbsbsbsg258
(iplugins.pylisp
Nil
p1414
(dp1415
bsbsbsbsbsg258
(iplugins.pylisp
Nil
p1416
(dp1417
bsbsbsg275
(iplugins.pylisp
ConsCell
p1418
(dp1419
g252
(iplugins.pylisp
Symbol
p1420
(dp1421
g242
g1046
sbsg258
(iplugins.pylisp
ConsCell
p1422
(dp1423
g252
(iplugins.pylisp
Symbol
p1424
(dp1425
g242
g270
sbsg258
(iplugins.pylisp
Nil
p1426
(dp1427
bsbsbsg282
g0
sbs(iplugins.pylisp
Symbol
p1428
(dp1429
g420
S'*bananfisk*'
p1430
sb(iplugins.pylisp
Integer
p1431
(dp1432
S'value'
p1433
I1
sbs(iplugins.pylisp
Symbol
p1434
(dp1435
g868
S'collect'
p1436
sb(iplugins.pylisp
Lambda
p1437
(dp1438
g857
(iplugins.pylisp
ExpressionBody
p1439
(dp1440
g860
(iplugins.pylisp
ConsCell
p1441
(dp1442
g863
(iplugins.pylisp
ConsCell
p1443
(dp1444
g863
(iplugins.pylisp
Symbol
p1445
(dp1446
g868
S'if'
p1447
sbsg870
(iplugins.pylisp
ConsCell
p1448
(dp1449
g863
(iplugins.pylisp
ConsCell
p1450
(dp1451
g863
(iplugins.pylisp
Symbol
p1452
(dp1453
g868
S'='
p1454
sbsg870
(iplugins.pylisp
ConsCell
p1455
(dp1456
g863
(iplugins.pylisp
Symbol
p1457
(dp1458
g868
S'n'
p1459
sbsg870
(iplugins.pylisp
ConsCell
p1460
(dp1461
g863
(iplugins.pylisp
Integer
p1462
(dp1463
g875
I0
sbsg870
(iplugins.pylisp
Nil
p1464
(dp1465
bsbsbsbsg870
(iplugins.pylisp
ConsCell
p1466
(dp1467
g863
(iplugins.pylisp
Symbol
p1468
(dp1469
g868
S'nil'
p1470
sbsg870
(iplugins.pylisp
ConsCell
p1471
(dp1472
g863
(iplugins.pylisp
ConsCell
p1473
(dp1474
g863
(iplugins.pylisp
Symbol
p1475
(dp1476
g868
S'cons'
p1477
sbsg870
(iplugins.pylisp
ConsCell
p1478
(dp1479
g863
(iplugins.pylisp
ConsCell
p1480
(dp1481
g863
(iplugins.pylisp
Symbol
p1482
(dp1483
g868
S'f'
p1484
sbsg870
(iplugins.pylisp
Nil
p1485
(dp1486
bsbsg870
(iplugins.pylisp
ConsCell
p1487
(dp1488
g863
(iplugins.pylisp
ConsCell
p1489
(dp1490
g863
(iplugins.pylisp
Symbol
p1491
(dp1492
g868
S'collect'
p1493
sbsg870
(iplugins.pylisp
ConsCell
p1494
(dp1495
g863
(iplugins.pylisp
Symbol
p1496
(dp1497
g868
g1484
sbsg870
(iplugins.pylisp
ConsCell
p1498
(dp1499
g863
(iplugins.pylisp
ConsCell
p1500
(dp1501
g863
(iplugins.pylisp
Symbol
p1502
(dp1503
g868
S'-'
p1504
sbsg870
(iplugins.pylisp
ConsCell
p1505
(dp1506
g863
(iplugins.pylisp
Symbol
p1507
(dp1508
g868
g1459
sbsg870
(iplugins.pylisp
ConsCell
p1509
(dp1510
g863
(iplugins.pylisp
Integer
p1511
(dp1512
g875
I1
sbsg870
(iplugins.pylisp
Nil
p1513
(dp1514
bsbsbsbsg870
(iplugins.pylisp
Nil
p1515
(dp1516
bsbsbsbsg870
(iplugins.pylisp
Nil
p1517
(dp1518
bsbsbsbsg870
(iplugins.pylisp
Nil
p1519
(dp1520
bsbsbsbsbsg870
(iplugins.pylisp
Nil
p1521
(dp1522
bsbsbsg880
(iplugins.pylisp
ConsCell
p1523
(dp1524
g863
(iplugins.pylisp
Symbol
p1525
(dp1526
g868
g1484
sbsg870
(iplugins.pylisp
ConsCell
p1527
(dp1528
g863
(iplugins.pylisp
Symbol
p1529
(dp1530
g868
g1459
sbsg870
(iplugins.pylisp
Nil
p1531
(dp1532
bsbsbsg883
g0
sbs(iplugins.pylisp
Symbol
p1533
(dp1534
S'name'
p1535
S't'
p1536
sb(iplugins.pylisp
True
p1537
(dp1538
bs(iplugins.pylisp
Symbol
p1539
(dp1540
g232
S'sleep'
p1541
sb(iplugins.pylisp
Lambda
p1542
(dp1543
g10
(iplugins.pylisp
ExpressionBody
p1544
(dp1545
g13
(iplugins.pylisp
ConsCell
p1546
(dp1547
g16
(iplugins.pylisp
ConsCell
p1548
(dp1549
g16
(iplugins.pylisp
Symbol
p1550
(dp1551
g6
S'if'
p1552
sbsg22
(iplugins.pylisp
ConsCell
p1553
(dp1554
g16
(iplugins.pylisp
ConsCell
p1555
(dp1556
g16
(iplugins.pylisp
Symbol
p1557
(dp1558
g6
S'>'
p1559
sbsg22
(iplugins.pylisp
ConsCell
p1560
(dp1561
g16
(iplugins.pylisp
ConsCell
p1562
(dp1563
g16
(iplugins.pylisp
Symbol
p1564
(dp1565
g6
S'rand'
p1566
sbsg22
(iplugins.pylisp
ConsCell
p1567
(dp1568
g16
(iplugins.pylisp
Integer
p1569
(dp1570
g39
I10
sbsg22
(iplugins.pylisp
Nil
p1571
(dp1572
bsbsbsg22
(iplugins.pylisp
ConsCell
p1573
(dp1574
g16
(iplugins.pylisp
ConsCell
p1575
(dp1576
g16
(iplugins.pylisp
Symbol
p1577
(dp1578
g6
S'/'
p1579
sbsg22
(iplugins.pylisp
ConsCell
p1580
(dp1581
g16
(iplugins.pylisp
Integer
p1582
(dp1583
g39
I10
sbsg22
(iplugins.pylisp
ConsCell
p1584
(dp1585
g16
(iplugins.pylisp
Integer
p1586
(dp1587
g39
I2
sbsg22
(iplugins.pylisp
Nil
p1588
(dp1589
bsbsbsbsg22
(iplugins.pylisp
Nil
p1590
(dp1591
bsbsbsbsg22
(iplugins.pylisp
ConsCell
p1592
(dp1593
g16
(iplugins.pylisp
ConsCell
p1594
(dp1595
g16
(iplugins.pylisp
Symbol
p1596
(dp1597
g6
S'str-append'
p1598
sbsg22
(iplugins.pylisp
ConsCell
p1599
(dp1600
g16
(iplugins.pylisp
Symbol
p1601
(dp1602
g6
g34
sbsg22
(iplugins.pylisp
ConsCell
p1603
(dp1604
g16
(iplugins.pylisp
String
p1605
(dp1606
g39
S' ska sova sova sova som en gris!'
p1607
sbsg22
(iplugins.pylisp
Nil
p1608
(dp1609
bsbsbsbsg22
(iplugins.pylisp
ConsCell
p1610
(dp1611
g16
(iplugins.pylisp
ConsCell
p1612
(dp1613
g16
(iplugins.pylisp
Symbol
p1614
(dp1615
g6
S'str-append'
p1616
sbsg22
(iplugins.pylisp
ConsCell
p1617
(dp1618
g16
(iplugins.pylisp
Symbol
p1619
(dp1620
g6
g34
sbsg22
(iplugins.pylisp
ConsCell
p1621
(dp1622
g16
(iplugins.pylisp
String
p1623
(dp1624
g39
S' ska sitta och kolla p\xc3\xa5 porr ett tag till, dj\xc3\xa4vla gris fettichunge!'
p1625
sbsg22
(iplugins.pylisp
Nil
p1626
(dp1627
bsbsbsbsg22
(iplugins.pylisp
Nil
p1628
(dp1629
bsbsbsbsbsg22
(iplugins.pylisp
Nil
p1630
(dp1631
bsbsbsg94
(iplugins.pylisp
ConsCell
p1632
(dp1633
g16
(iplugins.pylisp
Symbol
p1634
(dp1635
g6
g34
sbsg22
(iplugins.pylisp
Nil
p1636
(dp1637
bsbsg105
g0
sbs(iplugins.pylisp
Symbol
p1638
(dp1639
g242
S'interrobang'
p1640
sb(iplugins.pylisp
Symbol
p1641
(dp1642
g242
S'\xe2\x80\xbd'
p1643
sbs(iplugins.pylisp
Symbol
p1644
(dp1645
S'name'
p1646
S'matematik'
p1647
sb(iplugins.pylisp
Symbol
p1648
(dp1649
g1646
S'\xc2\xac\xe2\x88\x91\xe2\x97\x8a\xe2\x88\x9a\xe2\x80\x9c\xc2\xbb\xef\xac\x82\xe2\x88\x86\xc3\x98\xcf\x80\xe2\x97\x8a\xe2\x88\x91\xe2\x88\x86'
p1650
sbs(iplugins.pylisp
Symbol
p1651
(dp1652
S'name'
p1653
S'google'
p1654
sb(iplugins.pylisp
Lambda
p1655
(dp1656
S'expression'
p1657
(iplugins.pylisp
ExpressionBody
p1658
(dp1659
S'expressions'
p1660
(iplugins.pylisp
ConsCell
p1661
(dp1662
S'car'
p1663
(iplugins.pylisp
ConsCell
p1664
(dp1665
g1663
(iplugins.pylisp
Symbol
p1666
(dp1667
g1653
S'command'
p1668
sbsS'cdr'
p1669
(iplugins.pylisp
ConsCell
p1670
(dp1671
g1663
(iplugins.pylisp
String
p1672
(dp1673
S'value'
p1674
S'google'
p1675
sbsg1669
(iplugins.pylisp
ConsCell
p1676
(dp1677
g1663
(iplugins.pylisp
Symbol
p1678
(dp1679
g1653
S's'
p1680
sbsg1669
(iplugins.pylisp
Nil
p1681
(dp1682
bsbsbsbsg1669
(iplugins.pylisp
Nil
p1683
(dp1684
bsbsbsS'parameters'
p1685
(iplugins.pylisp
ConsCell
p1686
(dp1687
g1663
(iplugins.pylisp
Symbol
p1688
(dp1689
g1653
g1680
sbsg1669
(iplugins.pylisp
Nil
p1690
(dp1691
bsbsS'env'
p1692
g0
sbs(iplugins.pylisp
Symbol
p1693
(dp1694
S'name'
p1695
S'grul'
p1696
sb(iplugins.pylisp
Symbol
p1697
(dp1698
g1695
S'ensam'
p1699
sbs(iplugins.pylisp
Symbol
p1700
(dp1701
g420
S'fisk'
p1702
sb(iplugins.pylisp
Lambda
p1703
(dp1704
S'expression'
p1705
(iplugins.pylisp
ExpressionBody
p1706
(dp1707
S'expressions'
p1708
(iplugins.pylisp
ConsCell
p1709
(dp1710
g424
(iplugins.pylisp
ConsCell
p1711
(dp1712
g424
(iplugins.pylisp
Symbol
p1713
(dp1714
g420
S'print'
p1715
sbsg428
(iplugins.pylisp
ConsCell
p1716
(dp1717
g424
(iplugins.pylisp
String
p1718
(dp1719
g1433
S'mm, fisk!'
p1720
sbsg428
(iplugins.pylisp
Nil
p1721
(dp1722
bsbsbsg428
(iplugins.pylisp
Nil
p1723
(dp1724
bsbsbsS'parameters'
p1725
(iplugins.pylisp
Nil
p1726
(dp1727
bsS'env'
p1728
g0
sbs(iplugins.pylisp
Symbol
p1729
(dp1730
g420
S'Sebban'
p1731
sb(iplugins.pylisp
ConsCell
p1732
(dp1733
g424
(iplugins.pylisp
Symbol
p1734
(dp1735
g420
S'EFG'
p1736
sbsg428
(iplugins.pylisp
Nil
p1737
(dp1738
bsbs(iplugins.pylisp
Symbol
p1739
(dp1740
g1653
S'reduce'
p1741
sb(iplugins.pylisp
Lambda
p1742
(dp1743
g1657
(iplugins.pylisp
ExpressionBody
p1744
(dp1745
g1660
(iplugins.pylisp
ConsCell
p1746
(dp1747
g1663
(iplugins.pylisp
ConsCell
p1748
(dp1749
g1663
(iplugins.pylisp
Symbol
p1750
(dp1751
g1653
S'if'
p1752
sbsg1669
(iplugins.pylisp
ConsCell
p1753
(dp1754
g1663
(iplugins.pylisp
ConsCell
p1755
(dp1756
g1663
(iplugins.pylisp
Symbol
p1757
(dp1758
g1653
S'endp'
p1759
sbsg1669
(iplugins.pylisp
ConsCell
p1760
(dp1761
g1663
(iplugins.pylisp
ConsCell
p1762
(dp1763
g1663
(iplugins.pylisp
Symbol
p1764
(dp1765
g1653
S'cdr'
p1766
sbsg1669
(iplugins.pylisp
ConsCell
p1767
(dp1768
g1663
(iplugins.pylisp
Symbol
p1769
(dp1770
g1653
S'l'
p1771
sbsg1669
(iplugins.pylisp
Nil
p1772
(dp1773
bsbsbsg1669
(iplugins.pylisp
Nil
p1774
(dp1775
bsbsbsg1669
(iplugins.pylisp
ConsCell
p1776
(dp1777
g1663
(iplugins.pylisp
ConsCell
p1778
(dp1779
g1663
(iplugins.pylisp
Symbol
p1780
(dp1781
g1653
S'car'
p1782
sbsg1669
(iplugins.pylisp
ConsCell
p1783
(dp1784
g1663
(iplugins.pylisp
Symbol
p1785
(dp1786
g1653
g1771
sbsg1669
(iplugins.pylisp
Nil
p1787
(dp1788
bsbsbsg1669
(iplugins.pylisp
ConsCell
p1789
(dp1790
g1663
(iplugins.pylisp
ConsCell
p1791
(dp1792
g1663
(iplugins.pylisp
Symbol
p1793
(dp1794
g1653
S'f'
p1795
sbsg1669
(iplugins.pylisp
ConsCell
p1796
(dp1797
g1663
(iplugins.pylisp
ConsCell
p1798
(dp1799
g1663
(iplugins.pylisp
Symbol
p1800
(dp1801
g1653
S'car'
p1802
sbsg1669
(iplugins.pylisp
ConsCell
p1803
(dp1804
g1663
(iplugins.pylisp
Symbol
p1805
(dp1806
g1653
g1771
sbsg1669
(iplugins.pylisp
Nil
p1807
(dp1808
bsbsbsg1669
(iplugins.pylisp
ConsCell
p1809
(dp1810
g1663
(iplugins.pylisp
ConsCell
p1811
(dp1812
g1663
(iplugins.pylisp
Symbol
p1813
(dp1814
g1653
S'reduce'
p1815
sbsg1669
(iplugins.pylisp
ConsCell
p1816
(dp1817
g1663
(iplugins.pylisp
Symbol
p1818
(dp1819
g1653
g1795
sbsg1669
(iplugins.pylisp
ConsCell
p1820
(dp1821
g1663
(iplugins.pylisp
ConsCell
p1822
(dp1823
g1663
(iplugins.pylisp
Symbol
p1824
(dp1825
g1653
S'cdr'
p1826
sbsg1669
(iplugins.pylisp
ConsCell
p1827
(dp1828
g1663
(iplugins.pylisp
Symbol
p1829
(dp1830
g1653
g1771
sbsg1669
(iplugins.pylisp
Nil
p1831
(dp1832
bsbsbsg1669
(iplugins.pylisp
Nil
p1833
(dp1834
bsbsbsbsg1669
(iplugins.pylisp
Nil
p1835
(dp1836
bsbsbsbsg1669
(iplugins.pylisp
Nil
p1837
(dp1838
bsbsbsbsbsg1669
(iplugins.pylisp
Nil
p1839
(dp1840
bsbsbsg1685
(iplugins.pylisp
ConsCell
p1841
(dp1842
g1663
(iplugins.pylisp
Symbol
p1843
(dp1844
g1653
g1795
sbsg1669
(iplugins.pylisp
ConsCell
p1845
(dp1846
g1663
(iplugins.pylisp
Symbol
p1847
(dp1848
g1653
g1771
sbsg1669
(iplugins.pylisp
Nil
p1849
(dp1850
bsbsbsg1692
g0
sbs(iplugins.pylisp
Symbol
p1851
(dp1852
g6
S'str-join'
p1853
sb(iplugins.pylisp
Lambda
p1854
(dp1855
g10
(iplugins.pylisp
ExpressionBody
p1856
(dp1857
g13
(iplugins.pylisp
ConsCell
p1858
(dp1859
g16
(iplugins.pylisp
ConsCell
p1860
(dp1861
g16
(iplugins.pylisp
Symbol
p1862
(dp1863
g6
S'reduce'
p1864
sbsg22
(iplugins.pylisp
ConsCell
p1865
(dp1866
g16
(iplugins.pylisp
ConsCell
p1867
(dp1868
g16
(iplugins.pylisp
Symbol
p1869
(dp1870
g6
S'lambda'
p1871
sbsg22
(iplugins.pylisp
ConsCell
p1872
(dp1873
g16
(iplugins.pylisp
ConsCell
p1874
(dp1875
g16
(iplugins.pylisp
Symbol
p1876
(dp1877
g6
S'a'
p1878
sbsg22
(iplugins.pylisp
ConsCell
p1879
(dp1880
g16
(iplugins.pylisp
Symbol
p1881
(dp1882
g6
S'b'
p1883
sbsg22
(iplugins.pylisp
Nil
p1884
(dp1885
bsbsbsg22
(iplugins.pylisp
ConsCell
p1886
(dp1887
g16
(iplugins.pylisp
ConsCell
p1888
(dp1889
g16
(iplugins.pylisp
Symbol
p1890
(dp1891
g6
S'str-append'
p1892
sbsg22
(iplugins.pylisp
ConsCell
p1893
(dp1894
g16
(iplugins.pylisp
Symbol
p1895
(dp1896
g6
g1878
sbsg22
(iplugins.pylisp
ConsCell
p1897
(dp1898
g16
(iplugins.pylisp
ConsCell
p1899
(dp1900
g16
(iplugins.pylisp
Symbol
p1901
(dp1902
g6
S'str-append'
p1903
sbsg22
(iplugins.pylisp
ConsCell
p1904
(dp1905
g16
(iplugins.pylisp
Symbol
p1906
(dp1907
g6
g46
sbsg22
(iplugins.pylisp
ConsCell
p1908
(dp1909
g16
(iplugins.pylisp
Symbol
p1910
(dp1911
g6
g1883
sbsg22
(iplugins.pylisp
Nil
p1912
(dp1913
bsbsbsbsg22
(iplugins.pylisp
Nil
p1914
(dp1915
bsbsbsbsg22
(iplugins.pylisp
Nil
p1916
(dp1917
bsbsbsbsg22
(iplugins.pylisp
ConsCell
p1918
(dp1919
g16
(iplugins.pylisp
Symbol
p1920
(dp1921
g6
S'l'
p1922
sbsg22
(iplugins.pylisp
Nil
p1923
(dp1924
bsbsbsbsg22
(iplugins.pylisp
Nil
p1925
(dp1926
bsbsbsg94
(iplugins.pylisp
ConsCell
p1927
(dp1928
g16
(iplugins.pylisp
Symbol
p1929
(dp1930
g6
g1922
sbsg22
(iplugins.pylisp
ConsCell
p1931
(dp1932
g16
(iplugins.pylisp
Symbol
p1933
(dp1934
g6
g46
sbsg22
(iplugins.pylisp
Nil
p1935
(dp1936
bsbsbsg105
g0
sbs(iplugins.pylisp
Symbol
p1937
(dp1938
g1695
S'dvd4GB'
p1939
sb(iplugins.pylisp
Integer
p1940
(dp1941
S'value'
p1942
I42
sbs(iplugins.pylisp
Symbol
p1943
(dp1944
g1653
S'second'
p1945
sb(iplugins.pylisp
Lambda
p1946
(dp1947
g1657
(iplugins.pylisp
ExpressionBody
p1948
(dp1949
g1660
(iplugins.pylisp
ConsCell
p1950
(dp1951
g1663
(iplugins.pylisp
ConsCell
p1952
(dp1953
g1663
(iplugins.pylisp
Symbol
p1954
(dp1955
g1653
S'nth'
p1956
sbsg1669
(iplugins.pylisp
ConsCell
p1957
(dp1958
g1663
(iplugins.pylisp
Symbol
p1959
(dp1960
g1653
g1771
sbsg1669
(iplugins.pylisp
ConsCell
p1961
(dp1962
g1663
(iplugins.pylisp
Integer
p1963
(dp1964
g1674
I1
sbsg1669
(iplugins.pylisp
Nil
p1965
(dp1966
bsbsbsbsg1669
(iplugins.pylisp
Nil
p1967
(dp1968
bsbsbsg1685
(iplugins.pylisp
ConsCell
p1969
(dp1970
g1663
(iplugins.pylisp
Symbol
p1971
(dp1972
g1653
g1771
sbsg1669
(iplugins.pylisp
Nil
p1973
(dp1974
bsbsg1692
g0
sbs(iplugins.pylisp
Symbol
p1975
(dp1976
S'name'
p1977
S'k\xc3\xb6tt'
p1978
sb(iplugins.pylisp
Symbol
p1979
(dp1980
g1977
S'\xe7\xb2\xbe\xe8\x82\x89'
p1981
sbs(iplugins.pylisp
Symbol
p1982
(dp1983
g868
S'append'
p1984
sb(iplugins.pylisp
Lambda
p1985
(dp1986
g447
(iplugins.pylisp
ExpressionBody
p1987
(dp1988
g450
(iplugins.pylisp
ConsCell
p1989
(dp1990
g453
(iplugins.pylisp
ConsCell
p1991
(dp1992
g453
(iplugins.pylisp
Symbol
p1993
(dp1994
g443
S'if'
p1995
sbsg459
(iplugins.pylisp
ConsCell
p1996
(dp1997
g453
(iplugins.pylisp
ConsCell
p1998
(dp1999
g453
(iplugins.pylisp
Symbol
p2000
(dp2001
g443
S'endp'
p2002
sbsg459
(iplugins.pylisp
ConsCell
p2003
(dp2004
g453
(iplugins.pylisp
Symbol
p2005
(dp2006
g443
S'la'
p2007
sbsg459
(iplugins.pylisp
Nil
p2008
(dp2009
bsbsbsg459
(iplugins.pylisp
ConsCell
p2010
(dp2011
g453
(iplugins.pylisp
ConsCell
p2012
(dp2013
g453
(iplugins.pylisp
Symbol
p2014
(dp2015
g443
S'if'
p2016
sbsg459
(iplugins.pylisp
ConsCell
p2017
(dp2018
g453
(iplugins.pylisp
ConsCell
p2019
(dp2020
g453
(iplugins.pylisp
Symbol
p2021
(dp2022
g443
S'endp'
p2023
sbsg459
(iplugins.pylisp
ConsCell
p2024
(dp2025
g453
(iplugins.pylisp
Symbol
p2026
(dp2027
g443
S'lb'
p2028
sbsg459
(iplugins.pylisp
Nil
p2029
(dp2030
bsbsbsg459
(iplugins.pylisp
ConsCell
p2031
(dp2032
g453
(iplugins.pylisp
Quoted
p2033
(dp2034
S'quoted_expression'
p2035
(iplugins.pylisp
Nil
p2036
(dp2037
bsbsg459
(iplugins.pylisp
ConsCell
p2038
(dp2039
g453
(iplugins.pylisp
ConsCell
p2040
(dp2041
g453
(iplugins.pylisp
Symbol
p2042
(dp2043
g443
S'cons'
p2044
sbsg459
(iplugins.pylisp
ConsCell
p2045
(dp2046
g453
(iplugins.pylisp
ConsCell
p2047
(dp2048
g453
(iplugins.pylisp
Symbol
p2049
(dp2050
g443
S'car'
p2051
sbsg459
(iplugins.pylisp
ConsCell
p2052
(dp2053
g453
(iplugins.pylisp
Symbol
p2054
(dp2055
g443
S'lb'
p2056
sbsg459
(iplugins.pylisp
Nil
p2057
(dp2058
bsbsbsg459
(iplugins.pylisp
ConsCell
p2059
(dp2060
g453
(iplugins.pylisp
ConsCell
p2061
(dp2062
g453
(iplugins.pylisp
Symbol
p2063
(dp2064
g443
S'append'
p2065
sbsg459
(iplugins.pylisp
ConsCell
p2066
(dp2067
g453
(iplugins.pylisp
Symbol
p2068
(dp2069
g443
S'la'
p2070
sbsg459
(iplugins.pylisp
ConsCell
p2071
(dp2072
g453
(iplugins.pylisp
ConsCell
p2073
(dp2074
g453
(iplugins.pylisp
Symbol
p2075
(dp2076
g443
S'cdr'
p2077
sbsg459
(iplugins.pylisp
ConsCell
p2078
(dp2079
g453
(iplugins.pylisp
Symbol
p2080
(dp2081
g443
S'lb'
p2082
sbsg459
(iplugins.pylisp
Nil
p2083
(dp2084
bsbsbsg459
(iplugins.pylisp
Nil
p2085
(dp2086
bsbsbsbsg459
(iplugins.pylisp
Nil
p2087
(dp2088
bsbsbsbsg459
(iplugins.pylisp
Nil
p2089
(dp2090
bsbsbsbsbsg459
(iplugins.pylisp
ConsCell
p2091
(dp2092
g453
(iplugins.pylisp
ConsCell
p2093
(dp2094
g453
(iplugins.pylisp
Symbol
p2095
(dp2096
g443
S'cons'
p2097
sbsg459
(iplugins.pylisp
ConsCell
p2098
(dp2099
g453
(iplugins.pylisp
ConsCell
p2100
(dp2101
g453
(iplugins.pylisp
Symbol
p2102
(dp2103
g443
S'car'
p2104
sbsg459
(iplugins.pylisp
ConsCell
p2105
(dp2106
g453
(iplugins.pylisp
Symbol
p2107
(dp2108
g443
S'la'
p2109
sbsg459
(iplugins.pylisp
Nil
p2110
(dp2111
bsbsbsg459
(iplugins.pylisp
ConsCell
p2112
(dp2113
g453
(iplugins.pylisp
ConsCell
p2114
(dp2115
g453
(iplugins.pylisp
Symbol
p2116
(dp2117
g443
S'append'
p2118
sbsg459
(iplugins.pylisp
ConsCell
p2119
(dp2120
g453
(iplugins.pylisp
ConsCell
p2121
(dp2122
g453
(iplugins.pylisp
Symbol
p2123
(dp2124
g443
S'cdr'
p2125
sbsg459
(iplugins.pylisp
ConsCell
p2126
(dp2127
g453
(iplugins.pylisp
Symbol
p2128
(dp2129
g443
S'la'
p2130
sbsg459
(iplugins.pylisp
Nil
p2131
(dp2132
bsbsbsg459
(iplugins.pylisp
ConsCell
p2133
(dp2134
g453
(iplugins.pylisp
Symbol
p2135
(dp2136
g443
S'lb'
p2137
sbsg459
(iplugins.pylisp
Nil
p2138
(dp2139
bsbsbsbsg459
(iplugins.pylisp
Nil
p2140
(dp2141
bsbsbsbsg459
(iplugins.pylisp
Nil
p2142
(dp2143
bsbsbsbsbsg459
(iplugins.pylisp
Nil
p2144
(dp2145
bsbsbsg575
(iplugins.pylisp
ConsCell
p2146
(dp2147
g453
(iplugins.pylisp
Symbol
p2148
(dp2149
g443
S'la'
p2150
sbsg459
(iplugins.pylisp
ConsCell
p2151
(dp2152
g453
(iplugins.pylisp
Symbol
p2153
(dp2154
g443
S'lb'
p2155
sbsg459
(iplugins.pylisp
Nil
p2156
(dp2157
bsbsbsg587
g0
sbs(iplugins.pylisp
Symbol
p2158
(dp2159
g799
S'abc'
p2160
sb(iplugins.pylisp
Lambda
p2161
(dp2162
g1705
(iplugins.pylisp
ExpressionBody
p2163
(dp2164
g1708
(iplugins.pylisp
ConsCell
p2165
(dp2166
g424
(iplugins.pylisp
ConsCell
p2167
(dp2168
g424
(iplugins.pylisp
Symbol
p2169
(dp2170
g420
S'abc'
p2171
sbsg428
(iplugins.pylisp
ConsCell
p2172
(dp2173
g424
(iplugins.pylisp
Symbol
p2174
(dp2175
g420
S'x'
p2176
sbsg428
(iplugins.pylisp
Nil
p2177
(dp2178
bsbsbsg428
(iplugins.pylisp
Nil
p2179
(dp2180
bsbsbsg1725
(iplugins.pylisp
ConsCell
p2181
(dp2182
g424
(iplugins.pylisp
Symbol
p2183
(dp2184
g420
g2176
sbsg428
(iplugins.pylisp
Nil
p2185
(dp2186
bsbsg1728
g0
sbs(iplugins.pylisp
Symbol
p2187
(dp2188
g6
S'k\xc3\xb6p'
p2189
sb(iplugins.pylisp
Lambda
p2190
(dp2191
g10
(iplugins.pylisp
ExpressionBody
p2192
(dp2193
g13
(iplugins.pylisp
ConsCell
p2194
(dp2195
g16
(iplugins.pylisp
ConsCell
p2196
(dp2197
g16
(iplugins.pylisp
Symbol
p2198
(dp2199
g6
S'str-append'
p2200
sbsg22
(iplugins.pylisp
ConsCell
p2201
(dp2202
g16
(iplugins.pylisp
String
p2203
(dp2204
g39
S'k'
p2205
sbsg22
(iplugins.pylisp
ConsCell
p2206
(dp2207
g16
(iplugins.pylisp
ConsCell
p2208
(dp2209
g16
(iplugins.pylisp
Symbol
p2210
(dp2211
g6
S'str-append'
p2212
sbsg22
(iplugins.pylisp
ConsCell
p2213
(dp2214
g16
(iplugins.pylisp
ConsCell
p2215
(dp2216
g16
(iplugins.pylisp
Symbol
p2217
(dp2218
g6
S'stimes'
p2219
sbsg22
(iplugins.pylisp
ConsCell
p2220
(dp2221
g16
(iplugins.pylisp
Symbol
p2222
(dp2223
g6
g34
sbsg22
(iplugins.pylisp
ConsCell
p2224
(dp2225
g16
(iplugins.pylisp
String
p2226
(dp2227
g39
S'\xc3\xb6'
p2228
sbsg22
(iplugins.pylisp
Nil
p2229
(dp2230
bsbsbsbsg22
(iplugins.pylisp
ConsCell
p2231
(dp2232
g16
(iplugins.pylisp
String
p2233
(dp2234
g39
S'p'
p2235
sbsg22
(iplugins.pylisp
Nil
p2236
(dp2237
bsbsbsbsg22
(iplugins.pylisp
Nil
p2238
(dp2239
bsbsbsbsg22
(iplugins.pylisp
Nil
p2240
(dp2241
bsbsbsg94
(iplugins.pylisp
ConsCell
p2242
(dp2243
g16
(iplugins.pylisp
Symbol
p2244
(dp2245
g6
g34
sbsg22
(iplugins.pylisp
Nil
p2246
(dp2247
bsbsg105
g0
sbs(iplugins.pylisp
Symbol
p2248
(dp2249
g232
S'caaar'
p2250
sb(iplugins.pylisp
Lambda
p2251
(dp2252
g890
(iplugins.pylisp
ExpressionBody
p2253
(dp2254
g893
(iplugins.pylisp
ConsCell
p2255
(dp2256
g896
(iplugins.pylisp
ConsCell
p2257
(dp2258
g896
(iplugins.pylisp
Symbol
p2259
(dp2260
g232
S'car'
p2261
sbsg239
(iplugins.pylisp
ConsCell
p2262
(dp2263
g896
(iplugins.pylisp
ConsCell
p2264
(dp2265
g896
(iplugins.pylisp
Symbol
p2266
(dp2267
g232
S'car'
p2268
sbsg239
(iplugins.pylisp
ConsCell
p2269
(dp2270
g896
(iplugins.pylisp
ConsCell
p2271
(dp2272
g896
(iplugins.pylisp
Symbol
p2273
(dp2274
g232
S'car'
p2275
sbsg239
(iplugins.pylisp
ConsCell
p2276
(dp2277
g896
(iplugins.pylisp
Symbol
p2278
(dp2279
g232
g913
sbsg239
(iplugins.pylisp
Nil
p2280
(dp2281
bsbsbsg239
(iplugins.pylisp
Nil
p2282
(dp2283
bsbsbsg239
(iplugins.pylisp
Nil
p2284
(dp2285
bsbsbsg239
(iplugins.pylisp
Nil
p2286
(dp2287
bsbsbsg968
(iplugins.pylisp
ConsCell
p2288
(dp2289
g896
(iplugins.pylisp
Symbol
p2290
(dp2291
g232
g913
sbsg239
(iplugins.pylisp
Nil
p2292
(dp2293
bsbsg975
g0
sbs(iplugins.pylisp
Symbol
p2294
(dp2295
g752
S'+'
p2296
sb(iplugins.pylisp
Lambda
p2297
(dp2298
S'expression'
p2299
(iplugins.pylisp
ExpressionBody
p2300
(dp2301
S'expressions'
p2302
(iplugins.pylisp
ConsCell
p2303
(dp2304
S'car'
p2305
(iplugins.pylisp
ConsCell
p2306
(dp2307
g2305
(iplugins.pylisp
Symbol
p2308
(dp2309
S'name'
p2310
S'-'
p2311
sbsS'cdr'
p2312
(iplugins.pylisp
ConsCell
p2313
(dp2314
g2305
(iplugins.pylisp
Symbol
p2315
(dp2316
g2310
S'x'
p2317
sbsg2312
(iplugins.pylisp
ConsCell
p2318
(dp2319
g2305
(iplugins.pylisp
ConsCell
p2320
(dp2321
g2305
(iplugins.pylisp
Symbol
p2322
(dp2323
g2310
g2311
sbsg2312
(iplugins.pylisp
ConsCell
p2324
(dp2325
g2305
(iplugins.pylisp
Integer
p2326
(dp2327
S'value'
p2328
I0
sbsg2312
(iplugins.pylisp
ConsCell
p2329
(dp2330
g2305
(iplugins.pylisp
Symbol
p2331
(dp2332
g2310
S'y'
p2333
sbsg2312
(iplugins.pylisp
Nil
p2334
(dp2335
bsbsbsbsg2312
(iplugins.pylisp
Nil
p2336
(dp2337
bsbsbsbsg2312
(iplugins.pylisp
Nil
p2338
(dp2339
bsbsbsS'parameters'
p2340
(iplugins.pylisp
ConsCell
p2341
(dp2342
g2305
(iplugins.pylisp
Symbol
p2343
(dp2344
g2310
g2317
sbsg2312
(iplugins.pylisp
ConsCell
p2345
(dp2346
g2305
(iplugins.pylisp
Symbol
p2347
(dp2348
g2310
g2333
sbsg2312
(iplugins.pylisp
Nil
p2349
(dp2350
bsbsbsS'env'
p2351
g0
sbs(iplugins.pylisp
Symbol
p2352
(dp2353
S'name'
p2354
S'magic-8-ball'
p2355
sb(iplugins.pylisp
Lambda
p2356
(dp2357
S'expression'
p2358
(iplugins.pylisp
ExpressionBody
p2359
(dp2360
S'expressions'
p2361
(iplugins.pylisp
ConsCell
p2362
(dp2363
S'car'
p2364
(iplugins.pylisp
ConsCell
p2365
(dp2366
g2364
(iplugins.pylisp
Symbol
p2367
(dp2368
g2354
S'nth'
p2369
sbsS'cdr'
p2370
(iplugins.pylisp
ConsCell
p2371
(dp2372
g2364
(iplugins.pylisp
Quoted
p2373
(dp2374
S'quoted_expression'
p2375
(iplugins.pylisp
ConsCell
p2376
(dp2377
g2364
(iplugins.pylisp
String
p2378
(dp2379
S'value'
p2380
S'As I see it, yes'
p2381
sbsg2370
(iplugins.pylisp
ConsCell
p2382
(dp2383
g2364
(iplugins.pylisp
String
p2384
(dp2385
g2380
S'It is certain'
p2386
sbsg2370
(iplugins.pylisp
ConsCell
p2387
(dp2388
g2364
(iplugins.pylisp
String
p2389
(dp2390
g2380
S'It is decidedly so'
p2391
sbsg2370
(iplugins.pylisp
ConsCell
p2392
(dp2393
g2364
(iplugins.pylisp
String
p2394
(dp2395
g2380
S'Most likely'
p2396
sbsg2370
(iplugins.pylisp
ConsCell
p2397
(dp2398
g2364
(iplugins.pylisp
String
p2399
(dp2400
g2380
S'Outlook good'
p2401
sbsg2370
(iplugins.pylisp
ConsCell
p2402
(dp2403
g2364
(iplugins.pylisp
String
p2404
(dp2405
g2380
S'Signs point to yes'
p2406
sbsg2370
(iplugins.pylisp
ConsCell
p2407
(dp2408
g2364
(iplugins.pylisp
String
p2409
(dp2410
g2380
S'Without a doubt'
p2411
sbsg2370
(iplugins.pylisp
ConsCell
p2412
(dp2413
g2364
(iplugins.pylisp
String
p2414
(dp2415
g2380
S'Yes'
p2416
sbsg2370
(iplugins.pylisp
ConsCell
p2417
(dp2418
g2364
(iplugins.pylisp
String
p2419
(dp2420
g2380
S'Yes - definitely'
p2421
sbsg2370
(iplugins.pylisp
ConsCell
p2422
(dp2423
g2364
(iplugins.pylisp
String
p2424
(dp2425
g2380
S'You may rely on it'
p2426
sbsg2370
(iplugins.pylisp
ConsCell
p2427
(dp2428
g2364
(iplugins.pylisp
String
p2429
(dp2430
g2380
S'Reply hazy, try again'
p2431
sbsg2370
(iplugins.pylisp
ConsCell
p2432
(dp2433
g2364
(iplugins.pylisp
String
p2434
(dp2435
g2380
S'Ask again later'
p2436
sbsg2370
(iplugins.pylisp
ConsCell
p2437
(dp2438
g2364
(iplugins.pylisp
String
p2439
(dp2440
g2380
S'Better not tell you now'
p2441
sbsg2370
(iplugins.pylisp
ConsCell
p2442
(dp2443
g2364
(iplugins.pylisp
String
p2444
(dp2445
g2380
S'Cannot predict now'
p2446
sbsg2370
(iplugins.pylisp
ConsCell
p2447
(dp2448
g2364
(iplugins.pylisp
String
p2449
(dp2450
g2380
S'Concentrace and ask again'
p2451
sbsg2370
(iplugins.pylisp
ConsCell
p2452
(dp2453
g2364
(iplugins.pylisp
String
p2454
(dp2455
g2380
S"Don't count on it"
p2456
sbsg2370
(iplugins.pylisp
ConsCell
p2457
(dp2458
g2364
(iplugins.pylisp
String
p2459
(dp2460
g2380
S'My reply is no'
p2461
sbsg2370
(iplugins.pylisp
ConsCell
p2462
(dp2463
g2364
(iplugins.pylisp
String
p2464
(dp2465
g2380
S'My sources say no'
p2466
sbsg2370
(iplugins.pylisp
ConsCell
p2467
(dp2468
g2364
(iplugins.pylisp
String
p2469
(dp2470
g2380
S'Outlook not so good'
p2471
sbsg2370
(iplugins.pylisp
ConsCell
p2472
(dp2473
g2364
(iplugins.pylisp
String
p2474
(dp2475
g2380
S'Very doubtful'
p2476
sbsg2370
(iplugins.pylisp
Nil
p2477
(dp2478
bsbsbsbsbsbsbsbsbsbsbsbsbsbsbsbsbsbsbsbsbsbsg2370
(iplugins.pylisp
ConsCell
p2479
(dp2480
g2364
(iplugins.pylisp
ConsCell
p2481
(dp2482
g2364
(iplugins.pylisp
Symbol
p2483
(dp2484
g2354
S'rand'
p2485
sbsg2370
(iplugins.pylisp
ConsCell
p2486
(dp2487
g2364
(iplugins.pylisp
Integer
p2488
(dp2489
g2380
I20
sbsg2370
(iplugins.pylisp
Nil
p2490
(dp2491
bsbsbsg2370
(iplugins.pylisp
Nil
p2492
(dp2493
bsbsbsbsg2370
(iplugins.pylisp
Nil
p2494
(dp2495
bsbsbsS'parameters'
p2496
(iplugins.pylisp
Nil
p2497
(dp2498
bsS'env'
p2499
g0
sbs(iplugins.pylisp
Symbol
p2500
(dp2501
g114
S'randmerge'
p2502
sb(iplugins.pylisp
Lambda
p2503
(dp2504
g118
(iplugins.pylisp
ExpressionBody
p2505
(dp2506
g121
(iplugins.pylisp
ConsCell
p2507
(dp2508
g124
(iplugins.pylisp
ConsCell
p2509
(dp2510
g124
(iplugins.pylisp
Symbol
p2511
(dp2512
g114
S'if'
p2513
sbsg130
(iplugins.pylisp
ConsCell
p2514
(dp2515
g124
(iplugins.pylisp
ConsCell
p2516
(dp2517
g124
(iplugins.pylisp
Symbol
p2518
(dp2519
g114
S'endp'
p2520
sbsg130
(iplugins.pylisp
ConsCell
p2521
(dp2522
g124
(iplugins.pylisp
Symbol
p2523
(dp2524
g114
S'l1'
p2525
sbsg130
(iplugins.pylisp
Nil
p2526
(dp2527
bsbsbsg130
(iplugins.pylisp
ConsCell
p2528
(dp2529
g124
(iplugins.pylisp
Symbol
p2530
(dp2531
g114
S'l2'
p2532
sbsg130
(iplugins.pylisp
ConsCell
p2533
(dp2534
g124
(iplugins.pylisp
ConsCell
p2535
(dp2536
g124
(iplugins.pylisp
Symbol
p2537
(dp2538
g114
S'if'
p2539
sbsg130
(iplugins.pylisp
ConsCell
p2540
(dp2541
g124
(iplugins.pylisp
ConsCell
p2542
(dp2543
g124
(iplugins.pylisp
Symbol
p2544
(dp2545
g114
S'endp'
p2546
sbsg130
(iplugins.pylisp
ConsCell
p2547
(dp2548
g124
(iplugins.pylisp
Symbol
p2549
(dp2550
g114
S'l2'
p2551
sbsg130
(iplugins.pylisp
Nil
p2552
(dp2553
bsbsbsg130
(iplugins.pylisp
ConsCell
p2554
(dp2555
g124
(iplugins.pylisp
Symbol
p2556
(dp2557
g114
S'l1'
p2558
sbsg130
(iplugins.pylisp
ConsCell
p2559
(dp2560
g124
(iplugins.pylisp
ConsCell
p2561
(dp2562
g124
(iplugins.pylisp
Symbol
p2563
(dp2564
g114
S'cons'
p2565
sbsg130
(iplugins.pylisp
ConsCell
p2566
(dp2567
g124
(iplugins.pylisp
ConsCell
p2568
(dp2569
g124
(iplugins.pylisp
Symbol
p2570
(dp2571
g114
S'first'
p2572
sbsg130
(iplugins.pylisp
ConsCell
p2573
(dp2574
g124
(iplugins.pylisp
Symbol
p2575
(dp2576
g114
S'l1'
p2577
sbsg130
(iplugins.pylisp
Nil
p2578
(dp2579
bsbsbsg130
(iplugins.pylisp
ConsCell
p2580
(dp2581
g124
(iplugins.pylisp
ConsCell
p2582
(dp2583
g124
(iplugins.pylisp
Symbol
p2584
(dp2585
g114
S'cons'
p2586
sbsg130
(iplugins.pylisp
ConsCell
p2587
(dp2588
g124
(iplugins.pylisp
ConsCell
p2589
(dp2590
g124
(iplugins.pylisp
Symbol
p2591
(dp2592
g114
S'first'
p2593
sbsg130
(iplugins.pylisp
ConsCell
p2594
(dp2595
g124
(iplugins.pylisp
Symbol
p2596
(dp2597
g114
S'l2'
p2598
sbsg130
(iplugins.pylisp
Nil
p2599
(dp2600
bsbsbsg130
(iplugins.pylisp
ConsCell
p2601
(dp2602
g124
(iplugins.pylisp
ConsCell
p2603
(dp2604
g124
(iplugins.pylisp
Symbol
p2605
(dp2606
g114
S'randmerge'
p2607
sbsg130
(iplugins.pylisp
ConsCell
p2608
(dp2609
g124
(iplugins.pylisp
ConsCell
p2610
(dp2611
g124
(iplugins.pylisp
Symbol
p2612
(dp2613
g114
S'rest'
p2614
sbsg130
(iplugins.pylisp
ConsCell
p2615
(dp2616
g124
(iplugins.pylisp
Symbol
p2617
(dp2618
g114
S'l1'
p2619
sbsg130
(iplugins.pylisp
Nil
p2620
(dp2621
bsbsbsg130
(iplugins.pylisp
ConsCell
p2622
(dp2623
g124
(iplugins.pylisp
ConsCell
p2624
(dp2625
g124
(iplugins.pylisp
Symbol
p2626
(dp2627
g114
S'rest'
p2628
sbsg130
(iplugins.pylisp
ConsCell
p2629
(dp2630
g124
(iplugins.pylisp
Symbol
p2631
(dp2632
g114
S'l2'
p2633
sbsg130
(iplugins.pylisp
Nil
p2634
(dp2635
bsbsbsg130
(iplugins.pylisp
Nil
p2636
(dp2637
bsbsbsbsg130
(iplugins.pylisp
Nil
p2638
(dp2639
bsbsbsbsg130
(iplugins.pylisp
Nil
p2640
(dp2641
bsbsbsbsg130
(iplugins.pylisp
Nil
p2642
(dp2643
bsbsbsbsbsg130
(iplugins.pylisp
Nil
p2644
(dp2645
bsbsbsbsbsg130
(iplugins.pylisp
Nil
p2646
(dp2647
bsbsbsg218
(iplugins.pylisp
ConsCell
p2648
(dp2649
g124
(iplugins.pylisp
Symbol
p2650
(dp2651
g114
S'l1'
p2652
sbsg130
(iplugins.pylisp
ConsCell
p2653
(dp2654
g124
(iplugins.pylisp
Symbol
p2655
(dp2656
g114
S'l2'
p2657
sbsg130
(iplugins.pylisp
Nil
p2658
(dp2659
bsbsbsg229
g0
sbs(iplugins.pylisp
Symbol
p2660
(dp2661
S'name'
p2662
S'kuk'
p2663
sb(iplugins.pylisp
Symbol
p2664
(dp2665
g108
S'C===========8'
p2666
sbs(iplugins.pylisp
Symbol
p2667
(dp2668
g443
S'\xe5\x8d\x90'
p2669
sb(iplugins.pylisp
Symbol
p2670
(dp2671
g443
S'http://xn--zkr'
p2672
sbs(iplugins.pylisp
Symbol
p2673
(dp2674
S'name'
p2675
S'best\xc3\xa4ll-pizza'
p2676
sb(iplugins.pylisp
Lambda
p2677
(dp2678
S'expression'
p2679
(iplugins.pylisp
ExpressionBody
p2680
(dp2681
S'expressions'
p2682
(iplugins.pylisp
ConsCell
p2683
(dp2684
S'car'
p2685
(iplugins.pylisp
ConsCell
p2686
(dp2687
g2685
(iplugins.pylisp
Symbol
p2688
(dp2689
g2675
S'setq'
p2690
sbsS'cdr'
p2691
(iplugins.pylisp
ConsCell
p2692
(dp2693
g2685
(iplugins.pylisp
Symbol
p2694
(dp2695
g2675
S'*pizzalista*'
p2696
sbsg2691
(iplugins.pylisp
ConsCell
p2697
(dp2698
g2685
(iplugins.pylisp
ConsCell
p2699
(dp2700
g2685
(iplugins.pylisp
Symbol
p2701
(dp2702
g2675
S'cons'
p2703
sbsg2691
(iplugins.pylisp
ConsCell
p2704
(dp2705
g2685
(iplugins.pylisp
ConsCell
p2706
(dp2707
g2685
(iplugins.pylisp
Symbol
p2708
(dp2709
g2675
S'list'
p2710
sbsg2691
(iplugins.pylisp
ConsCell
p2711
(dp2712
g2685
(iplugins.pylisp
Symbol
p2713
(dp2714
g2675
S'pizza'
p2715
sbsg2691
(iplugins.pylisp
ConsCell
p2716
(dp2717
g2685
(iplugins.pylisp
Symbol
p2718
(dp2719
g2675
S'dricka'
p2720
sbsg2691
(iplugins.pylisp
Nil
p2721
(dp2722
bsbsbsbsg2691
(iplugins.pylisp
ConsCell
p2723
(dp2724
g2685
(iplugins.pylisp
Symbol
p2725
(dp2726
g2675
S'*pizzalista*'
p2727
sbsg2691
(iplugins.pylisp
Nil
p2728
(dp2729
bsbsbsbsg2691
(iplugins.pylisp
Nil
p2730
(dp2731
bsbsbsbsg2691
(iplugins.pylisp
Nil
p2732
(dp2733
bsbsbsS'parameters'
p2734
(iplugins.pylisp
ConsCell
p2735
(dp2736
g2685
(iplugins.pylisp
Symbol
p2737
(dp2738
g2675
S'pizza'
p2739
sbsg2691
(iplugins.pylisp
ConsCell
p2740
(dp2741
g2685
(iplugins.pylisp
Symbol
p2742
(dp2743
g2675
S'dricka'
p2744
sbsg2691
(iplugins.pylisp
Nil
p2745
(dp2746
bsbsbsS'env'
p2747
g0
sbs(iplugins.pylisp
Symbol
p2748
(dp2749
g1977
S'festern'
p2750
sb(iplugins.pylisp
ConsCell
p2751
(dp2752
S'car'
p2753
(iplugins.pylisp
Symbol
p2754
(dp2755
g1977
S'\xc3\xb6l'
p2756
sbsS'cdr'
p2757
(iplugins.pylisp
Symbol
p2758
(dp2759
g1977
S'k\xc3\xb6tt'
p2760
sbsbs(iplugins.pylisp
Symbol
p2761
(dp2762
g108
S'inversern'
p2763
sb(iplugins.pylisp
Lambda
p2764
(dp2765
g288
(iplugins.pylisp
ExpressionBody
p2766
(dp2767
g291
(iplugins.pylisp
ConsCell
p2768
(dp2769
g294
(iplugins.pylisp
ConsCell
p2770
(dp2771
g294
(iplugins.pylisp
Symbol
p2772
(dp2773
g108
S'if'
p2774
sbsg300
(iplugins.pylisp
ConsCell
p2775
(dp2776
g294
(iplugins.pylisp
ConsCell
p2777
(dp2778
g294
(iplugins.pylisp
Symbol
p2779
(dp2780
g108
S'eq'
p2781
sbsg300
(iplugins.pylisp
ConsCell
p2782
(dp2783
g294
(iplugins.pylisp
Symbol
p2784
(dp2785
g108
S'inputern'
p2786
sbsg300
(iplugins.pylisp
ConsCell
p2787
(dp2788
g294
(iplugins.pylisp
Quoted
p2789
(dp2790
S'quoted_expression'
p2791
(iplugins.pylisp
Symbol
p2792
(dp2793
g108
S'b\xc3\xa4st'
p2794
sbsbsg300
(iplugins.pylisp
Nil
p2795
(dp2796
bsbsbsbsg300
(iplugins.pylisp
ConsCell
p2797
(dp2798
g294
(iplugins.pylisp
Quoted
p2799
(dp2800
g2791
(iplugins.pylisp
Symbol
p2801
(dp2802
g108
S's\xc3\xa4mst'
p2803
sbsbsg300
(iplugins.pylisp
ConsCell
p2804
(dp2805
g294
(iplugins.pylisp
Quoted
p2806
(dp2807
g2791
(iplugins.pylisp
Symbol
p2808
(dp2809
g108
S'b\xc3\xa4st'
p2810
sbsbsg300
(iplugins.pylisp
Nil
p2811
(dp2812
bsbsbsbsbsg300
(iplugins.pylisp
Nil
p2813
(dp2814
bsbsbsg342
(iplugins.pylisp
ConsCell
p2815
(dp2816
g294
(iplugins.pylisp
Symbol
p2817
(dp2818
g108
S'inputern'
p2819
sbsg300
(iplugins.pylisp
Nil
p2820
(dp2821
bsbsg349
g0
sbs(iplugins.pylisp
Symbol
p2822
(dp2823
g853
S'loltest123'
p2824
sb(iplugins.pylisp
Lambda
p2825
(dp2826
S'expression'
p2827
(iplugins.pylisp
ExpressionBody
p2828
(dp2829
S'expressions'
p2830
(iplugins.pylisp
ConsCell
p2831
(dp2832
S'car'
p2833
(iplugins.pylisp
ConsCell
p2834
(dp2835
g2833
(iplugins.pylisp
Symbol
p2836
(dp2837
g853
S'let'
p2838
sbsS'cdr'
p2839
(iplugins.pylisp
ConsCell
p2840
(dp2841
g2833
(iplugins.pylisp
ConsCell
p2842
(dp2843
g2833
(iplugins.pylisp
ConsCell
p2844
(dp2845
g2833
(iplugins.pylisp
Symbol
p2846
(dp2847
g853
S'next'
p2848
sbsg2839
(iplugins.pylisp
ConsCell
p2849
(dp2850
g2833
(iplugins.pylisp
ConsCell
p2851
(dp2852
g2833
(iplugins.pylisp
Symbol
p2853
(dp2854
g853
S'lambda'
p2855
sbsg2839
(iplugins.pylisp
ConsCell
p2856
(dp2857
g2833
(iplugins.pylisp
ConsCell
p2858
(dp2859
g2833
(iplugins.pylisp
Symbol
p2860
(dp2861
g853
S'n'
p2862
sbsg2839
(iplugins.pylisp
Nil
p2863
(dp2864
bsbsg2839
(iplugins.pylisp
ConsCell
p2865
(dp2866
g2833
(iplugins.pylisp
ConsCell
p2867
(dp2868
g2833
(iplugins.pylisp
Symbol
p2869
(dp2870
g853
S'if'
p2871
sbsg2839
(iplugins.pylisp
ConsCell
p2872
(dp2873
g2833
(iplugins.pylisp
ConsCell
p2874
(dp2875
g2833
(iplugins.pylisp
Symbol
p2876
(dp2877
g853
S'<='
p2878
sbsg2839
(iplugins.pylisp
ConsCell
p2879
(dp2880
g2833
(iplugins.pylisp
Symbol
p2881
(dp2882
g853
g2862
sbsg2839
(iplugins.pylisp
ConsCell
p2883
(dp2884
g2833
(iplugins.pylisp
Integer
p2885
(dp2886
S'value'
p2887
I0
sbsg2839
(iplugins.pylisp
Nil
p2888
(dp2889
bsbsbsbsg2839
(iplugins.pylisp
ConsCell
p2890
(dp2891
g2833
(iplugins.pylisp
ConsCell
p2892
(dp2893
g2833
(iplugins.pylisp
Symbol
p2894
(dp2895
g853
S'nom-gen'
p2896
sbsg2839
(iplugins.pylisp
Nil
p2897
(dp2898
bsbsg2839
(iplugins.pylisp
ConsCell
p2899
(dp2900
g2833
(iplugins.pylisp
ConsCell
p2901
(dp2902
g2833
(iplugins.pylisp
Symbol
p2903
(dp2904
g853
S'str-append'
p2905
sbsg2839
(iplugins.pylisp
ConsCell
p2906
(dp2907
g2833
(iplugins.pylisp
ConsCell
p2908
(dp2909
g2833
(iplugins.pylisp
Symbol
p2910
(dp2911
g853
S'str-append'
p2912
sbsg2839
(iplugins.pylisp
ConsCell
p2913
(dp2914
g2833
(iplugins.pylisp
ConsCell
p2915
(dp2916
g2833
(iplugins.pylisp
Symbol
p2917
(dp2918
g853
S'nom-gen'
p2919
sbsg2839
(iplugins.pylisp
Nil
p2920
(dp2921
bsbsg2839
(iplugins.pylisp
ConsCell
p2922
(dp2923
g2833
(iplugins.pylisp
String
p2924
(dp2925
g2887
S'-'
p2926
sbsg2839
(iplugins.pylisp
Nil
p2927
(dp2928
bsbsbsbsg2839
(iplugins.pylisp
ConsCell
p2929
(dp2930
g2833
(iplugins.pylisp
ConsCell
p2931
(dp2932
g2833
(iplugins.pylisp
Symbol
p2933
(dp2934
g853
S'next'
p2935
sbsg2839
(iplugins.pylisp
ConsCell
p2936
(dp2937
g2833
(iplugins.pylisp
ConsCell
p2938
(dp2939
g2833
(iplugins.pylisp
Symbol
p2940
(dp2941
g853
g2926
sbsg2839
(iplugins.pylisp
ConsCell
p2942
(dp2943
g2833
(iplugins.pylisp
Symbol
p2944
(dp2945
g853
g2862
sbsg2839
(iplugins.pylisp
ConsCell
p2946
(dp2947
g2833
(iplugins.pylisp
Integer
p2948
(dp2949
g2887
I1
sbsg2839
(iplugins.pylisp
Nil
p2950
(dp2951
bsbsbsbsg2839
(iplugins.pylisp
Nil
p2952
(dp2953
bsbsbsg2839
(iplugins.pylisp
Nil
p2954
(dp2955
bsbsbsbsg2839
(iplugins.pylisp
Nil
p2956
(dp2957
bsbsbsbsbsg2839
(iplugins.pylisp
Nil
p2958
(dp2959
bsbsbsbsg2839
(iplugins.pylisp
Nil
p2960
(dp2961
bsbsbsg2839
(iplugins.pylisp
Nil
p2962
(dp2963
bsbsg2839
(iplugins.pylisp
ConsCell
p2964
(dp2965
g2833
(iplugins.pylisp
ConsCell
p2966
(dp2967
g2833
(iplugins.pylisp
Symbol
p2968
(dp2969
g853
S'str-append'
p2970
sbsg2839
(iplugins.pylisp
ConsCell
p2971
(dp2972
g2833
(iplugins.pylisp
String
p2973
(dp2974
g2887
S'om'
p2975
sbsg2839
(iplugins.pylisp
ConsCell
p2976
(dp2977
g2833
(iplugins.pylisp
ConsCell
p2978
(dp2979
g2833
(iplugins.pylisp
Symbol
p2980
(dp2981
g853
S'str-append'
p2982
sbsg2839
(iplugins.pylisp
ConsCell
p2983
(dp2984
g2833
(iplugins.pylisp
String
p2985
(dp2986
g2887
g2926
sbsg2839
(iplugins.pylisp
ConsCell
p2987
(dp2988
g2833
(iplugins.pylisp
ConsCell
p2989
(dp2990
g2833
(iplugins.pylisp
Symbol
p2991
(dp2992
g853
S'next'
p2993
sbsg2839
(iplugins.pylisp
ConsCell
p2994
(dp2995
g2833
(iplugins.pylisp
ConsCell
p2996
(dp2997
g2833
(iplugins.pylisp
Symbol
p2998
(dp2999
g853
g2926
sbsg2839
(iplugins.pylisp
ConsCell
p3000
(dp3001
g2833
(iplugins.pylisp
Symbol
p3002
(dp3003
g853
g2862
sbsg2839
(iplugins.pylisp
ConsCell
p3004
(dp3005
g2833
(iplugins.pylisp
Integer
p3006
(dp3007
g2887
I1
sbsg2839
(iplugins.pylisp
Nil
p3008
(dp3009
bsbsbsbsg2839
(iplugins.pylisp
Nil
p3010
(dp3011
bsbsbsg2839
(iplugins.pylisp
Nil
p3012
(dp3013
bsbsbsbsg2839
(iplugins.pylisp
Nil
p3014
(dp3015
bsbsbsbsg2839
(iplugins.pylisp
Nil
p3016
(dp3017
bsbsbsbsg2839
(iplugins.pylisp
Nil
p3018
(dp3019
bsbsbsS'parameters'
p3020
(iplugins.pylisp
ConsCell
p3021
(dp3022
g2833
(iplugins.pylisp
Symbol
p3023
(dp3024
g853
g2862
sbsg2839
(iplugins.pylisp
Nil
p3025
(dp3026
bsbsS'env'
p3027
g0
sbs(iplugins.pylisp
Symbol
p3028
(dp3029
g868
S'nom-mat-mat-mat-mat'
p3030
sb(iplugins.pylisp
Lambda
p3031
(dp3032
g857
(iplugins.pylisp
ExpressionBody
p3033
(dp3034
g860
(iplugins.pylisp
ConsCell
p3035
(dp3036
g863
(iplugins.pylisp
ConsCell
p3037
(dp3038
g863
(iplugins.pylisp
Symbol
p3039
(dp3040
g868
S'nom-mat-n'
p3041
sbsg870
(iplugins.pylisp
ConsCell
p3042
(dp3043
g863
(iplugins.pylisp
Integer
p3044
(dp3045
g875
I4
sbsg870
(iplugins.pylisp
Nil
p3046
(dp3047
bsbsbsg870
(iplugins.pylisp
Nil
p3048
(dp3049
bsbsbsg880
(iplugins.pylisp
Nil
p3050
(dp3051
bsg883
g0
sbs(iplugins.pylisp
Symbol
p3052
(dp3053
g2354
S'eight-ball'
p3054
sb(iplugins.pylisp
Integer
p3055
(dp3056
g2380
I123
sbs(iplugins.pylisp
Symbol
p3057
(dp3058
S'name'
p3059
S'commands2'
p3060
sb(iplugins.pylisp
Lambda
p3061
(dp3062
S'expression'
p3063
(iplugins.pylisp
ExpressionBody
p3064
(dp3065
S'expressions'
p3066
(iplugins.pylisp
ConsCell
p3067
(dp3068
S'car'
p3069
(iplugins.pylisp
ConsCell
p3070
(dp3071
g3069
(iplugins.pylisp
Symbol
p3072
(dp3073
g3059
S'nth'
p3074
sbsS'cdr'
p3075
(iplugins.pylisp
ConsCell
p3076
(dp3077
g3069
(iplugins.pylisp
Integer
p3078
(dp3079
S'value'
p3080
I1
sbsg3075
(iplugins.pylisp
ConsCell
p3081
(dp3082
g3069
(iplugins.pylisp
ConsCell
p3083
(dp3084
g3069
(iplugins.pylisp
Symbol
p3085
(dp3086
g3059
S'str-split'
p3087
sbsg3075
(iplugins.pylisp
ConsCell
p3088
(dp3089
g3069
(iplugins.pylisp
ConsCell
p3090
(dp3091
g3069
(iplugins.pylisp
Symbol
p3092
(dp3093
g3059
S'command'
p3094
sbsg3075
(iplugins.pylisp
ConsCell
p3095
(dp3096
g3069
(iplugins.pylisp
String
p3097
(dp3098
g3080
S'commands'
p3099
sbsg3075
(iplugins.pylisp
ConsCell
p3100
(dp3101
g3069
(iplugins.pylisp
String
p3102
(dp3103
g3080
S'lispnik'
p3104
sbsg3075
(iplugins.pylisp
Nil
p3105
(dp3106
bsbsbsbsg3075
(iplugins.pylisp
ConsCell
p3107
(dp3108
g3069
(iplugins.pylisp
String
p3109
(dp3110
g3080
S'roulette, '
p3111
sbsg3075
(iplugins.pylisp
Nil
p3112
(dp3113
bsbsbsbsg3075
(iplugins.pylisp
Nil
p3114
(dp3115
bsbsbsbsg3075
(iplugins.pylisp
Nil
p3116
(dp3117
bsbsbsS'parameters'
p3118
(iplugins.pylisp
Nil
p3119
(dp3120
bsS'env'
p3121
g0
sbs(iplugins.pylisp
Symbol
p3122
(dp3123
g1646
S'olol'
p3124
sb(iplugins.pylisp
Lambda
p3125
(dp3126
S'expression'
p3127
(iplugins.pylisp
ExpressionBody
p3128
(dp3129
S'expressions'
p3130
(iplugins.pylisp
ConsCell
p3131
(dp3132
S'car'
p3133
(iplugins.pylisp
ConsCell
p3134
(dp3135
g3133
(iplugins.pylisp
Symbol
p3136
(dp3137
g1646
S'command'
p3138
sbsS'cdr'
p3139
(iplugins.pylisp
ConsCell
p3140
(dp3141
g3133
(iplugins.pylisp
String
p3142
(dp3143
S'value'
p3144
S'title'
p3145
sbsg3139
(iplugins.pylisp
ConsCell
p3146
(dp3147
g3133
(iplugins.pylisp
ConsCell
p3148
(dp3149
g3133
(iplugins.pylisp
Symbol
p3150
(dp3151
g1646
S'command'
p3152
sbsg3139
(iplugins.pylisp
ConsCell
p3153
(dp3154
g3133
(iplugins.pylisp
String
p3155
(dp3156
g3144
S'gch'
p3157
sbsg3139
(iplugins.pylisp
ConsCell
p3158
(dp3159
g3133
(iplugins.pylisp
Symbol
p3160
(dp3161
g1646
S'param'
p3162
sbsg3139
(iplugins.pylisp
Nil
p3163
(dp3164
bsbsbsbsg3139
(iplugins.pylisp
Nil
p3165
(dp3166
bsbsbsbsg3139
(iplugins.pylisp
Nil
p3167
(dp3168
bsbsbsS'parameters'
p3169
(iplugins.pylisp
ConsCell
p3170
(dp3171
g3133
(iplugins.pylisp
Symbol
p3172
(dp3173
g1646
S'param'
p3174
sbsg3139
(iplugins.pylisp
Nil
p3175
(dp3176
bsbsS'env'
p3177
g0
sbs(iplugins.pylisp
Symbol
p3178
(dp3179
g1653
S'boobs'
p3180
sb(iplugins.pylisp
ConsCell
p3181
(dp3182
g1663
(iplugins.pylisp
Symbol
p3183
(dp3184
g1653
S'\xc2\xa0'
p3185
sbsg1669
(iplugins.pylisp
ConsCell
p3186
(dp3187
g1663
(iplugins.pylisp
Symbol
p3188
(dp3189
g1653
S'\xc2\xb7'
p3190
sbsg1669
(iplugins.pylisp
ConsCell
p3191
(dp3192
g1663
(iplugins.pylisp
Symbol
p3193
(dp3194
g1653
S'\xc2\xa0Y\xc2\xa0'
p3195
sbsg1669
(iplugins.pylisp
ConsCell
p3196
(dp3197
g1663
(iplugins.pylisp
Symbol
p3198
(dp3199
g1653
S'\xc2\xb7'
p3200
sbsg1669
(iplugins.pylisp
ConsCell
p3201
(dp3202
g1663
(iplugins.pylisp
Symbol
p3203
(dp3204
g1653
S'\xc2\xa0'
p3205
sbsg1669
(iplugins.pylisp
Nil
p3206
(dp3207
bsbsbsbsbsbs(iplugins.pylisp
Symbol
p3208
(dp3209
g1977
S'boll'
p3210
sb(iplugins.pylisp
Integer
p3211
(dp3212
S'value'
p3213
I3
sbs(iplugins.pylisp
Symbol
p3214
(dp3215
g420
S'blubb'
p3216
sb(iplugins.pylisp
Lambda
p3217
(dp3218
S'expression'
p3219
(iplugins.pylisp
ExpressionBody
p3220
(dp3221
S'expressions'
p3222
(iplugins.pylisp
ConsCell
p3223
(dp3224
S'car'
p3225
(iplugins.pylisp
Symbol
p3226
(dp3227
S'name'
p3228
S'blubb'
p3229
sbsS'cdr'
p3230
(iplugins.pylisp
Nil
p3231
(dp3232
bsbsbsS'parameters'
p3233
(iplugins.pylisp
Nil
p3234
(dp3235
bsS'env'
p3236
g0
sbs(iplugins.pylisp
Symbol
p3237
(dp3238
g2354
S'nth'
p3239
sb(iplugins.pylisp
Lambda
p3240
(dp3241
S'expression'
p3242
(iplugins.pylisp
ExpressionBody
p3243
(dp3244
S'expressions'
p3245
(iplugins.pylisp
ConsCell
p3246
(dp3247
S'car'
p3248
(iplugins.pylisp
ConsCell
p3249
(dp3250
g3248
(iplugins.pylisp
Symbol
p3251
(dp3252
S'name'
p3253
S'if'
p3254
sbsS'cdr'
p3255
(iplugins.pylisp
ConsCell
p3256
(dp3257
g3248
(iplugins.pylisp
ConsCell
p3258
(dp3259
g3248
(iplugins.pylisp
Symbol
p3260
(dp3261
g3253
S'='
p3262
sbsg3255
(iplugins.pylisp
ConsCell
p3263
(dp3264
g3248
(iplugins.pylisp
Symbol
p3265
(dp3266
g3253
S'n'
p3267
sbsg3255
(iplugins.pylisp
ConsCell
p3268
(dp3269
g3248
(iplugins.pylisp
Integer
p3270
(dp3271
S'value'
p3272
I0
sbsg3255
(iplugins.pylisp
Nil
p3273
(dp3274
bsbsbsbsg3255
(iplugins.pylisp
ConsCell
p3275
(dp3276
g3248
(iplugins.pylisp
ConsCell
p3277
(dp3278
g3248
(iplugins.pylisp
Symbol
p3279
(dp3280
g3253
S'car'
p3281
sbsg3255
(iplugins.pylisp
ConsCell
p3282
(dp3283
g3248
(iplugins.pylisp
Symbol
p3284
(dp3285
g3253
S'l'
p3286
sbsg3255
(iplugins.pylisp
Nil
p3287
(dp3288
bsbsbsg3255
(iplugins.pylisp
ConsCell
p3289
(dp3290
g3248
(iplugins.pylisp
ConsCell
p3291
(dp3292
g3248
(iplugins.pylisp
Symbol
p3293
(dp3294
g3253
S'nth'
p3295
sbsg3255
(iplugins.pylisp
ConsCell
p3296
(dp3297
g3248
(iplugins.pylisp
ConsCell
p3298
(dp3299
g3248
(iplugins.pylisp
Symbol
p3300
(dp3301
g3253
S'-'
p3302
sbsg3255
(iplugins.pylisp
ConsCell
p3303
(dp3304
g3248
(iplugins.pylisp
Symbol
p3305
(dp3306
g3253
g3267
sbsg3255
(iplugins.pylisp
ConsCell
p3307
(dp3308
g3248
(iplugins.pylisp
Integer
p3309
(dp3310
g3272
I1
sbsg3255
(iplugins.pylisp
Nil
p3311
(dp3312
bsbsbsbsg3255
(iplugins.pylisp
ConsCell
p3313
(dp3314
g3248
(iplugins.pylisp
ConsCell
p3315
(dp3316
g3248
(iplugins.pylisp
Symbol
p3317
(dp3318
g3253
S'rest'
p3319
sbsg3255
(iplugins.pylisp
ConsCell
p3320
(dp3321
g3248
(iplugins.pylisp
Symbol
p3322
(dp3323
g3253
g3286
sbsg3255
(iplugins.pylisp
Nil
p3324
(dp3325
bsbsbsg3255
(iplugins.pylisp
Nil
p3326
(dp3327
bsbsbsbsg3255
(iplugins.pylisp
Nil
p3328
(dp3329
bsbsbsbsbsg3255
(iplugins.pylisp
Nil
p3330
(dp3331
bsbsbsS'parameters'
p3332
(iplugins.pylisp
ConsCell
p3333
(dp3334
g3248
(iplugins.pylisp
Symbol
p3335
(dp3336
g3253
g3267
sbsg3255
(iplugins.pylisp
ConsCell
p3337
(dp3338
g3248
(iplugins.pylisp
Symbol
p3339
(dp3340
g3253
g3286
sbsg3255
(iplugins.pylisp
Nil
p3341
(dp3342
bsbsbsS'env'
p3343
g0
sbs(iplugins.pylisp
Symbol
p3344
(dp3345
g114
S'addschema+sched4'
p3346
sb(iplugins.pylisp
Lambda
p3347
(dp3348
g118
(iplugins.pylisp
ExpressionBody
p3349
(dp3350
g121
(iplugins.pylisp
ConsCell
p3351
(dp3352
g124
(iplugins.pylisp
ConsCell
p3353
(dp3354
g124
(iplugins.pylisp
Symbol
p3355
(dp3356
g114
S'command'
p3357
sbsg130
(iplugins.pylisp
ConsCell
p3358
(dp3359
g124
(iplugins.pylisp
String
p3360
(dp3361
S'value'
p3362
S'addschemaid'
p3363
sbsg130
(iplugins.pylisp
ConsCell
p3364
(dp3365
g124
(iplugins.pylisp
ConsCell
p3366
(dp3367
g124
(iplugins.pylisp
Symbol
p3368
(dp3369
g114
S'str-join'
p3370
sbsg130
(iplugins.pylisp
ConsCell
p3371
(dp3372
g124
(iplugins.pylisp
ConsCell
p3373
(dp3374
g124
(iplugins.pylisp
Symbol
p3375
(dp3376
g114
S'list'
p3377
sbsg130
(iplugins.pylisp
ConsCell
p3378
(dp3379
g124
(iplugins.pylisp
Symbol
p3380
(dp3381
g114
S'id'
p3382
sbsg130
(iplugins.pylisp
ConsCell
p3383
(dp3384
g124
(iplugins.pylisp
ConsCell
p3385
(dp3386
g124
(iplugins.pylisp
Symbol
p3387
(dp3388
g114
S'command'
p3389
sbsg130
(iplugins.pylisp
ConsCell
p3390
(dp3391
g124
(iplugins.pylisp
String
p3392
(dp3393
g3362
S'sched4'
p3394
sbsg130
(iplugins.pylisp
ConsCell
p3395
(dp3396
g124
(iplugins.pylisp
Symbol
p3397
(dp3398
g114
S'courses'
p3399
sbsg130
(iplugins.pylisp
Nil
p3400
(dp3401
bsbsbsbsg130
(iplugins.pylisp
Nil
p3402
(dp3403
bsbsbsbsg130
(iplugins.pylisp
ConsCell
p3404
(dp3405
g124
(iplugins.pylisp
String
p3406
(dp3407
g3362
S' '
p3408
sbsg130
(iplugins.pylisp
Nil
p3409
(dp3410
bsbsbsbsg130
(iplugins.pylisp
Nil
p3411
(dp3412
bsbsbsbsg130
(iplugins.pylisp
Nil
p3413
(dp3414
bsbsbsg218
(iplugins.pylisp
ConsCell
p3415
(dp3416
g124
(iplugins.pylisp
Symbol
p3417
(dp3418
g114
S'id'
p3419
sbsg130
(iplugins.pylisp
ConsCell
p3420
(dp3421
g124
(iplugins.pylisp
Symbol
p3422
(dp3423
g114
S'courses'
p3424
sbsg130
(iplugins.pylisp
Nil
p3425
(dp3426
bsbsbsg229
g0
sbs(iplugins.pylisp
Symbol
p3427
(dp3428
S'name'
p3429
S'len'
p3430
sb(iplugins.pylisp
Lambda
p3431
(dp3432
S'expression'
p3433
(iplugins.pylisp
ExpressionBody
p3434
(dp3435
S'expressions'
p3436
(iplugins.pylisp
ConsCell
p3437
(dp3438
S'car'
p3439
(iplugins.pylisp
ConsCell
p3440
(dp3441
g3439
(iplugins.pylisp
Symbol
p3442
(dp3443
g3429
S'let'
p3444
sbsS'cdr'
p3445
(iplugins.pylisp
ConsCell
p3446
(dp3447
g3439
(iplugins.pylisp
ConsCell
p3448
(dp3449
g3439
(iplugins.pylisp
ConsCell
p3450
(dp3451
g3439
(iplugins.pylisp
Symbol
p3452
(dp3453
g3429
S'rlen'
p3454
sbsg3445
(iplugins.pylisp
ConsCell
p3455
(dp3456
g3439
(iplugins.pylisp
ConsCell
p3457
(dp3458
g3439
(iplugins.pylisp
Symbol
p3459
(dp3460
g3429
S'lambda'
p3461
sbsg3445
(iplugins.pylisp
ConsCell
p3462
(dp3463
g3439
(iplugins.pylisp
ConsCell
p3464
(dp3465
g3439
(iplugins.pylisp
Symbol
p3466
(dp3467
g3429
S'li'
p3468
sbsg3445
(iplugins.pylisp
ConsCell
p3469
(dp3470
g3439
(iplugins.pylisp
Symbol
p3471
(dp3472
g3429
S'n'
p3473
sbsg3445
(iplugins.pylisp
Nil
p3474
(dp3475
bsbsbsg3445
(iplugins.pylisp
ConsCell
p3476
(dp3477
g3439
(iplugins.pylisp
ConsCell
p3478
(dp3479
g3439
(iplugins.pylisp
Symbol
p3480
(dp3481
g3429
S'if'
p3482
sbsg3445
(iplugins.pylisp
ConsCell
p3483
(dp3484
g3439
(iplugins.pylisp
ConsCell
p3485
(dp3486
g3439
(iplugins.pylisp
Symbol
p3487
(dp3488
g3429
S'endp'
p3489
sbsg3445
(iplugins.pylisp
ConsCell
p3490
(dp3491
g3439
(iplugins.pylisp
Symbol
p3492
(dp3493
g3429
S'li'
p3494
sbsg3445
(iplugins.pylisp
Nil
p3495
(dp3496
bsbsbsg3445
(iplugins.pylisp
ConsCell
p3497
(dp3498
g3439
(iplugins.pylisp
Integer
p3499
(dp3500
S'value'
p3501
I0
sbsg3445
(iplugins.pylisp
ConsCell
p3502
(dp3503
g3439
(iplugins.pylisp
ConsCell
p3504
(dp3505
g3439
(iplugins.pylisp
Symbol
p3506
(dp3507
g3429
S'if'
p3508
sbsg3445
(iplugins.pylisp
ConsCell
p3509
(dp3510
g3439
(iplugins.pylisp
ConsCell
p3511
(dp3512
g3439
(iplugins.pylisp
Symbol
p3513
(dp3514
g3429
S'='
p3515
sbsg3445
(iplugins.pylisp
ConsCell
p3516
(dp3517
g3439
(iplugins.pylisp
Symbol
p3518
(dp3519
g3429
g3473
sbsg3445
(iplugins.pylisp
ConsCell
p3520
(dp3521
g3439
(iplugins.pylisp
Integer
p3522
(dp3523
g3501
I8
sbsg3445
(iplugins.pylisp
Nil
p3524
(dp3525
bsbsbsbsg3445
(iplugins.pylisp
ConsCell
p3526
(dp3527
g3439
(iplugins.pylisp
ConsCell
p3528
(dp3529
g3439
(iplugins.pylisp
Symbol
p3530
(dp3531
g3429
S'cons'
p3532
sbsg3445
(iplugins.pylisp
ConsCell
p3533
(dp3534
g3439
(iplugins.pylisp
Integer
p3535
(dp3536
g3501
I0
sbsg3445
(iplugins.pylisp
ConsCell
p3537
(dp3538
g3439
(iplugins.pylisp
Symbol
p3539
(dp3540
g3429
S'li'
p3541
sbsg3445
(iplugins.pylisp
Nil
p3542
(dp3543
bsbsbsbsg3445
(iplugins.pylisp
ConsCell
p3544
(dp3545
g3439
(iplugins.pylisp
ConsCell
p3546
(dp3547
g3439
(iplugins.pylisp
Symbol
p3548
(dp3549
g3429
S'let'
p3550
sbsg3445
(iplugins.pylisp
ConsCell
p3551
(dp3552
g3439
(iplugins.pylisp
ConsCell
p3553
(dp3554
g3439
(iplugins.pylisp
ConsCell
p3555
(dp3556
g3439
(iplugins.pylisp
Symbol
p3557
(dp3558
g3429
S'res'
p3559
sbsg3445
(iplugins.pylisp
ConsCell
p3560
(dp3561
g3439
(iplugins.pylisp
ConsCell
p3562
(dp3563
g3439
(iplugins.pylisp
Symbol
p3564
(dp3565
g3429
S'rlen'
p3566
sbsg3445
(iplugins.pylisp
ConsCell
p3567
(dp3568
g3439
(iplugins.pylisp
ConsCell
p3569
(dp3570
g3439
(iplugins.pylisp
Symbol
p3571
(dp3572
g3429
S'rest'
p3573
sbsg3445
(iplugins.pylisp
ConsCell
p3574
(dp3575
g3439
(iplugins.pylisp
Symbol
p3576
(dp3577
g3429
S'li'
p3578
sbsg3445
(iplugins.pylisp
Nil
p3579
(dp3580
bsbsbsg3445
(iplugins.pylisp
ConsCell
p3581
(dp3582
g3439
(iplugins.pylisp
ConsCell
p3583
(dp3584
g3439
(iplugins.pylisp
Symbol
p3585
(dp3586
g3429
S'+'
p3587
sbsg3445
(iplugins.pylisp
ConsCell
p3588
(dp3589
g3439
(iplugins.pylisp
Symbol
p3590
(dp3591
g3429
g3473
sbsg3445
(iplugins.pylisp
ConsCell
p3592
(dp3593
g3439
(iplugins.pylisp
Integer
p3594
(dp3595
g3501
I1
sbsg3445
(iplugins.pylisp
Nil
p3596
(dp3597
bsbsbsbsg3445
(iplugins.pylisp
Nil
p3598
(dp3599
bsbsbsbsg3445
(iplugins.pylisp
Nil
p3600
(dp3601
bsbsbsg3445
(iplugins.pylisp
Nil
p3602
(dp3603
bsbsg3445
(iplugins.pylisp
ConsCell
p3604
(dp3605
g3439
(iplugins.pylisp
ConsCell
p3606
(dp3607
g3439
(iplugins.pylisp
Symbol
p3608
(dp3609
g3429
S'if'
p3610
sbsg3445
(iplugins.pylisp
ConsCell
p3611
(dp3612
g3439
(iplugins.pylisp
ConsCell
p3613
(dp3614
g3439
(iplugins.pylisp
Symbol
p3615
(dp3616
g3429
S'listp'
p3617
sbsg3445
(iplugins.pylisp
ConsCell
p3618
(dp3619
g3439
(iplugins.pylisp
Symbol
p3620
(dp3621
g3429
S'res'
p3622
sbsg3445
(iplugins.pylisp
Nil
p3623
(dp3624
bsbsbsg3445
(iplugins.pylisp
ConsCell
p3625
(dp3626
g3439
(iplugins.pylisp
ConsCell
p3627
(dp3628
g3439
(iplugins.pylisp
Symbol
p3629
(dp3630
g3429
S'cons'
p3631
sbsg3445
(iplugins.pylisp
ConsCell
p3632
(dp3633
g3439
(iplugins.pylisp
ConsCell
p3634
(dp3635
g3439
(iplugins.pylisp
Symbol
p3636
(dp3637
g3429
g3587
sbsg3445
(iplugins.pylisp
ConsCell
p3638
(dp3639
g3439
(iplugins.pylisp
ConsCell
p3640
(dp3641
g3439
(iplugins.pylisp
Symbol
p3642
(dp3643
g3429
S'car'
p3644
sbsg3445
(iplugins.pylisp
ConsCell
p3645
(dp3646
g3439
(iplugins.pylisp
Symbol
p3647
(dp3648
g3429
S'res'
p3649
sbsg3445
(iplugins.pylisp
Nil
p3650
(dp3651
bsbsbsg3445
(iplugins.pylisp
ConsCell
p3652
(dp3653
g3439
(iplugins.pylisp
Integer
p3654
(dp3655
g3501
I1
sbsg3445
(iplugins.pylisp
Nil
p3656
(dp3657
bsbsbsbsg3445
(iplugins.pylisp
ConsCell
p3658
(dp3659
g3439
(iplugins.pylisp
ConsCell
p3660
(dp3661
g3439
(iplugins.pylisp
Symbol
p3662
(dp3663
g3429
S'cdr'
p3664
sbsg3445
(iplugins.pylisp
ConsCell
p3665
(dp3666
g3439
(iplugins.pylisp
Symbol
p3667
(dp3668
g3429
S'res'
p3669
sbsg3445
(iplugins.pylisp
Nil
p3670
(dp3671
bsbsbsg3445
(iplugins.pylisp
Nil
p3672
(dp3673
bsbsbsbsg3445
(iplugins.pylisp
ConsCell
p3674
(dp3675
g3439
(iplugins.pylisp
ConsCell
p3676
(dp3677
g3439
(iplugins.pylisp
Symbol
p3678
(dp3679
g3429
g3587
sbsg3445
(iplugins.pylisp
ConsCell
p3680
(dp3681
g3439
(iplugins.pylisp
Symbol
p3682
(dp3683
g3429
S'res'
p3684
sbsg3445
(iplugins.pylisp
ConsCell
p3685
(dp3686
g3439
(iplugins.pylisp
Integer
p3687
(dp3688
g3501
I1
sbsg3445
(iplugins.pylisp
Nil
p3689
(dp3690
bsbsbsbsg3445
(iplugins.pylisp
Nil
p3691
(dp3692
bsbsbsbsbsg3445
(iplugins.pylisp
Nil
p3693
(dp3694
bsbsbsbsg3445
(iplugins.pylisp
Nil
p3695
(dp3696
bsbsbsbsbsg3445
(iplugins.pylisp
Nil
p3697
(dp3698
bsbsbsbsbsg3445
(iplugins.pylisp
Nil
p3699
(dp3700
bsbsbsbsg3445
(iplugins.pylisp
Nil
p3701
(dp3702
bsbsbsg3445
(iplugins.pylisp
Nil
p3703
(dp3704
bsbsg3445
(iplugins.pylisp
Nil
p3705
(dp3706
bsbsbsg3445
(iplugins.pylisp
ConsCell
p3707
(dp3708
g3439
(iplugins.pylisp
ConsCell
p3709
(dp3710
g3439
(iplugins.pylisp
Symbol
p3711
(dp3712
g3429
S'let'
p3713
sbsg3445
(iplugins.pylisp
ConsCell
p3714
(dp3715
g3439
(iplugins.pylisp
ConsCell
p3716
(dp3717
g3439
(iplugins.pylisp
ConsCell
p3718
(dp3719
g3439
(iplugins.pylisp
Symbol
p3720
(dp3721
g3429
S'res'
p3722
sbsg3445
(iplugins.pylisp
ConsCell
p3723
(dp3724
g3439
(iplugins.pylisp
ConsCell
p3725
(dp3726
g3439
(iplugins.pylisp
Symbol
p3727
(dp3728
g3429
S'rlen'
p3729
sbsg3445
(iplugins.pylisp
ConsCell
p3730
(dp3731
g3439
(iplugins.pylisp
Symbol
p3732
(dp3733
g3429
S'l'
p3734
sbsg3445
(iplugins.pylisp
ConsCell
p3735
(dp3736
g3439
(iplugins.pylisp
Integer
p3737
(dp3738
g3501
I0
sbsg3445
(iplugins.pylisp
Nil
p3739
(dp3740
bsbsbsbsg3445
(iplugins.pylisp
Nil
p3741
(dp3742
bsbsbsg3445
(iplugins.pylisp
Nil
p3743
(dp3744
bsbsg3445
(iplugins.pylisp
ConsCell
p3745
(dp3746
g3439
(iplugins.pylisp
ConsCell
p3747
(dp3748
g3439
(iplugins.pylisp
Symbol
p3749
(dp3750
g3429
S'if'
p3751
sbsg3445
(iplugins.pylisp
ConsCell
p3752
(dp3753
g3439
(iplugins.pylisp
ConsCell
p3754
(dp3755
g3439
(iplugins.pylisp
Symbol
p3756
(dp3757
g3429
S'listp'
p3758
sbsg3445
(iplugins.pylisp
ConsCell
p3759
(dp3760
g3439
(iplugins.pylisp
Symbol
p3761
(dp3762
g3429
S'res'
p3763
sbsg3445
(iplugins.pylisp
Nil
p3764
(dp3765
bsbsbsg3445
(iplugins.pylisp
ConsCell
p3766
(dp3767
g3439
(iplugins.pylisp
ConsCell
p3768
(dp3769
g3439
(iplugins.pylisp
Symbol
p3770
(dp3771
g3429
g3587
sbsg3445
(iplugins.pylisp
ConsCell
p3772
(dp3773
g3439
(iplugins.pylisp
ConsCell
p3774
(dp3775
g3439
(iplugins.pylisp
Symbol
p3776
(dp3777
g3429
S'car'
p3778
sbsg3445
(iplugins.pylisp
ConsCell
p3779
(dp3780
g3439
(iplugins.pylisp
Symbol
p3781
(dp3782
g3429
S'res'
p3783
sbsg3445
(iplugins.pylisp
Nil
p3784
(dp3785
bsbsbsg3445
(iplugins.pylisp
ConsCell
p3786
(dp3787
g3439
(iplugins.pylisp
ConsCell
p3788
(dp3789
g3439
(iplugins.pylisp
Symbol
p3790
(dp3791
g3429
S'len'
p3792
sbsg3445
(iplugins.pylisp
ConsCell
p3793
(dp3794
g3439
(iplugins.pylisp
ConsCell
p3795
(dp3796
g3439
(iplugins.pylisp
Symbol
p3797
(dp3798
g3429
S'cdr'
p3799
sbsg3445
(iplugins.pylisp
ConsCell
p3800
(dp3801
g3439
(iplugins.pylisp
Symbol
p3802
(dp3803
g3429
S'res'
p3804
sbsg3445
(iplugins.pylisp
Nil
p3805
(dp3806
bsbsbsg3445
(iplugins.pylisp
Nil
p3807
(dp3808
bsbsbsg3445
(iplugins.pylisp
Nil
p3809
(dp3810
bsbsbsbsg3445
(iplugins.pylisp
ConsCell
p3811
(dp3812
g3439
(iplugins.pylisp
Symbol
p3813
(dp3814
g3429
S'res'
p3815
sbsg3445
(iplugins.pylisp
Nil
p3816
(dp3817
bsbsbsbsbsg3445
(iplugins.pylisp
Nil
p3818
(dp3819
bsbsbsbsg3445
(iplugins.pylisp
Nil
p3820
(dp3821
bsbsbsbsS'parameters'
p3822
(iplugins.pylisp
ConsCell
p3823
(dp3824
g3439
(iplugins.pylisp
Symbol
p3825
(dp3826
g3429
g3734
sbsg3445
(iplugins.pylisp
Nil
p3827
(dp3828
bsbsS'env'
p3829
g0
sbs(iplugins.pylisp
Symbol
p3830
(dp3831
g6
S'nom-mat'
p3832
sb(iplugins.pylisp
Lambda
p3833
(dp3834
g10
(iplugins.pylisp
ExpressionBody
p3835
(dp3836
g13
(iplugins.pylisp
ConsCell
p3837
(dp3838
g16
(iplugins.pylisp
ConsCell
p3839
(dp3840
g16
(iplugins.pylisp
Symbol
p3841
(dp3842
g6
S'nomrate'
p3843
sbsg22
(iplugins.pylisp
ConsCell
p3844
(dp3845
g16
(iplugins.pylisp
ConsCell
p3846
(dp3847
g16
(iplugins.pylisp
Symbol
p3848
(dp3849
g6
S'matnamn'
p3850
sbsg22
(iplugins.pylisp
Nil
p3851
(dp3852
bsbsg22
(iplugins.pylisp
Nil
p3853
(dp3854
bsbsbsg22
(iplugins.pylisp
Nil
p3855
(dp3856
bsbsbsg94
(iplugins.pylisp
Nil
p3857
(dp3858
bsg105
g0
sbs(iplugins.pylisp
Symbol
p3859
(dp3860
g232
S'caar'
p3861
sb(iplugins.pylisp
Lambda
p3862
(dp3863
g890
(iplugins.pylisp
ExpressionBody
p3864
(dp3865
g893
(iplugins.pylisp
ConsCell
p3866
(dp3867
g896
(iplugins.pylisp
ConsCell
p3868
(dp3869
g896
(iplugins.pylisp
Symbol
p3870
(dp3871
g232
S'car'
p3872
sbsg239
(iplugins.pylisp
ConsCell
p3873
(dp3874
g896
(iplugins.pylisp
ConsCell
p3875
(dp3876
g896
(iplugins.pylisp
Symbol
p3877
(dp3878
g232
S'car'
p3879
sbsg239
(iplugins.pylisp
ConsCell
p3880
(dp3881
g896
(iplugins.pylisp
Symbol
p3882
(dp3883
g232
g913
sbsg239
(iplugins.pylisp
Nil
p3884
(dp3885
bsbsbsg239
(iplugins.pylisp
Nil
p3886
(dp3887
bsbsbsg239
(iplugins.pylisp
Nil
p3888
(dp3889
bsbsbsg968
(iplugins.pylisp
ConsCell
p3890
(dp3891
g896
(iplugins.pylisp
Symbol
p3892
(dp3893
g232
g913
sbsg239
(iplugins.pylisp
Nil
p3894
(dp3895
bsbsg975
g0
sbs(iplugins.pylisp
Symbol
p3896
(dp3897
g2662
S'c'
p3898
sb(iplugins.pylisp
Symbol
p3899
(dp3900
g2662
S'feta'
p3901
sbs(iplugins.pylisp
Symbol
p3902
(dp3903
S'name'
p3904
S'reverse'
p3905
sb(iplugins.pylisp
Lambda
p3906
(dp3907
S'expression'
p3908
(iplugins.pylisp
ExpressionBody
p3909
(dp3910
S'expressions'
p3911
(iplugins.pylisp
ConsCell
p3912
(dp3913
S'car'
p3914
(iplugins.pylisp
ConsCell
p3915
(dp3916
g3914
(iplugins.pylisp
Symbol
p3917
(dp3918
g3904
S'if'
p3919
sbsS'cdr'
p3920
(iplugins.pylisp
ConsCell
p3921
(dp3922
g3914
(iplugins.pylisp
ConsCell
p3923
(dp3924
g3914
(iplugins.pylisp
Symbol
p3925
(dp3926
g3904
S'endp'
p3927
sbsg3920
(iplugins.pylisp
ConsCell
p3928
(dp3929
g3914
(iplugins.pylisp
Symbol
p3930
(dp3931
g3904
S'l'
p3932
sbsg3920
(iplugins.pylisp
Nil
p3933
(dp3934
bsbsbsg3920
(iplugins.pylisp
ConsCell
p3935
(dp3936
g3914
(iplugins.pylisp
Symbol
p3937
(dp3938
g3904
S'nil'
p3939
sbsg3920
(iplugins.pylisp
ConsCell
p3940
(dp3941
g3914
(iplugins.pylisp
ConsCell
p3942
(dp3943
g3914
(iplugins.pylisp
Symbol
p3944
(dp3945
g3904
S'append'
p3946
sbsg3920
(iplugins.pylisp
ConsCell
p3947
(dp3948
g3914
(iplugins.pylisp
ConsCell
p3949
(dp3950
g3914
(iplugins.pylisp
Symbol
p3951
(dp3952
g3904
S'reverse'
p3953
sbsg3920
(iplugins.pylisp
ConsCell
p3954
(dp3955
g3914
(iplugins.pylisp
ConsCell
p3956
(dp3957
g3914
(iplugins.pylisp
Symbol
p3958
(dp3959
g3904
S'cdr'
p3960
sbsg3920
(iplugins.pylisp
ConsCell
p3961
(dp3962
g3914
(iplugins.pylisp
Symbol
p3963
(dp3964
g3904
g3932
sbsg3920
(iplugins.pylisp
Nil
p3965
(dp3966
bsbsbsg3920
(iplugins.pylisp
Nil
p3967
(dp3968
bsbsbsg3920
(iplugins.pylisp
ConsCell
p3969
(dp3970
g3914
(iplugins.pylisp
ConsCell
p3971
(dp3972
g3914
(iplugins.pylisp
Symbol
p3973
(dp3974
g3904
S'cons'
p3975
sbsg3920
(iplugins.pylisp
ConsCell
p3976
(dp3977
g3914
(iplugins.pylisp
ConsCell
p3978
(dp3979
g3914
(iplugins.pylisp
Symbol
p3980
(dp3981
g3904
S'car'
p3982
sbsg3920
(iplugins.pylisp
ConsCell
p3983
(dp3984
g3914
(iplugins.pylisp
Symbol
p3985
(dp3986
g3904
g3932
sbsg3920
(iplugins.pylisp
Nil
p3987
(dp3988
bsbsbsg3920
(iplugins.pylisp
ConsCell
p3989
(dp3990
g3914
(iplugins.pylisp
Symbol
p3991
(dp3992
g3904
S'nil'
p3993
sbsg3920
(iplugins.pylisp
Nil
p3994
(dp3995
bsbsbsbsg3920
(iplugins.pylisp
Nil
p3996
(dp3997
bsbsbsbsg3920
(iplugins.pylisp
Nil
p3998
(dp3999
bsbsbsbsbsg3920
(iplugins.pylisp
Nil
p4000
(dp4001
bsbsbsS'parameters'
p4002
(iplugins.pylisp
ConsCell
p4003
(dp4004
g3914
(iplugins.pylisp
Symbol
p4005
(dp4006
g3904
g3932
sbsg3920
(iplugins.pylisp
Nil
p4007
(dp4008
bsbsS'env'
p4009
g0
sbs(iplugins.pylisp
Symbol
p4010
(dp4011
g1977
S'*random-number*'
p4012
sb(iplugins.pylisp
Integer
p4013
(dp4014
g3213
I4
sbs(iplugins.pylisp
Symbol
p4015
(dp4016
g853
S'omnomme'
p4017
sb(iplugins.pylisp
Lambda
p4018
(dp4019
g2827
(iplugins.pylisp
ExpressionBody
p4020
(dp4021
g2830
(iplugins.pylisp
ConsCell
p4022
(dp4023
g2833
(iplugins.pylisp
ConsCell
p4024
(dp4025
g2833
(iplugins.pylisp
Symbol
p4026
(dp4027
g853
S'let'
p4028
sbsg2839
(iplugins.pylisp
ConsCell
p4029
(dp4030
g2833
(iplugins.pylisp
ConsCell
p4031
(dp4032
g2833
(iplugins.pylisp
ConsCell
p4033
(dp4034
g2833
(iplugins.pylisp
Symbol
p4035
(dp4036
g853
S'next'
p4037
sbsg2839
(iplugins.pylisp
ConsCell
p4038
(dp4039
g2833
(iplugins.pylisp
ConsCell
p4040
(dp4041
g2833
(iplugins.pylisp
Symbol
p4042
(dp4043
g853
S'lambda'
p4044
sbsg2839
(iplugins.pylisp
ConsCell
p4045
(dp4046
g2833
(iplugins.pylisp
ConsCell
p4047
(dp4048
g2833
(iplugins.pylisp
Symbol
p4049
(dp4050
g853
g2862
sbsg2839
(iplugins.pylisp
Nil
p4051
(dp4052
bsbsg2839
(iplugins.pylisp
ConsCell
p4053
(dp4054
g2833
(iplugins.pylisp
ConsCell
p4055
(dp4056
g2833
(iplugins.pylisp
Symbol
p4057
(dp4058
g853
S'if'
p4059
sbsg2839
(iplugins.pylisp
ConsCell
p4060
(dp4061
g2833
(iplugins.pylisp
ConsCell
p4062
(dp4063
g2833
(iplugins.pylisp
Symbol
p4064
(dp4065
g853
S'<='
p4066
sbsg2839
(iplugins.pylisp
ConsCell
p4067
(dp4068
g2833
(iplugins.pylisp
Symbol
p4069
(dp4070
g853
g2862
sbsg2839
(iplugins.pylisp
ConsCell
p4071
(dp4072
g2833
(iplugins.pylisp
Integer
p4073
(dp4074
g2887
I0
sbsg2839
(iplugins.pylisp
Nil
p4075
(dp4076
bsbsbsbsg2839
(iplugins.pylisp
ConsCell
p4077
(dp4078
g2833
(iplugins.pylisp
String
p4079
(dp4080
g2887
S'NOM'
p4081
sbsg2839
(iplugins.pylisp
ConsCell
p4082
(dp4083
g2833
(iplugins.pylisp
ConsCell
p4084
(dp4085
g2833
(iplugins.pylisp
Symbol
p4086
(dp4087
g853
S'str-append'
p4088
sbsg2839
(iplugins.pylisp
ConsCell
p4089
(dp4090
g2833
(iplugins.pylisp
ConsCell
p4091
(dp4092
g2833
(iplugins.pylisp
Symbol
p4093
(dp4094
g853
S'str-append'
p4095
sbsg2839
(iplugins.pylisp
ConsCell
p4096
(dp4097
g2833
(iplugins.pylisp
ConsCell
p4098
(dp4099
g2833
(iplugins.pylisp
Symbol
p4100
(dp4101
g853
S'nom-gen'
p4102
sbsg2839
(iplugins.pylisp
Nil
p4103
(dp4104
bsbsg2839
(iplugins.pylisp
ConsCell
p4105
(dp4106
g2833
(iplugins.pylisp
String
p4107
(dp4108
g2887
g2926
sbsg2839
(iplugins.pylisp
Nil
p4109
(dp4110
bsbsbsbsg2839
(iplugins.pylisp
ConsCell
p4111
(dp4112
g2833
(iplugins.pylisp
ConsCell
p4113
(dp4114
g2833
(iplugins.pylisp
Symbol
p4115
(dp4116
g853
S'next'
p4117
sbsg2839
(iplugins.pylisp
ConsCell
p4118
(dp4119
g2833
(iplugins.pylisp
ConsCell
p4120
(dp4121
g2833
(iplugins.pylisp
Symbol
p4122
(dp4123
g853
g2926
sbsg2839
(iplugins.pylisp
ConsCell
p4124
(dp4125
g2833
(iplugins.pylisp
Symbol
p4126
(dp4127
g853
g2862
sbsg2839
(iplugins.pylisp
ConsCell
p4128
(dp4129
g2833
(iplugins.pylisp
Integer
p4130
(dp4131
g2887
I1
sbsg2839
(iplugins.pylisp
Nil
p4132
(dp4133
bsbsbsbsg2839
(iplugins.pylisp
Nil
p4134
(dp4135
bsbsbsg2839
(iplugins.pylisp
Nil
p4136
(dp4137
bsbsbsbsg2839
(iplugins.pylisp
Nil
p4138
(dp4139
bsbsbsbsbsg2839
(iplugins.pylisp
Nil
p4140
(dp4141
bsbsbsbsg2839
(iplugins.pylisp
Nil
p4142
(dp4143
bsbsbsg2839
(iplugins.pylisp
Nil
p4144
(dp4145
bsbsg2839
(iplugins.pylisp
ConsCell
p4146
(dp4147
g2833
(iplugins.pylisp
ConsCell
p4148
(dp4149
g2833
(iplugins.pylisp
Symbol
p4150
(dp4151
g853
S'str-append'
p4152
sbsg2839
(iplugins.pylisp
ConsCell
p4153
(dp4154
g2833
(iplugins.pylisp
String
p4155
(dp4156
g2887
S'om'
p4157
sbsg2839
(iplugins.pylisp
ConsCell
p4158
(dp4159
g2833
(iplugins.pylisp
ConsCell
p4160
(dp4161
g2833
(iplugins.pylisp
Symbol
p4162
(dp4163
g853
S'str-append'
p4164
sbsg2839
(iplugins.pylisp
ConsCell
p4165
(dp4166
g2833
(iplugins.pylisp
String
p4167
(dp4168
g2887
g2926
sbsg2839
(iplugins.pylisp
ConsCell
p4169
(dp4170
g2833
(iplugins.pylisp
ConsCell
p4171
(dp4172
g2833
(iplugins.pylisp
Symbol
p4173
(dp4174
g853
S'next'
p4175
sbsg2839
(iplugins.pylisp
ConsCell
p4176
(dp4177
g2833
(iplugins.pylisp
ConsCell
p4178
(dp4179
g2833
(iplugins.pylisp
Symbol
p4180
(dp4181
g853
g2926
sbsg2839
(iplugins.pylisp
ConsCell
p4182
(dp4183
g2833
(iplugins.pylisp
Symbol
p4184
(dp4185
g853
g2862
sbsg2839
(iplugins.pylisp
ConsCell
p4186
(dp4187
g2833
(iplugins.pylisp
Integer
p4188
(dp4189
g2887
I1
sbsg2839
(iplugins.pylisp
Nil
p4190
(dp4191
bsbsbsbsg2839
(iplugins.pylisp
Nil
p4192
(dp4193
bsbsbsg2839
(iplugins.pylisp
Nil
p4194
(dp4195
bsbsbsbsg2839
(iplugins.pylisp
Nil
p4196
(dp4197
bsbsbsbsg2839
(iplugins.pylisp
Nil
p4198
(dp4199
bsbsbsbsg2839
(iplugins.pylisp
Nil
p4200
(dp4201
bsbsbsg3020
(iplugins.pylisp
ConsCell
p4202
(dp4203
g2833
(iplugins.pylisp
Symbol
p4204
(dp4205
g853
g2862
sbsg2839
(iplugins.pylisp
Nil
p4206
(dp4207
bsbsg3027
g0
sbs(iplugins.pylisp
Symbol
p4208
(dp4209
g2662
S'postlund'
p4210
sb(iplugins.pylisp
String
p4211
(dp4212
g39
S'B========================================================================================================================D'
p4213
sbs(iplugins.pylisp
Symbol
p4214
(dp4215
g1653
S'filter'
p4216
sb(iplugins.pylisp
Lambda
p4217
(dp4218
g1657
(iplugins.pylisp
ExpressionBody
p4219
(dp4220
g1660
(iplugins.pylisp
ConsCell
p4221
(dp4222
g1663
(iplugins.pylisp
ConsCell
p4223
(dp4224
g1663
(iplugins.pylisp
Symbol
p4225
(dp4226
g1653
S'if'
p4227
sbsg1669
(iplugins.pylisp
ConsCell
p4228
(dp4229
g1663
(iplugins.pylisp
ConsCell
p4230
(dp4231
g1663
(iplugins.pylisp
Symbol
p4232
(dp4233
g1653
S'endp'
p4234
sbsg1669
(iplugins.pylisp
ConsCell
p4235
(dp4236
g1663
(iplugins.pylisp
Symbol
p4237
(dp4238
g1653
g1771
sbsg1669
(iplugins.pylisp
Nil
p4239
(dp4240
bsbsbsg1669
(iplugins.pylisp
ConsCell
p4241
(dp4242
g1663
(iplugins.pylisp
Symbol
p4243
(dp4244
g1653
S'nil'
p4245
sbsg1669
(iplugins.pylisp
ConsCell
p4246
(dp4247
g1663
(iplugins.pylisp
ConsCell
p4248
(dp4249
g1663
(iplugins.pylisp
Symbol
p4250
(dp4251
g1653
S'if'
p4252
sbsg1669
(iplugins.pylisp
ConsCell
p4253
(dp4254
g1663
(iplugins.pylisp
ConsCell
p4255
(dp4256
g1663
(iplugins.pylisp
Symbol
p4257
(dp4258
g1653
g1795
sbsg1669
(iplugins.pylisp
ConsCell
p4259
(dp4260
g1663
(iplugins.pylisp
ConsCell
p4261
(dp4262
g1663
(iplugins.pylisp
Symbol
p4263
(dp4264
g1653
S'car'
p4265
sbsg1669
(iplugins.pylisp
ConsCell
p4266
(dp4267
g1663
(iplugins.pylisp
Symbol
p4268
(dp4269
g1653
g1771
sbsg1669
(iplugins.pylisp
Nil
p4270
(dp4271
bsbsbsg1669
(iplugins.pylisp
Nil
p4272
(dp4273
bsbsbsg1669
(iplugins.pylisp
ConsCell
p4274
(dp4275
g1663
(iplugins.pylisp
ConsCell
p4276
(dp4277
g1663
(iplugins.pylisp
Symbol
p4278
(dp4279
g1653
S'cons'
p4280
sbsg1669
(iplugins.pylisp
ConsCell
p4281
(dp4282
g1663
(iplugins.pylisp
ConsCell
p4283
(dp4284
g1663
(iplugins.pylisp
Symbol
p4285
(dp4286
g1653
S'car'
p4287
sbsg1669
(iplugins.pylisp
ConsCell
p4288
(dp4289
g1663
(iplugins.pylisp
Symbol
p4290
(dp4291
g1653
g1771
sbsg1669
(iplugins.pylisp
Nil
p4292
(dp4293
bsbsbsg1669
(iplugins.pylisp
ConsCell
p4294
(dp4295
g1663
(iplugins.pylisp
ConsCell
p4296
(dp4297
g1663
(iplugins.pylisp
Symbol
p4298
(dp4299
g1653
S'filter'
p4300
sbsg1669
(iplugins.pylisp
ConsCell
p4301
(dp4302
g1663
(iplugins.pylisp
Symbol
p4303
(dp4304
g1653
g1795
sbsg1669
(iplugins.pylisp
ConsCell
p4305
(dp4306
g1663
(iplugins.pylisp
ConsCell
p4307
(dp4308
g1663
(iplugins.pylisp
Symbol
p4309
(dp4310
g1653
S'cdr'
p4311
sbsg1669
(iplugins.pylisp
ConsCell
p4312
(dp4313
g1663
(iplugins.pylisp
Symbol
p4314
(dp4315
g1653
g1771
sbsg1669
(iplugins.pylisp
Nil
p4316
(dp4317
bsbsbsg1669
(iplugins.pylisp
Nil
p4318
(dp4319
bsbsbsbsg1669
(iplugins.pylisp
Nil
p4320
(dp4321
bsbsbsbsg1669
(iplugins.pylisp
ConsCell
p4322
(dp4323
g1663
(iplugins.pylisp
ConsCell
p4324
(dp4325
g1663
(iplugins.pylisp
Symbol
p4326
(dp4327
g1653
S'filter'
p4328
sbsg1669
(iplugins.pylisp
ConsCell
p4329
(dp4330
g1663
(iplugins.pylisp
Symbol
p4331
(dp4332
g1653
g1795
sbsg1669
(iplugins.pylisp
ConsCell
p4333
(dp4334
g1663
(iplugins.pylisp
ConsCell
p4335
(dp4336
g1663
(iplugins.pylisp
Symbol
p4337
(dp4338
g1653
S'cdr'
p4339
sbsg1669
(iplugins.pylisp
ConsCell
p4340
(dp4341
g1663
(iplugins.pylisp
Symbol
p4342
(dp4343
g1653
g1771
sbsg1669
(iplugins.pylisp
Nil
p4344
(dp4345
bsbsbsg1669
(iplugins.pylisp
Nil
p4346
(dp4347
bsbsbsbsg1669
(iplugins.pylisp
Nil
p4348
(dp4349
bsbsbsbsbsg1669
(iplugins.pylisp
Nil
p4350
(dp4351
bsbsbsbsbsg1669
(iplugins.pylisp
Nil
p4352
(dp4353
bsbsbsg1685
(iplugins.pylisp
ConsCell
p4354
(dp4355
g1663
(iplugins.pylisp
Symbol
p4356
(dp4357
g1653
g1795
sbsg1669
(iplugins.pylisp
ConsCell
p4358
(dp4359
g1663
(iplugins.pylisp
Symbol
p4360
(dp4361
g1653
g1771
sbsg1669
(iplugins.pylisp
Nil
p4362
(dp4363
bsbsbsg1692
g0
sbs(iplugins.pylisp
Symbol
p4364
(dp4365
g2662
S'length'
p4366
sb(iplugins.pylisp
Lambda
p4367
(dp4368
S'expression'
p4369
(iplugins.pylisp
ExpressionBody
p4370
(dp4371
S'expressions'
p4372
(iplugins.pylisp
ConsCell
p4373
(dp4374
S'car'
p4375
(iplugins.pylisp
ConsCell
p4376
(dp4377
g4375
(iplugins.pylisp
Symbol
p4378
(dp4379
g2662
S'if'
p4380
sbsS'cdr'
p4381
(iplugins.pylisp
ConsCell
p4382
(dp4383
g4375
(iplugins.pylisp
ConsCell
p4384
(dp4385
g4375
(iplugins.pylisp
Symbol
p4386
(dp4387
g2662
S'endp'
p4388
sbsg4381
(iplugins.pylisp
ConsCell
p4389
(dp4390
g4375
(iplugins.pylisp
Symbol
p4391
(dp4392
g2662
S'l'
p4393
sbsg4381
(iplugins.pylisp
Nil
p4394
(dp4395
bsbsbsg4381
(iplugins.pylisp
ConsCell
p4396
(dp4397
g4375
(iplugins.pylisp
Integer
p4398
(dp4399
S'value'
p4400
I0
sbsg4381
(iplugins.pylisp
ConsCell
p4401
(dp4402
g4375
(iplugins.pylisp
ConsCell
p4403
(dp4404
g4375
(iplugins.pylisp
Symbol
p4405
(dp4406
g2662
S'-'
p4407
sbsg4381
(iplugins.pylisp
ConsCell
p4408
(dp4409
g4375
(iplugins.pylisp
Integer
p4410
(dp4411
g4400
I1
sbsg4381
(iplugins.pylisp
ConsCell
p4412
(dp4413
g4375
(iplugins.pylisp
ConsCell
p4414
(dp4415
g4375
(iplugins.pylisp
Symbol
p4416
(dp4417
g2662
g4407
sbsg4381
(iplugins.pylisp
ConsCell
p4418
(dp4419
g4375
(iplugins.pylisp
Integer
p4420
(dp4421
g4400
I0
sbsg4381
(iplugins.pylisp
ConsCell
p4422
(dp4423
g4375
(iplugins.pylisp
ConsCell
p4424
(dp4425
g4375
(iplugins.pylisp
Symbol
p4426
(dp4427
g2662
S'length'
p4428
sbsg4381
(iplugins.pylisp
ConsCell
p4429
(dp4430
g4375
(iplugins.pylisp
ConsCell
p4431
(dp4432
g4375
(iplugins.pylisp
Symbol
p4433
(dp4434
g2662
S'cdr'
p4435
sbsg4381
(iplugins.pylisp
ConsCell
p4436
(dp4437
g4375
(iplugins.pylisp
Symbol
p4438
(dp4439
g2662
g4393
sbsg4381
(iplugins.pylisp
Nil
p4440
(dp4441
bsbsbsg4381
(iplugins.pylisp
Nil
p4442
(dp4443
bsbsbsg4381
(iplugins.pylisp
Nil
p4444
(dp4445
bsbsbsbsg4381
(iplugins.pylisp
Nil
p4446
(dp4447
bsbsbsbsg4381
(iplugins.pylisp
Nil
p4448
(dp4449
bsbsbsbsbsg4381
(iplugins.pylisp
Nil
p4450
(dp4451
bsbsbsS'parameters'
p4452
(iplugins.pylisp
ConsCell
p4453
(dp4454
g4375
(iplugins.pylisp
Symbol
p4455
(dp4456
g2662
g4393
sbsg4381
(iplugins.pylisp
Nil
p4457
(dp4458
bsbsS'env'
p4459
g0
sbs(iplugins.pylisp
Symbol
p4460
(dp4461
g2675
S'*pizzalista*'
p4462
sb(iplugins.pylisp
ConsCell
p4463
(dp4464
g2685
(iplugins.pylisp
ConsCell
p4465
(dp4466
g2685
(iplugins.pylisp
Symbol
p4467
(dp4468
g2675
S'kebab3'
p4469
sbsg2691
(iplugins.pylisp
ConsCell
p4470
(dp4471
g2685
(iplugins.pylisp
Symbol
p4472
(dp4473
g2675
S'cola'
p4474
sbsg2691
(iplugins.pylisp
Nil
p4475
(dp4476
bsbsbsg2691
(iplugins.pylisp
Nil
p4477
(dp4478
bsbs(iplugins.pylisp
Symbol
p4479
(dp4480
g232
S'first'
p4481
sb(iplugins.pylisp
NativeFunction
p4482
(dp4483
g236
cplugins.pylisp
car_func
p4484
sg238
I1
sg232
g896
sbs(iplugins.pylisp
Symbol
p4485
(dp4486
g420
S'cadr'
p4487
sb(iplugins.pylisp
Lambda
p4488
(dp4489
g1705
(iplugins.pylisp
ExpressionBody
p4490
(dp4491
g1708
(iplugins.pylisp
ConsCell
p4492
(dp4493
g424
(iplugins.pylisp
ConsCell
p4494
(dp4495
g424
(iplugins.pylisp
Symbol
p4496
(dp4497
g420
S'car'
p4498
sbsg428
(iplugins.pylisp
ConsCell
p4499
(dp4500
g424
(iplugins.pylisp
ConsCell
p4501
(dp4502
g424
(iplugins.pylisp
Symbol
p4503
(dp4504
g420
S'cdr'
p4505
sbsg428
(iplugins.pylisp
ConsCell
p4506
(dp4507
g424
(iplugins.pylisp
Symbol
p4508
(dp4509
g420
S'l'
p4510
sbsg428
(iplugins.pylisp
Nil
p4511
(dp4512
bsbsbsg428
(iplugins.pylisp
Nil
p4513
(dp4514
bsbsbsg428
(iplugins.pylisp
Nil
p4515
(dp4516
bsbsbsg1725
(iplugins.pylisp
ConsCell
p4517
(dp4518
g424
(iplugins.pylisp
Symbol
p4519
(dp4520
g420
g4510
sbsg428
(iplugins.pylisp
Nil
p4521
(dp4522
bsbsg1728
g0
sbs(iplugins.pylisp
Symbol
p4523
(dp4524
g114
S'pickmat'
p4525
sb(iplugins.pylisp
Lambda
p4526
(dp4527
g447
(iplugins.pylisp
ExpressionBody
p4528
(dp4529
g450
(iplugins.pylisp
ConsCell
p4530
(dp4531
g453
(iplugins.pylisp
ConsCell
p4532
(dp4533
g453
(iplugins.pylisp
Symbol
p4534
(dp4535
g443
S'let'
p4536
sbsg459
(iplugins.pylisp
ConsCell
p4537
(dp4538
g453
(iplugins.pylisp
ConsCell
p4539
(dp4540
g453
(iplugins.pylisp
ConsCell
p4541
(dp4542
g453
(iplugins.pylisp
Symbol
p4543
(dp4544
g443
S'mater'
p4545
sbsg459
(iplugins.pylisp
ConsCell
p4546
(dp4547
g453
(iplugins.pylisp
ConsCell
p4548
(dp4549
g453
(iplugins.pylisp
Symbol
p4550
(dp4551
g443
S'str-split'
p4552
sbsg459
(iplugins.pylisp
ConsCell
p4553
(dp4554
g453
(iplugins.pylisp
ConsCell
p4555
(dp4556
g453
(iplugins.pylisp
Symbol
p4557
(dp4558
g443
S'str-append'
p4559
sbsg459
(iplugins.pylisp
ConsCell
p4560
(dp4561
g453
(iplugins.pylisp
ConsCell
p4562
(dp4563
g453
(iplugins.pylisp
Symbol
p4564
(dp4565
g443
S'command'
p4566
sbsg459
(iplugins.pylisp
ConsCell
p4567
(dp4568
g453
(iplugins.pylisp
String
p4569
(dp4570
g476
S'mat'
p4571
sbsg459
(iplugins.pylisp
ConsCell
p4572
(dp4573
g453
(iplugins.pylisp
String
p4574
(dp4575
g476
S'liu'
p4576
sbsg459
(iplugins.pylisp
Nil
p4577
(dp4578
bsbsbsbsg459
(iplugins.pylisp
ConsCell
p4579
(dp4580
g453
(iplugins.pylisp
String
p4581
(dp4582
g476
S' | Pastavagnen | Matl\xc3\xa5da | Baljan: Jochen, Kaffe, Kl\xc3\xa4gg'
p4583
sbsg459
(iplugins.pylisp
Nil
p4584
(dp4585
bsbsbsbsg459
(iplugins.pylisp
ConsCell
p4586
(dp4587
g453
(iplugins.pylisp
String
p4588
(dp4589
g476
S' | '
p4590
sbsg459
(iplugins.pylisp
Nil
p4591
(dp4592
bsbsbsbsg459
(iplugins.pylisp
Nil
p4593
(dp4594
bsbsbsg459
(iplugins.pylisp
Nil
p4595
(dp4596
bsbsg459
(iplugins.pylisp
ConsCell
p4597
(dp4598
g453
(iplugins.pylisp
ConsCell
p4599
(dp4600
g453
(iplugins.pylisp
Symbol
p4601
(dp4602
g443
S'command'
p4603
sbsg459
(iplugins.pylisp
ConsCell
p4604
(dp4605
g453
(iplugins.pylisp
String
p4606
(dp4607
g476
S'pick'
p4608
sbsg459
(iplugins.pylisp
ConsCell
p4609
(dp4610
g453
(iplugins.pylisp
ConsCell
p4611
(dp4612
g453
(iplugins.pylisp
Symbol
p4613
(dp4614
g443
S'str-join'
p4615
sbsg459
(iplugins.pylisp
ConsCell
p4616
(dp4617
g453
(iplugins.pylisp
Symbol
p4618
(dp4619
g443
S'mater'
p4620
sbsg459
(iplugins.pylisp
ConsCell
p4621
(dp4622
g453
(iplugins.pylisp
String
p4623
(dp4624
g476
S' or '
p4625
sbsg459
(iplugins.pylisp
Nil
p4626
(dp4627
bsbsbsbsg459
(iplugins.pylisp
Nil
p4628
(dp4629
bsbsbsbsg459
(iplugins.pylisp
Nil
p4630
(dp4631
bsbsbsbsg459
(iplugins.pylisp
Nil
p4632
(dp4633
bsbsbsg575
(iplugins.pylisp
Nil
p4634
(dp4635
bsg587
g0
sbs(iplugins.pylisp
Symbol
p4636
(dp4637
g886
S'>='
p4638
sb(iplugins.pylisp
Lambda
p4639
(dp4640
S'expression'
p4641
(iplugins.pylisp
ExpressionBody
p4642
(dp4643
S'expressions'
p4644
(iplugins.pylisp
ConsCell
p4645
(dp4646
S'car'
p4647
(iplugins.pylisp
ConsCell
p4648
(dp4649
g4647
(iplugins.pylisp
Symbol
p4650
(dp4651
g886
S'or'
p4652
sbsS'cdr'
p4653
(iplugins.pylisp
ConsCell
p4654
(dp4655
g4647
(iplugins.pylisp
ConsCell
p4656
(dp4657
g4647
(iplugins.pylisp
Symbol
p4658
(dp4659
g886
S'>'
p4660
sbsg4653
(iplugins.pylisp
ConsCell
p4661
(dp4662
g4647
(iplugins.pylisp
Symbol
p4663
(dp4664
g886
S'a'
p4665
sbsg4653
(iplugins.pylisp
ConsCell
p4666
(dp4667
g4647
(iplugins.pylisp
Symbol
p4668
(dp4669
g886
S'b'
p4670
sbsg4653
(iplugins.pylisp
Nil
p4671
(dp4672
bsbsbsbsg4653
(iplugins.pylisp
ConsCell
p4673
(dp4674
g4647
(iplugins.pylisp
ConsCell
p4675
(dp4676
g4647
(iplugins.pylisp
Symbol
p4677
(dp4678
g886
S'='
p4679
sbsg4653
(iplugins.pylisp
ConsCell
p4680
(dp4681
g4647
(iplugins.pylisp
Symbol
p4682
(dp4683
g886
g4665
sbsg4653
(iplugins.pylisp
ConsCell
p4684
(dp4685
g4647
(iplugins.pylisp
Symbol
p4686
(dp4687
g886
g4670
sbsg4653
(iplugins.pylisp
Nil
p4688
(dp4689
bsbsbsbsg4653
(iplugins.pylisp
Nil
p4690
(dp4691
bsbsbsbsg4653
(iplugins.pylisp
Nil
p4692
(dp4693
bsbsbsS'parameters'
p4694
(iplugins.pylisp
ConsCell
p4695
(dp4696
g4647
(iplugins.pylisp
Symbol
p4697
(dp4698
g886
g4665
sbsg4653
(iplugins.pylisp
ConsCell
p4699
(dp4700
g4647
(iplugins.pylisp
Symbol
p4701
(dp4702
g886
g4670
sbsg4653
(iplugins.pylisp
Nil
p4703
(dp4704
bsbsbsS'env'
p4705
g0
sbs(iplugins.pylisp
Symbol
p4706
(dp4707
g1977
S's\xc3\xa4mst?'
p4708
sb(iplugins.pylisp
Lambda
p4709
(dp4710
S'expression'
p4711
(iplugins.pylisp
ExpressionBody
p4712
(dp4713
S'expressions'
p4714
(iplugins.pylisp
ConsCell
p4715
(dp4716
g2753
(iplugins.pylisp
ConsCell
p4717
(dp4718
g2753
(iplugins.pylisp
Symbol
p4719
(dp4720
g1977
S'eq'
p4721
sbsg2757
(iplugins.pylisp
ConsCell
p4722
(dp4723
g2753
(iplugins.pylisp
Symbol
p4724
(dp4725
g1977
S'person'
p4726
sbsg2757
(iplugins.pylisp
ConsCell
p4727
(dp4728
g2753
(iplugins.pylisp
Quoted
p4729
(dp4730
S'quoted_expression'
p4731
(iplugins.pylisp
Symbol
p4732
(dp4733
g1977
S'tjoff'
p4734
sbsbsg2757
(iplugins.pylisp
Nil
p4735
(dp4736
bsbsbsbsg2757
(iplugins.pylisp
Nil
p4737
(dp4738
bsbsbsS'parameters'
p4739
(iplugins.pylisp
ConsCell
p4740
(dp4741
g2753
(iplugins.pylisp
Symbol
p4742
(dp4743
g1977
S'person'
p4744
sbsg2757
(iplugins.pylisp
Nil
p4745
(dp4746
bsbsS'env'
p4747
g0
sbs(iplugins.pylisp
Symbol
p4748
(dp4749
g6
S'xyz'
p4750
sb(iplugins.pylisp
String
p4751
(dp4752
g39
S'\x02\x033,5F\xc3\x84RGER\x03\x02'
p4753
sbs(iplugins.pylisp
Symbol
p4754
(dp4755
g6
S'helpkuk'
p4756
sb(iplugins.pylisp
Lambda
p4757
(dp4758
g10
(iplugins.pylisp
ExpressionBody
p4759
(dp4760
g13
(iplugins.pylisp
ConsCell
p4761
(dp4762
g16
(iplugins.pylisp
ConsCell
p4763
(dp4764
g16
(iplugins.pylisp
Symbol
p4765
(dp4766
g6
S'if'
p4767
sbsg22
(iplugins.pylisp
ConsCell
p4768
(dp4769
g16
(iplugins.pylisp
ConsCell
p4770
(dp4771
g16
(iplugins.pylisp
Symbol
p4772
(dp4773
g6
g1559
sbsg22
(iplugins.pylisp
ConsCell
p4774
(dp4775
g16
(iplugins.pylisp
Symbol
p4776
(dp4777
g6
g34
sbsg22
(iplugins.pylisp
ConsCell
p4778
(dp4779
g16
(iplugins.pylisp
Integer
p4780
(dp4781
g39
I0
sbsg22
(iplugins.pylisp
Nil
p4782
(dp4783
bsbsbsbsg22
(iplugins.pylisp
ConsCell
p4784
(dp4785
g16
(iplugins.pylisp
ConsCell
p4786
(dp4787
g16
(iplugins.pylisp
Symbol
p4788
(dp4789
g6
S'helpkuk'
p4790
sbsg22
(iplugins.pylisp
ConsCell
p4791
(dp4792
g16
(iplugins.pylisp
ConsCell
p4793
(dp4794
g16
(iplugins.pylisp
Symbol
p4795
(dp4796
g6
g67
sbsg22
(iplugins.pylisp
ConsCell
p4797
(dp4798
g16
(iplugins.pylisp
Symbol
p4799
(dp4800
g6
g34
sbsg22
(iplugins.pylisp
ConsCell
p4801
(dp4802
g16
(iplugins.pylisp
Integer
p4803
(dp4804
g39
I1
sbsg22
(iplugins.pylisp
Nil
p4805
(dp4806
bsbsbsbsg22
(iplugins.pylisp
ConsCell
p4807
(dp4808
g16
(iplugins.pylisp
ConsCell
p4809
(dp4810
g16
(iplugins.pylisp
Symbol
p4811
(dp4812
g6
S'str-append'
p4813
sbsg22
(iplugins.pylisp
ConsCell
p4814
(dp4815
g16
(iplugins.pylisp
String
p4816
(dp4817
g39
g29
sbsg22
(iplugins.pylisp
ConsCell
p4818
(dp4819
g16
(iplugins.pylisp
Symbol
p4820
(dp4821
g6
g1878
sbsg22
(iplugins.pylisp
Nil
p4822
(dp4823
bsbsbsbsg22
(iplugins.pylisp
Nil
p4824
(dp4825
bsbsbsbsg22
(iplugins.pylisp
ConsCell
p4826
(dp4827
g16
(iplugins.pylisp
ConsCell
p4828
(dp4829
g16
(iplugins.pylisp
Symbol
p4830
(dp4831
g6
S'str-append'
p4832
sbsg22
(iplugins.pylisp
ConsCell
p4833
(dp4834
g16
(iplugins.pylisp
String
p4835
(dp4836
g39
S'B'
p4837
sbsg22
(iplugins.pylisp
ConsCell
p4838
(dp4839
g16
(iplugins.pylisp
Symbol
p4840
(dp4841
g6
g1878
sbsg22
(iplugins.pylisp
Nil
p4842
(dp4843
bsbsbsbsg22
(iplugins.pylisp
Nil
p4844
(dp4845
bsbsbsbsbsg22
(iplugins.pylisp
Nil
p4846
(dp4847
bsbsbsg94
(iplugins.pylisp
ConsCell
p4848
(dp4849
g16
(iplugins.pylisp
Symbol
p4850
(dp4851
g6
g34
sbsg22
(iplugins.pylisp
ConsCell
p4852
(dp4853
g16
(iplugins.pylisp
Symbol
p4854
(dp4855
g6
g1878
sbsg22
(iplugins.pylisp
Nil
p4856
(dp4857
bsbsbsg105
g0
sbs(iplugins.pylisp
Symbol
p4858
(dp4859
g1695
S'funcall'
p4860
sb(iplugins.pylisp
Macro
p4861
(dp4862
S'expression'
p4863
(iplugins.pylisp
ConsCell
p4864
(dp4865
S'car'
p4866
(iplugins.pylisp
Symbol
p4867
(dp4868
g1695
S'cons'
p4869
sbsS'cdr'
p4870
(iplugins.pylisp
ConsCell
p4871
(dp4872
g4866
(iplugins.pylisp
Symbol
p4873
(dp4874
g1695
S'f'
p4875
sbsg4870
(iplugins.pylisp
ConsCell
p4876
(dp4877
g4866
(iplugins.pylisp
Symbol
p4878
(dp4879
g1695
S'args'
p4880
sbsg4870
(iplugins.pylisp
Nil
p4881
(dp4882
bsbsbsbsS'parameters'
p4883
(iplugins.pylisp
ConsCell
p4884
(dp4885
g4866
(iplugins.pylisp
Symbol
p4886
(dp4887
g1695
g4875
sbsg4870
(iplugins.pylisp
ConsCell
p4888
(dp4889
g4866
(iplugins.pylisp
Symbol
p4890
(dp4891
g1695
S'args'
p4892
sbsg4870
(iplugins.pylisp
Nil
p4893
(dp4894
bsbsbsS'env'
p4895
g0
sbs(iplugins.pylisp
Symbol
p4896
(dp4897
S'name'
p4898
S'roulettern'
p4899
sb(iplugins.pylisp
String
p4900
(dp4901
S'value'
p4902
S'?echo .roulette play'
p4903
sbs(iplugins.pylisp
Symbol
p4904
(dp4905
g868
S'nom-mat-n'
p4906
sb(iplugins.pylisp
Lambda
p4907
(dp4908
g857
(iplugins.pylisp
ExpressionBody
p4909
(dp4910
g860
(iplugins.pylisp
ConsCell
p4911
(dp4912
g863
(iplugins.pylisp
ConsCell
p4913
(dp4914
g863
(iplugins.pylisp
Symbol
p4915
(dp4916
g868
S'nomrate'
p4917
sbsg870
(iplugins.pylisp
ConsCell
p4918
(dp4919
g863
(iplugins.pylisp
ConsCell
p4920
(dp4921
g863
(iplugins.pylisp
Symbol
p4922
(dp4923
g868
S'str-join'
p4924
sbsg870
(iplugins.pylisp
ConsCell
p4925
(dp4926
g863
(iplugins.pylisp
ConsCell
p4927
(dp4928
g863
(iplugins.pylisp
Symbol
p4929
(dp4930
g868
S'collect'
p4931
sbsg870
(iplugins.pylisp
ConsCell
p4932
(dp4933
g863
(iplugins.pylisp
Symbol
p4934
(dp4935
g868
S'matnamn'
p4936
sbsg870
(iplugins.pylisp
ConsCell
p4937
(dp4938
g863
(iplugins.pylisp
Symbol
p4939
(dp4940
g868
g1459
sbsg870
(iplugins.pylisp
Nil
p4941
(dp4942
bsbsbsbsg870
(iplugins.pylisp
ConsCell
p4943
(dp4944
g863
(iplugins.pylisp
String
p4945
(dp4946
g875
S' med '
p4947
sbsg870
(iplugins.pylisp
Nil
p4948
(dp4949
bsbsbsbsg870
(iplugins.pylisp
Nil
p4950
(dp4951
bsbsbsg870
(iplugins.pylisp
Nil
p4952
(dp4953
bsbsbsg880
(iplugins.pylisp
ConsCell
p4954
(dp4955
g863
(iplugins.pylisp
Symbol
p4956
(dp4957
g868
g1459
sbsg870
(iplugins.pylisp
Nil
p4958
(dp4959
bsbsg883
g0
sbs(iplugins.pylisp
Symbol
p4960
(dp4961
g1181
S'sgd'
p4962
sb(iplugins.pylisp
Lambda
p4963
(dp4964
g1185
(iplugins.pylisp
ExpressionBody
p4965
(dp4966
g1188
(iplugins.pylisp
ConsCell
p4967
(dp4968
g1191
(iplugins.pylisp
ConsCell
p4969
(dp4970
g1191
(iplugins.pylisp
Symbol
p4971
(dp4972
g1181
S'if'
p4973
sbsg1197
(iplugins.pylisp
ConsCell
p4974
(dp4975
g1191
(iplugins.pylisp
ConsCell
p4976
(dp4977
g1191
(iplugins.pylisp
Symbol
p4978
(dp4979
g1181
S'<='
p4980
sbsg1197
(iplugins.pylisp
ConsCell
p4981
(dp4982
g1191
(iplugins.pylisp
Symbol
p4983
(dp4984
g1181
g1202
sbsg1197
(iplugins.pylisp
ConsCell
p4985
(dp4986
g1191
(iplugins.pylisp
Symbol
p4987
(dp4988
g1181
g1225
sbsg1197
(iplugins.pylisp
Nil
p4989
(dp4990
bsbsbsbsg1197
(iplugins.pylisp
ConsCell
p4991
(dp4992
g1191
(iplugins.pylisp
ConsCell
p4993
(dp4994
g1191
(iplugins.pylisp
Symbol
p4995
(dp4996
g1181
S'sgd'
p4997
sbsg1197
(iplugins.pylisp
ConsCell
p4998
(dp4999
g1191
(iplugins.pylisp
Symbol
p5000
(dp5001
g1181
g1225
sbsg1197
(iplugins.pylisp
ConsCell
p5002
(dp5003
g1191
(iplugins.pylisp
Symbol
p5004
(dp5005
g1181
g1202
sbsg1197
(iplugins.pylisp
Nil
p5006
(dp5007
bsbsbsbsg1197
(iplugins.pylisp
ConsCell
p5008
(dp5009
g1191
(iplugins.pylisp
ConsCell
p5010
(dp5011
g1191
(iplugins.pylisp
Symbol
p5012
(dp5013
g1181
S'if'
p5014
sbsg1197
(iplugins.pylisp
ConsCell
p5015
(dp5016
g1191
(iplugins.pylisp
ConsCell
p5017
(dp5018
g1191
(iplugins.pylisp
Symbol
p5019
(dp5020
g1181
S'='
p5021
sbsg1197
(iplugins.pylisp
ConsCell
p5022
(dp5023
g1191
(iplugins.pylisp
Symbol
p5024
(dp5025
g1181
g1225
sbsg1197
(iplugins.pylisp
ConsCell
p5026
(dp5027
g1191
(iplugins.pylisp
Integer
p5028
(dp5029
S'value'
p5030
I0
sbsg1197
(iplugins.pylisp
Nil
p5031
(dp5032
bsbsbsbsg1197
(iplugins.pylisp
ConsCell
p5033
(dp5034
g1191
(iplugins.pylisp
Symbol
p5035
(dp5036
g1181
g1202
sbsg1197
(iplugins.pylisp
ConsCell
p5037
(dp5038
g1191
(iplugins.pylisp
ConsCell
p5039
(dp5040
g1191
(iplugins.pylisp
Symbol
p5041
(dp5042
g1181
S'sgd'
p5043
sbsg1197
(iplugins.pylisp
ConsCell
p5044
(dp5045
g1191
(iplugins.pylisp
Symbol
p5046
(dp5047
g1181
g1225
sbsg1197
(iplugins.pylisp
ConsCell
p5048
(dp5049
g1191
(iplugins.pylisp
ConsCell
p5050
(dp5051
g1191
(iplugins.pylisp
Symbol
p5052
(dp5053
g1181
S'mod'
p5054
sbsg1197
(iplugins.pylisp
ConsCell
p5055
(dp5056
g1191
(iplugins.pylisp
Symbol
p5057
(dp5058
g1181
g1202
sbsg1197
(iplugins.pylisp
ConsCell
p5059
(dp5060
g1191
(iplugins.pylisp
Symbol
p5061
(dp5062
g1181
g1225
sbsg1197
(iplugins.pylisp
Nil
p5063
(dp5064
bsbsbsbsg1197
(iplugins.pylisp
Nil
p5065
(dp5066
bsbsbsbsg1197
(iplugins.pylisp
Nil
p5067
(dp5068
bsbsbsbsbsg1197
(iplugins.pylisp
Nil
p5069
(dp5070
bsbsbsbsbsg1197
(iplugins.pylisp
Nil
p5071
(dp5072
bsbsbsg1238
(iplugins.pylisp
ConsCell
p5073
(dp5074
g1191
(iplugins.pylisp
Symbol
p5075
(dp5076
g1181
g1202
sbsg1197
(iplugins.pylisp
ConsCell
p5077
(dp5078
g1191
(iplugins.pylisp
Symbol
p5079
(dp5080
g1181
g1225
sbsg1197
(iplugins.pylisp
Nil
p5081
(dp5082
bsbsbsg1249
g0
sbs(iplugins.pylisp
Symbol
p5083
(dp5084
g868
S'bra'
p5085
sbg1537
s(iplugins.pylisp
Symbol
p5086
(dp5087
g108
S'zip'
p5088
sb(iplugins.pylisp
Lambda
p5089
(dp5090
g288
(iplugins.pylisp
ExpressionBody
p5091
(dp5092
g291
(iplugins.pylisp
ConsCell
p5093
(dp5094
g294
(iplugins.pylisp
ConsCell
p5095
(dp5096
g294
(iplugins.pylisp
Symbol
p5097
(dp5098
g108
S'if'
p5099
sbsg300
(iplugins.pylisp
ConsCell
p5100
(dp5101
g294
(iplugins.pylisp
ConsCell
p5102
(dp5103
g294
(iplugins.pylisp
Symbol
p5104
(dp5105
g108
S'or'
p5106
sbsg300
(iplugins.pylisp
ConsCell
p5107
(dp5108
g294
(iplugins.pylisp
ConsCell
p5109
(dp5110
g294
(iplugins.pylisp
Symbol
p5111
(dp5112
g108
S'endp'
p5113
sbsg300
(iplugins.pylisp
ConsCell
p5114
(dp5115
g294
(iplugins.pylisp
Symbol
p5116
(dp5117
g108
S'la'
p5118
sbsg300
(iplugins.pylisp
Nil
p5119
(dp5120
bsbsbsg300
(iplugins.pylisp
ConsCell
p5121
(dp5122
g294
(iplugins.pylisp
ConsCell
p5123
(dp5124
g294
(iplugins.pylisp
Symbol
p5125
(dp5126
g108
S'endp'
p5127
sbsg300
(iplugins.pylisp
ConsCell
p5128
(dp5129
g294
(iplugins.pylisp
Symbol
p5130
(dp5131
g108
S'lb'
p5132
sbsg300
(iplugins.pylisp
Nil
p5133
(dp5134
bsbsbsg300
(iplugins.pylisp
Nil
p5135
(dp5136
bsbsbsbsg300
(iplugins.pylisp
ConsCell
p5137
(dp5138
g294
(iplugins.pylisp
Symbol
p5139
(dp5140
g108
S'nil'
p5141
sbsg300
(iplugins.pylisp
ConsCell
p5142
(dp5143
g294
(iplugins.pylisp
ConsCell
p5144
(dp5145
g294
(iplugins.pylisp
Symbol
p5146
(dp5147
g108
S'cons'
p5148
sbsg300
(iplugins.pylisp
ConsCell
p5149
(dp5150
g294
(iplugins.pylisp
ConsCell
p5151
(dp5152
g294
(iplugins.pylisp
Symbol
p5153
(dp5154
g108
S'cons'
p5155
sbsg300
(iplugins.pylisp
ConsCell
p5156
(dp5157
g294
(iplugins.pylisp
ConsCell
p5158
(dp5159
g294
(iplugins.pylisp
Symbol
p5160
(dp5161
g108
S'car'
p5162
sbsg300
(iplugins.pylisp
ConsCell
p5163
(dp5164
g294
(iplugins.pylisp
Symbol
p5165
(dp5166
g108
S'la'
p5167
sbsg300
(iplugins.pylisp
Nil
p5168
(dp5169
bsbsbsg300
(iplugins.pylisp
ConsCell
p5170
(dp5171
g294
(iplugins.pylisp
ConsCell
p5172
(dp5173
g294
(iplugins.pylisp
Symbol
p5174
(dp5175
g108
S'car'
p5176
sbsg300
(iplugins.pylisp
ConsCell
p5177
(dp5178
g294
(iplugins.pylisp
Symbol
p5179
(dp5180
g108
S'lb'
p5181
sbsg300
(iplugins.pylisp
Nil
p5182
(dp5183
bsbsbsg300
(iplugins.pylisp
Nil
p5184
(dp5185
bsbsbsbsg300
(iplugins.pylisp
ConsCell
p5186
(dp5187
g294
(iplugins.pylisp
ConsCell
p5188
(dp5189
g294
(iplugins.pylisp
Symbol
p5190
(dp5191
g108
S'zip'
p5192
sbsg300
(iplugins.pylisp
ConsCell
p5193
(dp5194
g294
(iplugins.pylisp
ConsCell
p5195
(dp5196
g294
(iplugins.pylisp
Symbol
p5197
(dp5198
g108
S'cdr'
p5199
sbsg300
(iplugins.pylisp
ConsCell
p5200
(dp5201
g294
(iplugins.pylisp
Symbol
p5202
(dp5203
g108
S'la'
p5204
sbsg300
(iplugins.pylisp
Nil
p5205
(dp5206
bsbsbsg300
(iplugins.pylisp
ConsCell
p5207
(dp5208
g294
(iplugins.pylisp
ConsCell
p5209
(dp5210
g294
(iplugins.pylisp
Symbol
p5211
(dp5212
g108
S'cdr'
p5213
sbsg300
(iplugins.pylisp
ConsCell
p5214
(dp5215
g294
(iplugins.pylisp
Symbol
p5216
(dp5217
g108
S'lb'
p5218
sbsg300
(iplugins.pylisp
Nil
p5219
(dp5220
bsbsbsg300
(iplugins.pylisp
Nil
p5221
(dp5222
bsbsbsbsg300
(iplugins.pylisp
Nil
p5223
(dp5224
bsbsbsbsg300
(iplugins.pylisp
Nil
p5225
(dp5226
bsbsbsbsbsg300
(iplugins.pylisp
Nil
p5227
(dp5228
bsbsbsg342
(iplugins.pylisp
ConsCell
p5229
(dp5230
g294
(iplugins.pylisp
Symbol
p5231
(dp5232
g108
S'la'
p5233
sbsg300
(iplugins.pylisp
ConsCell
p5234
(dp5235
g294
(iplugins.pylisp
Symbol
p5236
(dp5237
g108
S'lb'
p5238
sbsg300
(iplugins.pylisp
Nil
p5239
(dp5240
bsbsbsg349
g0
sbs(iplugins.pylisp
Symbol
p5241
(dp5242
g2662
S'spam'
p5243
sb(iplugins.pylisp
Lambda
p5244
(dp5245
g4369
(iplugins.pylisp
ExpressionBody
p5246
(dp5247
g4372
(iplugins.pylisp
ConsCell
p5248
(dp5249
g4375
(iplugins.pylisp
ConsCell
p5250
(dp5251
g4375
(iplugins.pylisp
Symbol
p5252
(dp5253
g2662
S'print'
p5254
sbsg4381
(iplugins.pylisp
ConsCell
p5255
(dp5256
g4375
(iplugins.pylisp
ConsCell
p5257
(dp5258
g4375
(iplugins.pylisp
Symbol
p5259
(dp5260
g2662
S'print'
p5261
sbsg4381
(iplugins.pylisp
ConsCell
p5262
(dp5263
g4375
(iplugins.pylisp
ConsCell
p5264
(dp5265
g4375
(iplugins.pylisp
Symbol
p5266
(dp5267
g2662
S'print'
p5268
sbsg4381
(iplugins.pylisp
ConsCell
p5269
(dp5270
g4375
(iplugins.pylisp
ConsCell
p5271
(dp5272
g4375
(iplugins.pylisp
Symbol
p5273
(dp5274
g2662
S'print'
p5275
sbsg4381
(iplugins.pylisp
ConsCell
p5276
(dp5277
g4375
(iplugins.pylisp
ConsCell
p5278
(dp5279
g4375
(iplugins.pylisp
Symbol
p5280
(dp5281
g2662
S'print'
p5282
sbsg4381
(iplugins.pylisp
ConsCell
p5283
(dp5284
g4375
(iplugins.pylisp
ConsCell
p5285
(dp5286
g4375
(iplugins.pylisp
Symbol
p5287
(dp5288
g2662
S'print'
p5289
sbsg4381
(iplugins.pylisp
ConsCell
p5290
(dp5291
g4375
(iplugins.pylisp
ConsCell
p5292
(dp5293
g4375
(iplugins.pylisp
Symbol
p5294
(dp5295
g2662
S'print'
p5296
sbsg4381
(iplugins.pylisp
ConsCell
p5297
(dp5298
g4375
(iplugins.pylisp
ConsCell
p5299
(dp5300
g4375
(iplugins.pylisp
Symbol
p5301
(dp5302
g2662
S'print'
p5303
sbsg4381
(iplugins.pylisp
ConsCell
p5304
(dp5305
g4375
(iplugins.pylisp
ConsCell
p5306
(dp5307
g4375
(iplugins.pylisp
Symbol
p5308
(dp5309
g2662
S'print'
p5310
sbsg4381
(iplugins.pylisp
ConsCell
p5311
(dp5312
g4375
(iplugins.pylisp
ConsCell
p5313
(dp5314
g4375
(iplugins.pylisp
Symbol
p5315
(dp5316
g2662
S'print'
p5317
sbsg4381
(iplugins.pylisp
ConsCell
p5318
(dp5319
g4375
(iplugins.pylisp
Symbol
p5320
(dp5321
g2662
S'string'
p5322
sbsg4381
(iplugins.pylisp
Nil
p5323
(dp5324
bsbsbsg4381
(iplugins.pylisp
Nil
p5325
(dp5326
bsbsbsg4381
(iplugins.pylisp
Nil
p5327
(dp5328
bsbsbsg4381
(iplugins.pylisp
Nil
p5329
(dp5330
bsbsbsg4381
(iplugins.pylisp
Nil
p5331
(dp5332
bsbsbsg4381
(iplugins.pylisp
Nil
p5333
(dp5334
bsbsbsg4381
(iplugins.pylisp
Nil
p5335
(dp5336
bsbsbsg4381
(iplugins.pylisp
Nil
p5337
(dp5338
bsbsbsg4381
(iplugins.pylisp
Nil
p5339
(dp5340
bsbsbsg4381
(iplugins.pylisp
Nil
p5341
(dp5342
bsbsbsg4381
(iplugins.pylisp
Nil
p5343
(dp5344
bsbsbsg4452
(iplugins.pylisp
ConsCell
p5345
(dp5346
g4375
(iplugins.pylisp
Symbol
p5347
(dp5348
g2662
S'string'
p5349
sbsg4381
(iplugins.pylisp
Nil
p5350
(dp5351
bsbsg4459
g0
sbs(iplugins.pylisp
Symbol
p5352
(dp5353
g853
S'nom-gen'
p5354
sb(iplugins.pylisp
Lambda
p5355
(dp5356
g2827
(iplugins.pylisp
ExpressionBody
p5357
(dp5358
g2830
(iplugins.pylisp
ConsCell
p5359
(dp5360
g2833
(iplugins.pylisp
ConsCell
p5361
(dp5362
g2833
(iplugins.pylisp
Symbol
p5363
(dp5364
g853
S'nth'
p5365
sbsg2839
(iplugins.pylisp
ConsCell
p5366
(dp5367
g2833
(iplugins.pylisp
ConsCell
p5368
(dp5369
g2833
(iplugins.pylisp
Symbol
p5370
(dp5371
g853
S'rand'
p5372
sbsg2839
(iplugins.pylisp
ConsCell
p5373
(dp5374
g2833
(iplugins.pylisp
Integer
p5375
(dp5376
g2887
I3
sbsg2839
(iplugins.pylisp
Nil
p5377
(dp5378
bsbsbsg2839
(iplugins.pylisp
ConsCell
p5379
(dp5380
g2833
(iplugins.pylisp
Quoted
p5381
(dp5382
S'quoted_expression'
p5383
(iplugins.pylisp
ConsCell
p5384
(dp5385
g2833
(iplugins.pylisp
String
p5386
(dp5387
g2887
S'om'
p5388
sbsg2839
(iplugins.pylisp
ConsCell
p5389
(dp5390
g2833
(iplugins.pylisp
String
p5391
(dp5392
g2887
S'nomme'
p5393
sbsg2839
(iplugins.pylisp
ConsCell
p5394
(dp5395
g2833
(iplugins.pylisp
String
p5396
(dp5397
g2887
S'nom'
p5398
sbsg2839
(iplugins.pylisp
Nil
p5399
(dp5400
bsbsbsbsbsg2839
(iplugins.pylisp
Nil
p5401
(dp5402
bsbsbsbsg2839
(iplugins.pylisp
Nil
p5403
(dp5404
bsbsbsg3020
(iplugins.pylisp
Nil
p5405
(dp5406
bsg3027
g0
sbs(iplugins.pylisp
Symbol
p5407
(dp5408
g108
S'copies'
p5409
sb(iplugins.pylisp
Lambda
p5410
(dp5411
g288
(iplugins.pylisp
ExpressionBody
p5412
(dp5413
g291
(iplugins.pylisp
ConsCell
p5414
(dp5415
g294
(iplugins.pylisp
ConsCell
p5416
(dp5417
g294
(iplugins.pylisp
Symbol
p5418
(dp5419
g108
S'if'
p5420
sbsg300
(iplugins.pylisp
ConsCell
p5421
(dp5422
g294
(iplugins.pylisp
ConsCell
p5423
(dp5424
g294
(iplugins.pylisp
Symbol
p5425
(dp5426
g108
S'='
p5427
sbsg300
(iplugins.pylisp
ConsCell
p5428
(dp5429
g294
(iplugins.pylisp
Symbol
p5430
(dp5431
g108
g312
sbsg300
(iplugins.pylisp
ConsCell
p5432
(dp5433
g294
(iplugins.pylisp
Integer
p5434
(dp5435
S'value'
p5436
I0
sbsg300
(iplugins.pylisp
Nil
p5437
(dp5438
bsbsbsbsg300
(iplugins.pylisp
ConsCell
p5439
(dp5440
g294
(iplugins.pylisp
Symbol
p5441
(dp5442
g108
S'nil'
p5443
sbsg300
(iplugins.pylisp
ConsCell
p5444
(dp5445
g294
(iplugins.pylisp
ConsCell
p5446
(dp5447
g294
(iplugins.pylisp
Symbol
p5448
(dp5449
g108
S'cons'
p5450
sbsg300
(iplugins.pylisp
ConsCell
p5451
(dp5452
g294
(iplugins.pylisp
Symbol
p5453
(dp5454
g108
S'x'
p5455
sbsg300
(iplugins.pylisp
ConsCell
p5456
(dp5457
g294
(iplugins.pylisp
ConsCell
p5458
(dp5459
g294
(iplugins.pylisp
Symbol
p5460
(dp5461
g108
S'copies'
p5462
sbsg300
(iplugins.pylisp
ConsCell
p5463
(dp5464
g294
(iplugins.pylisp
ConsCell
p5465
(dp5466
g294
(iplugins.pylisp
Symbol
p5467
(dp5468
g108
S'-'
p5469
sbsg300
(iplugins.pylisp
ConsCell
p5470
(dp5471
g294
(iplugins.pylisp
Symbol
p5472
(dp5473
g108
g312
sbsg300
(iplugins.pylisp
ConsCell
p5474
(dp5475
g294
(iplugins.pylisp
Integer
p5476
(dp5477
g5436
I1
sbsg300
(iplugins.pylisp
Nil
p5478
(dp5479
bsbsbsbsg300
(iplugins.pylisp
ConsCell
p5480
(dp5481
g294
(iplugins.pylisp
Symbol
p5482
(dp5483
g108
g5455
sbsg300
(iplugins.pylisp
Nil
p5484
(dp5485
bsbsbsbsg300
(iplugins.pylisp
Nil
p5486
(dp5487
bsbsbsbsg300
(iplugins.pylisp
Nil
p5488
(dp5489
bsbsbsbsbsg300
(iplugins.pylisp
Nil
p5490
(dp5491
bsbsbsg342
(iplugins.pylisp
ConsCell
p5492
(dp5493
g294
(iplugins.pylisp
Symbol
p5494
(dp5495
g108
g312
sbsg300
(iplugins.pylisp
ConsCell
p5496
(dp5497
g294
(iplugins.pylisp
Symbol
p5498
(dp5499
g108
g5455
sbsg300
(iplugins.pylisp
Nil
p5500
(dp5501
bsbsbsg349
g0
sbs(iplugins.pylisp
Symbol
p5502
(dp5503
g6
S'lol'
p5504
sb(iplugins.pylisp
Lambda
p5505
(dp5506
S'expression'
p5507
(iplugins.pylisp
ExpressionBody
p5508
(dp5509
S'expressions'
p5510
(iplugins.pylisp
ConsCell
p5511
(dp5512
S'car'
p5513
(iplugins.pylisp
ConsCell
p5514
(dp5515
g5513
(iplugins.pylisp
Symbol
p5516
(dp5517
S'name'
p5518
S'str-join'
p5519
sbsS'cdr'
p5520
(iplugins.pylisp
ConsCell
p5521
(dp5522
g5513
(iplugins.pylisp
ConsCell
p5523
(dp5524
g5513
(iplugins.pylisp
Symbol
p5525
(dp5526
g5518
S'list'
p5527
sbsg5520
(iplugins.pylisp
ConsCell
p5528
(dp5529
g5513
(iplugins.pylisp
String
p5530
(dp5531
S'value'
p5532
S'l'
p5533
sbsg5520
(iplugins.pylisp
ConsCell
p5534
(dp5535
g5513
(iplugins.pylisp
ConsCell
p5536
(dp5537
g5513
(iplugins.pylisp
Symbol
p5538
(dp5539
g5518
S'stimes'
p5540
sbsg5520
(iplugins.pylisp
ConsCell
p5541
(dp5542
g5513
(iplugins.pylisp
Symbol
p5543
(dp5544
g5518
S'n'
p5545
sbsg5520
(iplugins.pylisp
ConsCell
p5546
(dp5547
g5513
(iplugins.pylisp
String
p5548
(dp5549
g5532
S'o'
p5550
sbsg5520
(iplugins.pylisp
Nil
p5551
(dp5552
bsbsbsbsg5520
(iplugins.pylisp
ConsCell
p5553
(dp5554
g5513
(iplugins.pylisp
String
p5555
(dp5556
g5532
g5533
sbsg5520
(iplugins.pylisp
Nil
p5557
(dp5558
bsbsbsbsbsg5520
(iplugins.pylisp
ConsCell
p5559
(dp5560
g5513
(iplugins.pylisp
String
p5561
(dp5562
g5532
S''
p5563
sbsg5520
(iplugins.pylisp
Nil
p5564
(dp5565
bsbsbsbsg5520
(iplugins.pylisp
Nil
p5566
(dp5567
bsbsbsS'parameters'
p5568
(iplugins.pylisp
ConsCell
p5569
(dp5570
g5513
(iplugins.pylisp
Symbol
p5571
(dp5572
g5518
g5545
sbsg5520
(iplugins.pylisp
Nil
p5573
(dp5574
bsbsS'env'
p5575
g0
sbs(iplugins.pylisp
Symbol
p5576
(dp5577
S'name'
p5578
S'do-twice'
p5579
sb(iplugins.pylisp
Macro
p5580
(dp5581
S'expression'
p5582
(iplugins.pylisp
ConsCell
p5583
(dp5584
S'car'
p5585
(iplugins.pylisp
Symbol
p5586
(dp5587
g5578
S'+'
p5588
sbsS'cdr'
p5589
(iplugins.pylisp
ConsCell
p5590
(dp5591
g5585
(iplugins.pylisp
Symbol
p5592
(dp5593
g5578
S'a'
p5594
sbsg5589
(iplugins.pylisp
ConsCell
p5595
(dp5596
g5585
(iplugins.pylisp
Symbol
p5597
(dp5598
g5578
g5594
sbsg5589
(iplugins.pylisp
Nil
p5599
(dp5600
bsbsbsbsS'parameters'
p5601
(iplugins.pylisp
ConsCell
p5602
(dp5603
g5585
(iplugins.pylisp
Symbol
p5604
(dp5605
g5578
g5594
sbsg5589
(iplugins.pylisp
Nil
p5606
(dp5607
bsbsS'env'
p5608
g0
sbs(iplugins.pylisp
Symbol
p5609
(dp5610
g443
S'foldr'
p5611
sb(iplugins.pylisp
Lambda
p5612
(dp5613
g447
(iplugins.pylisp
ExpressionBody
p5614
(dp5615
g450
(iplugins.pylisp
ConsCell
p5616
(dp5617
g453
(iplugins.pylisp
ConsCell
p5618
(dp5619
g453
(iplugins.pylisp
Symbol
p5620
(dp5621
g443
S'if'
p5622
sbsg459
(iplugins.pylisp
ConsCell
p5623
(dp5624
g453
(iplugins.pylisp
ConsCell
p5625
(dp5626
g453
(iplugins.pylisp
Symbol
p5627
(dp5628
g443
S'null'
p5629
sbsg459
(iplugins.pylisp
ConsCell
p5630
(dp5631
g453
(iplugins.pylisp
Symbol
p5632
(dp5633
g443
S'ls'
p5634
sbsg459
(iplugins.pylisp
Nil
p5635
(dp5636
bsbsbsg459
(iplugins.pylisp
ConsCell
p5637
(dp5638
g453
(iplugins.pylisp
ConsCell
p5639
(dp5640
g453
(iplugins.pylisp
Symbol
p5641
(dp5642
g443
S'f'
p5643
sbsg459
(iplugins.pylisp
ConsCell
p5644
(dp5645
g453
(iplugins.pylisp
Symbol
p5646
(dp5647
g443
S'id'
p5648
sbsg459
(iplugins.pylisp
Nil
p5649
(dp5650
bsbsbsg459
(iplugins.pylisp
ConsCell
p5651
(dp5652
g453
(iplugins.pylisp
ConsCell
p5653
(dp5654
g453
(iplugins.pylisp
Symbol
p5655
(dp5656
g443
g5643
sbsg459
(iplugins.pylisp
ConsCell
p5657
(dp5658
g453
(iplugins.pylisp
ConsCell
p5659
(dp5660
g453
(iplugins.pylisp
Symbol
p5661
(dp5662
g443
S'foldr'
p5663
sbsg459
(iplugins.pylisp
ConsCell
p5664
(dp5665
g453
(iplugins.pylisp
Symbol
p5666
(dp5667
g443
g5643
sbsg459
(iplugins.pylisp
ConsCell
p5668
(dp5669
g453
(iplugins.pylisp
Symbol
p5670
(dp5671
g443
S'id'
p5672
sbsg459
(iplugins.pylisp
ConsCell
p5673
(dp5674
g453
(iplugins.pylisp
ConsCell
p5675
(dp5676
g453
(iplugins.pylisp
Symbol
p5677
(dp5678
g443
S'cdr'
p5679
sbsg459
(iplugins.pylisp
ConsCell
p5680
(dp5681
g453
(iplugins.pylisp
Symbol
p5682
(dp5683
g443
S'ls'
p5684
sbsg459
(iplugins.pylisp
Nil
p5685
(dp5686
bsbsbsg459
(iplugins.pylisp
Nil
p5687
(dp5688
bsbsbsbsbsg459
(iplugins.pylisp
Nil
p5689
(dp5690
bsbsbsg459
(iplugins.pylisp
Nil
p5691
(dp5692
bsbsbsbsbsg459
(iplugins.pylisp
Nil
p5693
(dp5694
bsbsbsg575
(iplugins.pylisp
ConsCell
p5695
(dp5696
g453
(iplugins.pylisp
Symbol
p5697
(dp5698
g443
g5643
sbsg459
(iplugins.pylisp
ConsCell
p5699
(dp5700
g453
(iplugins.pylisp
Symbol
p5701
(dp5702
g443
S'id'
p5703
sbsg459
(iplugins.pylisp
ConsCell
p5704
(dp5705
g453
(iplugins.pylisp
Symbol
p5706
(dp5707
g443
S'ls'
p5708
sbsg459
(iplugins.pylisp
Nil
p5709
(dp5710
bsbsbsbsg587
g0
sbs(iplugins.pylisp
Quoted
p5711
(dp5712
g796
(iplugins.pylisp
Symbol
p5713
(dp5714
g799
g800
sbsb(iplugins.pylisp
Integer
p5715
(dp5716
g803
I2
sbs(iplugins.pylisp
Symbol
p5717
(dp5718
g108
S'pi'
p5719
sb(iplugins.pylisp
Integer
p5720
(dp5721
g5436
I4
sbs(iplugins.pylisp
Symbol
p5722
(dp5723
g108
S'hej'
p5724
sb(iplugins.pylisp
Symbol
p5725
(dp5726
g108
S'hejehej'
p5727
sbs(iplugins.pylisp
Symbol
p5728
(dp5729
S'name'
p5730
S'>'
p5731
sb(iplugins.pylisp
Lambda
p5732
(dp5733
g4641
(iplugins.pylisp
ExpressionBody
p5734
(dp5735
g4644
(iplugins.pylisp
ConsCell
p5736
(dp5737
g4647
(iplugins.pylisp
ConsCell
p5738
(dp5739
g4647
(iplugins.pylisp
Symbol
p5740
(dp5741
g886
S'not'
p5742
sbsg4653
(iplugins.pylisp
ConsCell
p5743
(dp5744
g4647
(iplugins.pylisp
ConsCell
p5745
(dp5746
g4647
(iplugins.pylisp
Symbol
p5747
(dp5748
g886
S'or'
p5749
sbsg4653
(iplugins.pylisp
ConsCell
p5750
(dp5751
g4647
(iplugins.pylisp
ConsCell
p5752
(dp5753
g4647
(iplugins.pylisp
Symbol
p5754
(dp5755
g886
S'<'
p5756
sbsg4653
(iplugins.pylisp
ConsCell
p5757
(dp5758
g4647
(iplugins.pylisp
Symbol
p5759
(dp5760
g886
g4665
sbsg4653
(iplugins.pylisp
ConsCell
p5761
(dp5762
g4647
(iplugins.pylisp
Symbol
p5763
(dp5764
g886
g4670
sbsg4653
(iplugins.pylisp
Nil
p5765
(dp5766
bsbsbsbsg4653
(iplugins.pylisp
ConsCell
p5767
(dp5768
g4647
(iplugins.pylisp
ConsCell
p5769
(dp5770
g4647
(iplugins.pylisp
Symbol
p5771
(dp5772
g886
g4679
sbsg4653
(iplugins.pylisp
ConsCell
p5773
(dp5774
g4647
(iplugins.pylisp
Symbol
p5775
(dp5776
g886
g4665
sbsg4653
(iplugins.pylisp
ConsCell
p5777
(dp5778
g4647
(iplugins.pylisp
Symbol
p5779
(dp5780
g886
g4670
sbsg4653
(iplugins.pylisp
Nil
p5781
(dp5782
bsbsbsbsg4653
(iplugins.pylisp
Nil
p5783
(dp5784
bsbsbsbsg4653
(iplugins.pylisp
Nil
p5785
(dp5786
bsbsbsg4653
(iplugins.pylisp
Nil
p5787
(dp5788
bsbsbsg4694
(iplugins.pylisp
ConsCell
p5789
(dp5790
g4647
(iplugins.pylisp
Symbol
p5791
(dp5792
g886
g4665
sbsg4653
(iplugins.pylisp
ConsCell
p5793
(dp5794
g4647
(iplugins.pylisp
Symbol
p5795
(dp5796
g886
g4670
sbsg4653
(iplugins.pylisp
Nil
p5797
(dp5798
bsbsbsg4705
g0
sbs(iplugins.pylisp
Symbol
p5799
(dp5800
S'name'
p5801
S'eyes'
p5802
sb(iplugins.pylisp
Symbol
p5803
(dp5804
g5801
S'\xe0\xb2\xa0_\xe0\xb2\xa0'
p5805
sbs(iplugins.pylisp
Symbol
p5806
(dp5807
g799
S'testing'
p5808
sb(iplugins.pylisp
Lambda
p5809
(dp5810
g988
(iplugins.pylisp
ExpressionBody
p5811
(dp5812
g991
(iplugins.pylisp
ConsCell
p5813
(dp5814
g994
(iplugins.pylisp
ConsCell
p5815
(dp5816
g994
(iplugins.pylisp
Symbol
p5817
(dp5818
g799
g999
sbsg1000
(iplugins.pylisp
ConsCell
p5819
(dp5820
g994
(iplugins.pylisp
Symbol
p5821
(dp5822
g799
g800
sbsg1000
(iplugins.pylisp
ConsCell
p5823
(dp5824
g994
(iplugins.pylisp
Integer
p5825
(dp5826
g803
I2
sbsg1000
(iplugins.pylisp
Nil
p5827
(dp5828
bsbsbsbsg1000
(iplugins.pylisp
Nil
p5829
(dp5830
bsbsbsg1013
(iplugins.pylisp
ConsCell
p5831
(dp5832
g994
(iplugins.pylisp
Symbol
p5833
(dp5834
g799
g800
sbsg1000
(iplugins.pylisp
Nil
p5835
(dp5836
bsbsg1020
g0
sbs(iplugins.pylisp
Symbol
p5837
(dp5838
g868
S'nom-mat-mat-mat'
p5839
sb(iplugins.pylisp
Lambda
p5840
(dp5841
g857
(iplugins.pylisp
ExpressionBody
p5842
(dp5843
g860
(iplugins.pylisp
ConsCell
p5844
(dp5845
g863
(iplugins.pylisp
ConsCell
p5846
(dp5847
g863
(iplugins.pylisp
Symbol
p5848
(dp5849
g868
S'nom-mat-n'
p5850
sbsg870
(iplugins.pylisp
ConsCell
p5851
(dp5852
g863
(iplugins.pylisp
Integer
p5853
(dp5854
g875
I3
sbsg870
(iplugins.pylisp
Nil
p5855
(dp5856
bsbsbsg870
(iplugins.pylisp
Nil
p5857
(dp5858
bsbsbsg880
(iplugins.pylisp
Nil
p5859
(dp5860
bsg883
g0
sbs(iplugins.pylisp
Symbol
p5861
(dp5862
g3059
S'rlen'
p5863
sb(iplugins.pylisp
Lambda
p5864
(dp5865
g3063
(iplugins.pylisp
ExpressionBody
p5866
(dp5867
g3066
(iplugins.pylisp
ConsCell
p5868
(dp5869
g3069
(iplugins.pylisp
ConsCell
p5870
(dp5871
g3069
(iplugins.pylisp
Symbol
p5872
(dp5873
g3059
S'if'
p5874
sbsg3075
(iplugins.pylisp
ConsCell
p5875
(dp5876
g3069
(iplugins.pylisp
ConsCell
p5877
(dp5878
g3069
(iplugins.pylisp
Symbol
p5879
(dp5880
g3059
S'endp'
p5881
sbsg3075
(iplugins.pylisp
ConsCell
p5882
(dp5883
g3069
(iplugins.pylisp
Symbol
p5884
(dp5885
g3059
S'li'
p5886
sbsg3075
(iplugins.pylisp
Nil
p5887
(dp5888
bsbsbsg3075
(iplugins.pylisp
ConsCell
p5889
(dp5890
g3069
(iplugins.pylisp
Integer
p5891
(dp5892
g3080
I0
sbsg3075
(iplugins.pylisp
ConsCell
p5893
(dp5894
g3069
(iplugins.pylisp
ConsCell
p5895
(dp5896
g3069
(iplugins.pylisp
Symbol
p5897
(dp5898
g3059
S'if'
p5899
sbsg3075
(iplugins.pylisp
ConsCell
p5900
(dp5901
g3069
(iplugins.pylisp
ConsCell
p5902
(dp5903
g3069
(iplugins.pylisp
Symbol
p5904
(dp5905
g3059
S'='
p5906
sbsg3075
(iplugins.pylisp
ConsCell
p5907
(dp5908
g3069
(iplugins.pylisp
Symbol
p5909
(dp5910
g3059
S'n'
p5911
sbsg3075
(iplugins.pylisp
ConsCell
p5912
(dp5913
g3069
(iplugins.pylisp
Integer
p5914
(dp5915
g3080
I8
sbsg3075
(iplugins.pylisp
Nil
p5916
(dp5917
bsbsbsbsg3075
(iplugins.pylisp
ConsCell
p5918
(dp5919
g3069
(iplugins.pylisp
ConsCell
p5920
(dp5921
g3069
(iplugins.pylisp
Symbol
p5922
(dp5923
g3059
S'cons'
p5924
sbsg3075
(iplugins.pylisp
ConsCell
p5925
(dp5926
g3069
(iplugins.pylisp
Integer
p5927
(dp5928
g3080
I0
sbsg3075
(iplugins.pylisp
ConsCell
p5929
(dp5930
g3069
(iplugins.pylisp
Symbol
p5931
(dp5932
g3059
S'li'
p5933
sbsg3075
(iplugins.pylisp
Nil
p5934
(dp5935
bsbsbsbsg3075
(iplugins.pylisp
ConsCell
p5936
(dp5937
g3069
(iplugins.pylisp
ConsCell
p5938
(dp5939
g3069
(iplugins.pylisp
Symbol
p5940
(dp5941
g3059
S'let'
p5942
sbsg3075
(iplugins.pylisp
ConsCell
p5943
(dp5944
g3069
(iplugins.pylisp
ConsCell
p5945
(dp5946
g3069
(iplugins.pylisp
ConsCell
p5947
(dp5948
g3069
(iplugins.pylisp
Symbol
p5949
(dp5950
g3059
S'res'
p5951
sbsg3075
(iplugins.pylisp
ConsCell
p5952
(dp5953
g3069
(iplugins.pylisp
ConsCell
p5954
(dp5955
g3069
(iplugins.pylisp
Symbol
p5956
(dp5957
g3059
S'rlen'
p5958
sbsg3075
(iplugins.pylisp
ConsCell
p5959
(dp5960
g3069
(iplugins.pylisp
ConsCell
p5961
(dp5962
g3069
(iplugins.pylisp
Symbol
p5963
(dp5964
g3059
S'rest'
p5965
sbsg3075
(iplugins.pylisp
ConsCell
p5966
(dp5967
g3069
(iplugins.pylisp
Symbol
p5968
(dp5969
g3059
S'li'
p5970
sbsg3075
(iplugins.pylisp
Nil
p5971
(dp5972
bsbsbsg3075
(iplugins.pylisp
ConsCell
p5973
(dp5974
g3069
(iplugins.pylisp
ConsCell
p5975
(dp5976
g3069
(iplugins.pylisp
Symbol
p5977
(dp5978
g3059
S'+'
p5979
sbsg3075
(iplugins.pylisp
ConsCell
p5980
(dp5981
g3069
(iplugins.pylisp
Symbol
p5982
(dp5983
g3059
g5911
sbsg3075
(iplugins.pylisp
ConsCell
p5984
(dp5985
g3069
(iplugins.pylisp
Integer
p5986
(dp5987
g3080
I1
sbsg3075
(iplugins.pylisp
Nil
p5988
(dp5989
bsbsbsbsg3075
(iplugins.pylisp
Nil
p5990
(dp5991
bsbsbsbsg3075
(iplugins.pylisp
Nil
p5992
(dp5993
bsbsbsg3075
(iplugins.pylisp
Nil
p5994
(dp5995
bsbsg3075
(iplugins.pylisp
ConsCell
p5996
(dp5997
g3069
(iplugins.pylisp
ConsCell
p5998
(dp5999
g3069
(iplugins.pylisp
Symbol
p6000
(dp6001
g3059
S'if'
p6002
sbsg3075
(iplugins.pylisp
ConsCell
p6003
(dp6004
g3069
(iplugins.pylisp
ConsCell
p6005
(dp6006
g3069
(iplugins.pylisp
Symbol
p6007
(dp6008
g3059
S'listp'
p6009
sbsg3075
(iplugins.pylisp
ConsCell
p6010
(dp6011
g3069
(iplugins.pylisp
Symbol
p6012
(dp6013
g3059
S'res'
p6014
sbsg3075
(iplugins.pylisp
Nil
p6015
(dp6016
bsbsbsg3075
(iplugins.pylisp
ConsCell
p6017
(dp6018
g3069
(iplugins.pylisp
ConsCell
p6019
(dp6020
g3069
(iplugins.pylisp
Symbol
p6021
(dp6022
g3059
S'cons'
p6023
sbsg3075
(iplugins.pylisp
ConsCell
p6024
(dp6025
g3069
(iplugins.pylisp
ConsCell
p6026
(dp6027
g3069
(iplugins.pylisp
Symbol
p6028
(dp6029
g3059
g5979
sbsg3075
(iplugins.pylisp
ConsCell
p6030
(dp6031
g3069
(iplugins.pylisp
ConsCell
p6032
(dp6033
g3069
(iplugins.pylisp
Symbol
p6034
(dp6035
g3059
S'car'
p6036
sbsg3075
(iplugins.pylisp
ConsCell
p6037
(dp6038
g3069
(iplugins.pylisp
Symbol
p6039
(dp6040
g3059
S'res'
p6041
sbsg3075
(iplugins.pylisp
Nil
p6042
(dp6043
bsbsbsg3075
(iplugins.pylisp
ConsCell
p6044
(dp6045
g3069
(iplugins.pylisp
Integer
p6046
(dp6047
g3080
I1
sbsg3075
(iplugins.pylisp
Nil
p6048
(dp6049
bsbsbsbsg3075
(iplugins.pylisp
ConsCell
p6050
(dp6051
g3069
(iplugins.pylisp
ConsCell
p6052
(dp6053
g3069
(iplugins.pylisp
Symbol
p6054
(dp6055
g3059
S'cdr'
p6056
sbsg3075
(iplugins.pylisp
ConsCell
p6057
(dp6058
g3069
(iplugins.pylisp
Symbol
p6059
(dp6060
g3059
S'res'
p6061
sbsg3075
(iplugins.pylisp
Nil
p6062
(dp6063
bsbsbsg3075
(iplugins.pylisp
Nil
p6064
(dp6065
bsbsbsbsg3075
(iplugins.pylisp
ConsCell
p6066
(dp6067
g3069
(iplugins.pylisp
ConsCell
p6068
(dp6069
g3069
(iplugins.pylisp
Symbol
p6070
(dp6071
g3059
g5979
sbsg3075
(iplugins.pylisp
ConsCell
p6072
(dp6073
g3069
(iplugins.pylisp
Symbol
p6074
(dp6075
g3059
S'res'
p6076
sbsg3075
(iplugins.pylisp
ConsCell
p6077
(dp6078
g3069
(iplugins.pylisp
Integer
p6079
(dp6080
g3080
I1
sbsg3075
(iplugins.pylisp
Nil
p6081
(dp6082
bsbsbsbsg3075
(iplugins.pylisp
Nil
p6083
(dp6084
bsbsbsbsbsg3075
(iplugins.pylisp
Nil
p6085
(dp6086
bsbsbsbsg3075
(iplugins.pylisp
Nil
p6087
(dp6088
bsbsbsbsbsg3075
(iplugins.pylisp
Nil
p6089
(dp6090
bsbsbsbsbsg3075
(iplugins.pylisp
Nil
p6091
(dp6092
bsbsbsg3118
(iplugins.pylisp
ConsCell
p6093
(dp6094
g3069
(iplugins.pylisp
Symbol
p6095
(dp6096
g3059
S'li'
p6097
sbsg3075
(iplugins.pylisp
ConsCell
p6098
(dp6099
g3069
(iplugins.pylisp
Symbol
p6100
(dp6101
g3059
g5911
sbsg3075
(iplugins.pylisp
Nil
p6102
(dp6103
bsbsbsg3121
g0
sbs(iplugins.pylisp
Symbol
p6104
(dp6105
g1695
S'xvid700MB'
p6106
sb(iplugins.pylisp
Integer
p6107
(dp6108
g1942
I42
sbs(iplugins.pylisp
Symbol
p6109
(dp6110
g3904
S'is-prime-helper'
p6111
sb(iplugins.pylisp
Lambda
p6112
(dp6113
g3908
(iplugins.pylisp
ExpressionBody
p6114
(dp6115
g3911
(iplugins.pylisp
ConsCell
p6116
(dp6117
g3914
(iplugins.pylisp
ConsCell
p6118
(dp6119
g3914
(iplugins.pylisp
Symbol
p6120
(dp6121
g3904
S'if'
p6122
sbsg3920
(iplugins.pylisp
ConsCell
p6123
(dp6124
g3914
(iplugins.pylisp
ConsCell
p6125
(dp6126
g3914
(iplugins.pylisp
Symbol
p6127
(dp6128
g3904
S'>'
p6129
sbsg3920
(iplugins.pylisp
ConsCell
p6130
(dp6131
g3914
(iplugins.pylisp
ConsCell
p6132
(dp6133
g3914
(iplugins.pylisp
Symbol
p6134
(dp6135
g3904
S'*'
p6136
sbsg3920
(iplugins.pylisp
ConsCell
p6137
(dp6138
g3914
(iplugins.pylisp
Symbol
p6139
(dp6140
g3904
S'test-d'
p6141
sbsg3920
(iplugins.pylisp
ConsCell
p6142
(dp6143
g3914
(iplugins.pylisp
Symbol
p6144
(dp6145
g3904
S'test-d'
p6146
sbsg3920
(iplugins.pylisp
Nil
p6147
(dp6148
bsbsbsbsg3920
(iplugins.pylisp
ConsCell
p6149
(dp6150
g3914
(iplugins.pylisp
Symbol
p6151
(dp6152
g3904
S'n'
p6153
sbsg3920
(iplugins.pylisp
Nil
p6154
(dp6155
bsbsbsbsg3920
(iplugins.pylisp
ConsCell
p6156
(dp6157
g3914
(iplugins.pylisp
Symbol
p6158
(dp6159
g3904
S't'
p6160
sbsg3920
(iplugins.pylisp
ConsCell
p6161
(dp6162
g3914
(iplugins.pylisp
ConsCell
p6163
(dp6164
g3914
(iplugins.pylisp
Symbol
p6165
(dp6166
g3904
S'if'
p6167
sbsg3920
(iplugins.pylisp
ConsCell
p6168
(dp6169
g3914
(iplugins.pylisp
ConsCell
p6170
(dp6171
g3914
(iplugins.pylisp
Symbol
p6172
(dp6173
g3904
S'divides'
p6174
sbsg3920
(iplugins.pylisp
ConsCell
p6175
(dp6176
g3914
(iplugins.pylisp
Symbol
p6177
(dp6178
g3904
S'test-d'
p6179
sbsg3920
(iplugins.pylisp
ConsCell
p6180
(dp6181
g3914
(iplugins.pylisp
Symbol
p6182
(dp6183
g3904
g6153
sbsg3920
(iplugins.pylisp
Nil
p6184
(dp6185
bsbsbsbsg3920
(iplugins.pylisp
ConsCell
p6186
(dp6187
g3914
(iplugins.pylisp
Symbol
p6188
(dp6189
g3904
S'nil'
p6190
sbsg3920
(iplugins.pylisp
ConsCell
p6191
(dp6192
g3914
(iplugins.pylisp
ConsCell
p6193
(dp6194
g3914
(iplugins.pylisp
Symbol
p6195
(dp6196
g3904
S'is-prime-helper'
p6197
sbsg3920
(iplugins.pylisp
ConsCell
p6198
(dp6199
g3914
(iplugins.pylisp
Symbol
p6200
(dp6201
g3904
g6153
sbsg3920
(iplugins.pylisp
ConsCell
p6202
(dp6203
g3914
(iplugins.pylisp
ConsCell
p6204
(dp6205
g3914
(iplugins.pylisp
Symbol
p6206
(dp6207
g3904
S'inc'
p6208
sbsg3920
(iplugins.pylisp
ConsCell
p6209
(dp6210
g3914
(iplugins.pylisp
Symbol
p6211
(dp6212
g3904
S'test-d'
p6213
sbsg3920
(iplugins.pylisp
Nil
p6214
(dp6215
bsbsbsg3920
(iplugins.pylisp
Nil
p6216
(dp6217
bsbsbsbsg3920
(iplugins.pylisp
Nil
p6218
(dp6219
bsbsbsbsbsg3920
(iplugins.pylisp
Nil
p6220
(dp6221
bsbsbsbsbsg3920
(iplugins.pylisp
Nil
p6222
(dp6223
bsbsbsg4002
(iplugins.pylisp
ConsCell
p6224
(dp6225
g3914
(iplugins.pylisp
Symbol
p6226
(dp6227
g3904
g6153
sbsg3920
(iplugins.pylisp
ConsCell
p6228
(dp6229
g3914
(iplugins.pylisp
Symbol
p6230
(dp6231
g3904
S'test-d'
p6232
sbsg3920
(iplugins.pylisp
Nil
p6233
(dp6234
bsbsbsg4009
g0
sbs(iplugins.pylisp
Symbol
p6235
(dp6236
g3253
S'rand-func'
p6237
sb(iplugins.pylisp
Lambda
p6238
(dp6239
g3242
(iplugins.pylisp
ExpressionBody
p6240
(dp6241
g3245
(iplugins.pylisp
ConsCell
p6242
(dp6243
g3248
(iplugins.pylisp
ConsCell
p6244
(dp6245
g3248
(iplugins.pylisp
Symbol
p6246
(dp6247
g3253
S'let'
p6248
sbsg3255
(iplugins.pylisp
ConsCell
p6249
(dp6250
g3248
(iplugins.pylisp
ConsCell
p6251
(dp6252
g3248
(iplugins.pylisp
ConsCell
p6253
(dp6254
g3248
(iplugins.pylisp
Symbol
p6255
(dp6256
g3253
S'functions'
p6257
sbsg3255
(iplugins.pylisp
ConsCell
p6258
(dp6259
g3248
(iplugins.pylisp
ConsCell
p6260
(dp6261
g3248
(iplugins.pylisp
Symbol
p6262
(dp6263
g3253
S'list'
p6264
sbsg3255
(iplugins.pylisp
ConsCell
p6265
(dp6266
g3248
(iplugins.pylisp
Symbol
p6267
(dp6268
g3253
S'+'
p6269
sbsg3255
(iplugins.pylisp
ConsCell
p6270
(dp6271
g3248
(iplugins.pylisp
Symbol
p6272
(dp6273
g3253
S'dxrandom'
p6274
sbsg3255
(iplugins.pylisp
ConsCell
p6275
(dp6276
g3248
(iplugins.pylisp
Symbol
p6277
(dp6278
g3253
S'nsfw'
p6279
sbsg3255
(iplugins.pylisp
Nil
p6280
(dp6281
bsbsbsbsbsg3255
(iplugins.pylisp
Nil
p6282
(dp6283
bsbsbsg3255
(iplugins.pylisp
Nil
p6284
(dp6285
bsbsg3255
(iplugins.pylisp
ConsCell
p6286
(dp6287
g3248
(iplugins.pylisp
ConsCell
p6288
(dp6289
g3248
(iplugins.pylisp
Symbol
p6290
(dp6291
g3253
S'nth'
p6292
sbsg3255
(iplugins.pylisp
ConsCell
p6293
(dp6294
g3248
(iplugins.pylisp
ConsCell
p6295
(dp6296
g3248
(iplugins.pylisp
Symbol
p6297
(dp6298
g3253
S'rand'
p6299
sbsg3255
(iplugins.pylisp
ConsCell
p6300
(dp6301
g3248
(iplugins.pylisp
ConsCell
p6302
(dp6303
g3248
(iplugins.pylisp
Symbol
p6304
(dp6305
g3253
S'length'
p6306
sbsg3255
(iplugins.pylisp
ConsCell
p6307
(dp6308
g3248
(iplugins.pylisp
Symbol
p6309
(dp6310
g3253
S'functions'
p6311
sbsg3255
(iplugins.pylisp
Nil
p6312
(dp6313
bsbsbsg3255
(iplugins.pylisp
Nil
p6314
(dp6315
bsbsbsg3255
(iplugins.pylisp
ConsCell
p6316
(dp6317
g3248
(iplugins.pylisp
Symbol
p6318
(dp6319
g3253
S'functions'
p6320
sbsg3255
(iplugins.pylisp
Nil
p6321
(dp6322
bsbsbsbsg3255
(iplugins.pylisp
Nil
p6323
(dp6324
bsbsbsbsg3255
(iplugins.pylisp
Nil
p6325
(dp6326
bsbsbsg3332
(iplugins.pylisp
Nil
p6327
(dp6328
bsg3343
g0
sbs(iplugins.pylisp
Symbol
p6329
(dp6330
g3904
S'is-prime'
p6331
sb(iplugins.pylisp
Lambda
p6332
(dp6333
g3908
(iplugins.pylisp
ExpressionBody
p6334
(dp6335
g3911
(iplugins.pylisp
ConsCell
p6336
(dp6337
g3914
(iplugins.pylisp
ConsCell
p6338
(dp6339
g3914
(iplugins.pylisp
Symbol
p6340
(dp6341
g3904
S'if'
p6342
sbsg3920
(iplugins.pylisp
ConsCell
p6343
(dp6344
g3914
(iplugins.pylisp
ConsCell
p6345
(dp6346
g3914
(iplugins.pylisp
Symbol
p6347
(dp6348
g3904
S'<'
p6349
sbsg3920
(iplugins.pylisp
ConsCell
p6350
(dp6351
g3914
(iplugins.pylisp
Symbol
p6352
(dp6353
g3904
g6153
sbsg3920
(iplugins.pylisp
ConsCell
p6354
(dp6355
g3914
(iplugins.pylisp
Integer
p6356
(dp6357
S'value'
p6358
I2
sbsg3920
(iplugins.pylisp
Nil
p6359
(dp6360
bsbsbsbsg3920
(iplugins.pylisp
ConsCell
p6361
(dp6362
g3914
(iplugins.pylisp
Symbol
p6363
(dp6364
g3904
S'nil'
p6365
sbsg3920
(iplugins.pylisp
ConsCell
p6366
(dp6367
g3914
(iplugins.pylisp
ConsCell
p6368
(dp6369
g3914
(iplugins.pylisp
Symbol
p6370
(dp6371
g3904
S'is-prime-helper'
p6372
sbsg3920
(iplugins.pylisp
ConsCell
p6373
(dp6374
g3914
(iplugins.pylisp
Symbol
p6375
(dp6376
g3904
g6153
sbsg3920
(iplugins.pylisp
ConsCell
p6377
(dp6378
g3914
(iplugins.pylisp
Integer
p6379
(dp6380
g6358
I2
sbsg3920
(iplugins.pylisp
Nil
p6381
(dp6382
bsbsbsbsg3920
(iplugins.pylisp
Nil
p6383
(dp6384
bsbsbsbsbsg3920
(iplugins.pylisp
Nil
p6385
(dp6386
bsbsbsg4002
(iplugins.pylisp
ConsCell
p6387
(dp6388
g3914
(iplugins.pylisp
Symbol
p6389
(dp6390
g3904
g6153
sbsg3920
(iplugins.pylisp
Nil
p6391
(dp6392
bsbsg4009
g0
sbs(iplugins.pylisp
Symbol
p6393
(dp6394
g1653
S'favtitle'
p6395
sb(iplugins.pylisp
Lambda
p6396
(dp6397
g1657
(iplugins.pylisp
ExpressionBody
p6398
(dp6399
g1660
(iplugins.pylisp
ConsCell
p6400
(dp6401
g1663
(iplugins.pylisp
ConsCell
p6402
(dp6403
g1663
(iplugins.pylisp
Symbol
p6404
(dp6405
g1653
S'command'
p6406
sbsg1669
(iplugins.pylisp
ConsCell
p6407
(dp6408
g1663
(iplugins.pylisp
String
p6409
(dp6410
g1674
S'title'
p6411
sbsg1669
(iplugins.pylisp
ConsCell
p6412
(dp6413
g1663
(iplugins.pylisp
ConsCell
p6414
(dp6415
g1663
(iplugins.pylisp
Symbol
p6416
(dp6417
g1653
S'command'
p6418
sbsg1669
(iplugins.pylisp
ConsCell
p6419
(dp6420
g1663
(iplugins.pylisp
Symbol
p6421
(dp6422
g1653
S'name'
p6423
sbsg1669
(iplugins.pylisp
ConsCell
p6424
(dp6425
g1663
(iplugins.pylisp
String
p6426
(dp6427
g1674
S'lispnik'
p6428
sbsg1669
(iplugins.pylisp
Nil
p6429
(dp6430
bsbsbsbsg1669
(iplugins.pylisp
Nil
p6431
(dp6432
bsbsbsbsg1669
(iplugins.pylisp
Nil
p6433
(dp6434
bsbsbsg1685
(iplugins.pylisp
ConsCell
p6435
(dp6436
g1663
(iplugins.pylisp
Symbol
p6437
(dp6438
g1653
S'name'
p6439
sbsg1669
(iplugins.pylisp
Nil
p6440
(dp6441
bsbsg1692
g0
sbs(iplugins.pylisp
Symbol
p6442
(dp6443
S'name'
p6444
S'\xc2\xa0'
p6445
sb(iplugins.pylisp
Lambda
p6446
(dp6447
S'expression'
p6448
(iplugins.pylisp
ExpressionBody
p6449
(dp6450
S'expressions'
p6451
(iplugins.pylisp
ConsCell
p6452
(dp6453
S'car'
p6454
(iplugins.pylisp
Symbol
p6455
(dp6456
g6444
S'boobs'
p6457
sbsS'cdr'
p6458
(iplugins.pylisp
Nil
p6459
(dp6460
bsbsbsS'parameters'
p6461
(iplugins.pylisp
Nil
p6462
(dp6463
bsS'env'
p6464
g0
sbs(iplugins.pylisp
Symbol
p6465
(dp6466
g420
S'cadadr'
p6467
sb(iplugins.pylisp
Lambda
p6468
(dp6469
g1705
(iplugins.pylisp
ExpressionBody
p6470
(dp6471
g1708
(iplugins.pylisp
ConsCell
p6472
(dp6473
g424
(iplugins.pylisp
ConsCell
p6474
(dp6475
g424
(iplugins.pylisp
Symbol
p6476
(dp6477
g420
S'car'
p6478
sbsg428
(iplugins.pylisp
ConsCell
p6479
(dp6480
g424
(iplugins.pylisp
ConsCell
p6481
(dp6482
g424
(iplugins.pylisp
Symbol
p6483
(dp6484
g420
S'cdr'
p6485
sbsg428
(iplugins.pylisp
ConsCell
p6486
(dp6487
g424
(iplugins.pylisp
ConsCell
p6488
(dp6489
g424
(iplugins.pylisp
Symbol
p6490
(dp6491
g420
S'car'
p6492
sbsg428
(iplugins.pylisp
ConsCell
p6493
(dp6494
g424
(iplugins.pylisp
ConsCell
p6495
(dp6496
g424
(iplugins.pylisp
Symbol
p6497
(dp6498
g420
S'cdr'
p6499
sbsg428
(iplugins.pylisp
ConsCell
p6500
(dp6501
g424
(iplugins.pylisp
Symbol
p6502
(dp6503
g420
g2176
sbsg428
(iplugins.pylisp
Nil
p6504
(dp6505
bsbsbsg428
(iplugins.pylisp
Nil
p6506
(dp6507
bsbsbsg428
(iplugins.pylisp
Nil
p6508
(dp6509
bsbsbsg428
(iplugins.pylisp
Nil
p6510
(dp6511
bsbsbsg428
(iplugins.pylisp
Nil
p6512
(dp6513
bsbsbsg1725
(iplugins.pylisp
ConsCell
p6514
(dp6515
g424
(iplugins.pylisp
Symbol
p6516
(dp6517
g420
g2176
sbsg428
(iplugins.pylisp
Nil
p6518
(dp6519
bsbsg1728
g0
sbs(iplugins.pylisp
Symbol
p6520
(dp6521
g4898
S'f'
p6522
sb(iplugins.pylisp
Lambda
p6523
(dp6524
S'expression'
p6525
(iplugins.pylisp
ExpressionBody
p6526
(dp6527
S'expressions'
p6528
(iplugins.pylisp
ConsCell
p6529
(dp6530
S'car'
p6531
(iplugins.pylisp
ConsCell
p6532
(dp6533
g6531
(iplugins.pylisp
Symbol
p6534
(dp6535
g4898
g6522
sbsS'cdr'
p6536
(iplugins.pylisp
Nil
p6537
(dp6538
bsbsg6536
(iplugins.pylisp
Nil
p6539
(dp6540
bsbsbsS'parameters'
p6541
(iplugins.pylisp
Nil
p6542
(dp6543
bsS'env'
p6544
g0
sbs(iplugins.pylisp
Symbol
p6545
(dp6546
g1653
S'dxtitle'
p6547
sb(iplugins.pylisp
Lambda
p6548
(dp6549
g10
(iplugins.pylisp
ExpressionBody
p6550
(dp6551
g13
(iplugins.pylisp
ConsCell
p6552
(dp6553
g16
(iplugins.pylisp
ConsCell
p6554
(dp6555
g16
(iplugins.pylisp
Symbol
p6556
(dp6557
g6
S'let'
p6558
sbsg22
(iplugins.pylisp
ConsCell
p6559
(dp6560
g16
(iplugins.pylisp
ConsCell
p6561
(dp6562
g16
(iplugins.pylisp
ConsCell
p6563
(dp6564
g16
(iplugins.pylisp
Symbol
p6565
(dp6566
g6
S'url'
p6567
sbsg22
(iplugins.pylisp
ConsCell
p6568
(dp6569
g16
(iplugins.pylisp
ConsCell
p6570
(dp6571
g16
(iplugins.pylisp
Symbol
p6572
(dp6573
g6
S'command'
p6574
sbsg22
(iplugins.pylisp
ConsCell
p6575
(dp6576
g16
(iplugins.pylisp
String
p6577
(dp6578
g39
S'dx'
p6579
sbsg22
(iplugins.pylisp
ConsCell
p6580
(dp6581
g16
(iplugins.pylisp
ConsCell
p6582
(dp6583
g16
(iplugins.pylisp
Symbol
p6584
(dp6585
g6
S'string'
p6586
sbsg22
(iplugins.pylisp
ConsCell
p6587
(dp6588
g16
(iplugins.pylisp
Symbol
p6589
(dp6590
g6
S'sku'
p6591
sbsg22
(iplugins.pylisp
Nil
p6592
(dp6593
bsbsbsg22
(iplugins.pylisp
Nil
p6594
(dp6595
bsbsbsbsg22
(iplugins.pylisp
Nil
p6596
(dp6597
bsbsbsg22
(iplugins.pylisp
Nil
p6598
(dp6599
bsbsg22
(iplugins.pylisp
ConsCell
p6600
(dp6601
g16
(iplugins.pylisp
ConsCell
p6602
(dp6603
g16
(iplugins.pylisp
Symbol
p6604
(dp6605
g6
S'str-join'
p6606
sbsg22
(iplugins.pylisp
ConsCell
p6607
(dp6608
g16
(iplugins.pylisp
ConsCell
p6609
(dp6610
g16
(iplugins.pylisp
Symbol
p6611
(dp6612
g6
S'list'
p6613
sbsg22
(iplugins.pylisp
ConsCell
p6614
(dp6615
g16
(iplugins.pylisp
ConsCell
p6616
(dp6617
g16
(iplugins.pylisp
Symbol
p6618
(dp6619
g6
S'command'
p6620
sbsg22
(iplugins.pylisp
ConsCell
p6621
(dp6622
g16
(iplugins.pylisp
String
p6623
(dp6624
g39
S'title'
p6625
sbsg22
(iplugins.pylisp
ConsCell
p6626
(dp6627
g16
(iplugins.pylisp
Symbol
p6628
(dp6629
g6
S'url'
p6630
sbsg22
(iplugins.pylisp
Nil
p6631
(dp6632
bsbsbsbsg22
(iplugins.pylisp
ConsCell
p6633
(dp6634
g16
(iplugins.pylisp
Symbol
p6635
(dp6636
g6
S'url'
p6637
sbsg22
(iplugins.pylisp
Nil
p6638
(dp6639
bsbsbsbsg22
(iplugins.pylisp
ConsCell
p6640
(dp6641
g16
(iplugins.pylisp
String
p6642
(dp6643
g39
S' @ '
p6644
sbsg22
(iplugins.pylisp
Nil
p6645
(dp6646
bsbsbsbsg22
(iplugins.pylisp
Nil
p6647
(dp6648
bsbsbsbsg22
(iplugins.pylisp
Nil
p6649
(dp6650
bsbsbsg94
(iplugins.pylisp
ConsCell
p6651
(dp6652
g16
(iplugins.pylisp
Symbol
p6653
(dp6654
g6
S'sku'
p6655
sbsg22
(iplugins.pylisp
Nil
p6656
(dp6657
bsbsg105
g0
sbs(iplugins.pylisp
Symbol
p6658
(dp6659
g114
S'botnik'
p6660
sb(iplugins.pylisp
Symbol
p6661
(dp6662
g114
S'+kaffe'
p6663
sbs(iplugins.pylisp
Symbol
p6664
(dp6665
g114
S'potensmangd'
p6666
sb(iplugins.pylisp
Lambda
p6667
(dp6668
g118
(iplugins.pylisp
ExpressionBody
p6669
(dp6670
g121
(iplugins.pylisp
ConsCell
p6671
(dp6672
g124
(iplugins.pylisp
ConsCell
p6673
(dp6674
g124
(iplugins.pylisp
Symbol
p6675
(dp6676
g114
S'if'
p6677
sbsg130
(iplugins.pylisp
ConsCell
p6678
(dp6679
g124
(iplugins.pylisp
ConsCell
p6680
(dp6681
g124
(iplugins.pylisp
Symbol
p6682
(dp6683
g114
S'endp'
p6684
sbsg130
(iplugins.pylisp
ConsCell
p6685
(dp6686
g124
(iplugins.pylisp
Symbol
p6687
(dp6688
g114
g142
sbsg130
(iplugins.pylisp
Nil
p6689
(dp6690
bsbsbsg130
(iplugins.pylisp
ConsCell
p6691
(dp6692
g124
(iplugins.pylisp
Quoted
p6693
(dp6694
g149
(iplugins.pylisp
ConsCell
p6695
(dp6696
g124
(iplugins.pylisp
Nil
p6697
(dp6698
bsg130
(iplugins.pylisp
Nil
p6699
(dp6700
bsbsbsg130
(iplugins.pylisp
ConsCell
p6701
(dp6702
g124
(iplugins.pylisp
ConsCell
p6703
(dp6704
g124
(iplugins.pylisp
Symbol
p6705
(dp6706
g114
S'let'
p6707
sbsg130
(iplugins.pylisp
ConsCell
p6708
(dp6709
g124
(iplugins.pylisp
ConsCell
p6710
(dp6711
g124
(iplugins.pylisp
ConsCell
p6712
(dp6713
g124
(iplugins.pylisp
Symbol
p6714
(dp6715
g114
S'res'
p6716
sbsg130
(iplugins.pylisp
ConsCell
p6717
(dp6718
g124
(iplugins.pylisp
ConsCell
p6719
(dp6720
g124
(iplugins.pylisp
Symbol
p6721
(dp6722
g114
S'potensmangd'
p6723
sbsg130
(iplugins.pylisp
ConsCell
p6724
(dp6725
g124
(iplugins.pylisp
ConsCell
p6726
(dp6727
g124
(iplugins.pylisp
Symbol
p6728
(dp6729
g114
S'rest'
p6730
sbsg130
(iplugins.pylisp
ConsCell
p6731
(dp6732
g124
(iplugins.pylisp
Symbol
p6733
(dp6734
g114
g142
sbsg130
(iplugins.pylisp
Nil
p6735
(dp6736
bsbsbsg130
(iplugins.pylisp
Nil
p6737
(dp6738
bsbsbsg130
(iplugins.pylisp
Nil
p6739
(dp6740
bsbsbsg130
(iplugins.pylisp
Nil
p6741
(dp6742
bsbsg130
(iplugins.pylisp
ConsCell
p6743
(dp6744
g124
(iplugins.pylisp
ConsCell
p6745
(dp6746
g124
(iplugins.pylisp
Symbol
p6747
(dp6748
g114
S'randmerge'
p6749
sbsg130
(iplugins.pylisp
ConsCell
p6750
(dp6751
g124
(iplugins.pylisp
Symbol
p6752
(dp6753
g114
S'res'
p6754
sbsg130
(iplugins.pylisp
ConsCell
p6755
(dp6756
g124
(iplugins.pylisp
ConsCell
p6757
(dp6758
g124
(iplugins.pylisp
Symbol
p6759
(dp6760
g114
S'recurcons'
p6761
sbsg130
(iplugins.pylisp
ConsCell
p6762
(dp6763
g124
(iplugins.pylisp
ConsCell
p6764
(dp6765
g124
(iplugins.pylisp
Symbol
p6766
(dp6767
g114
S'first'
p6768
sbsg130
(iplugins.pylisp
ConsCell
p6769
(dp6770
g124
(iplugins.pylisp
Symbol
p6771
(dp6772
g114
g142
sbsg130
(iplugins.pylisp
Nil
p6773
(dp6774
bsbsbsg130
(iplugins.pylisp
ConsCell
p6775
(dp6776
g124
(iplugins.pylisp
Symbol
p6777
(dp6778
g114
S'res'
p6779
sbsg130
(iplugins.pylisp
Nil
p6780
(dp6781
bsbsbsbsg130
(iplugins.pylisp
Nil
p6782
(dp6783
bsbsbsbsg130
(iplugins.pylisp
Nil
p6784
(dp6785
bsbsbsbsg130
(iplugins.pylisp
Nil
p6786
(dp6787
bsbsbsbsbsg130
(iplugins.pylisp
Nil
p6788
(dp6789
bsbsbsg218
(iplugins.pylisp
ConsCell
p6790
(dp6791
g124
(iplugins.pylisp
Symbol
p6792
(dp6793
g114
g142
sbsg130
(iplugins.pylisp
Nil
p6794
(dp6795
bsbsg229
g0
sbs(iplugins.pylisp
Symbol
p6796
(dp6797
g6
S'kukern'
p6798
sb(iplugins.pylisp
Lambda
p6799
(dp6800
g10
(iplugins.pylisp
ExpressionBody
p6801
(dp6802
g13
(iplugins.pylisp
ConsCell
p6803
(dp6804
g16
(iplugins.pylisp
ConsCell
p6805
(dp6806
g16
(iplugins.pylisp
Symbol
p6807
(dp6808
g6
S'helpkuk'
p6809
sbsg22
(iplugins.pylisp
ConsCell
p6810
(dp6811
g16
(iplugins.pylisp
Symbol
p6812
(dp6813
g6
g34
sbsg22
(iplugins.pylisp
ConsCell
p6814
(dp6815
g16
(iplugins.pylisp
String
p6816
(dp6817
g39
S'D'
p6818
sbsg22
(iplugins.pylisp
Nil
p6819
(dp6820
bsbsbsbsg22
(iplugins.pylisp
Nil
p6821
(dp6822
bsbsbsg94
(iplugins.pylisp
ConsCell
p6823
(dp6824
g16
(iplugins.pylisp
Symbol
p6825
(dp6826
g6
g34
sbsg22
(iplugins.pylisp
Nil
p6827
(dp6828
bsbsg105
g0
sbs(iplugins.pylisp
Symbol
p6829
(dp6830
g114
S'loooop'
p6831
sb(iplugins.pylisp
NativeFunction
p6832
(dp6833
S'function'
p6834
cplugins.pylisp
list_func
p6835
sS'num_args'
p6836
I-1
sg114
S'list'
p6837
sbs(iplugins.pylisp
Symbol
p6838
(dp6839
g108
S'hampy'
p6840
sb(iplugins.pylisp
Symbol
p6841
(dp6842
g108
S's\xc3\xa4mst'
p6843
sbs(iplugins.pylisp
Symbol
p6844
(dp6845
g3904
S'dec'
p6846
sb(iplugins.pylisp
Lambda
p6847
(dp6848
g3908
(iplugins.pylisp
ExpressionBody
p6849
(dp6850
g3911
(iplugins.pylisp
ConsCell
p6851
(dp6852
g3914
(iplugins.pylisp
ConsCell
p6853
(dp6854
g3914
(iplugins.pylisp
Symbol
p6855
(dp6856
g3904
S'-'
p6857
sbsg3920
(iplugins.pylisp
ConsCell
p6858
(dp6859
g3914
(iplugins.pylisp
Symbol
p6860
(dp6861
g3904
g6153
sbsg3920
(iplugins.pylisp
ConsCell
p6862
(dp6863
g3914
(iplugins.pylisp
Integer
p6864
(dp6865
g6358
I1
sbsg3920
(iplugins.pylisp
Nil
p6866
(dp6867
bsbsbsbsg3920
(iplugins.pylisp
Nil
p6868
(dp6869
bsbsbsg4002
(iplugins.pylisp
ConsCell
p6870
(dp6871
g3914
(iplugins.pylisp
Symbol
p6872
(dp6873
g3904
g6153
sbsg3920
(iplugins.pylisp
Nil
p6874
(dp6875
bsbsg4009
g0
sbs(iplugins.pylisp
Symbol
p6876
(dp6877
g2662
S'kaffe'
p6878
sb(iplugins.pylisp
Symbol
p6879
(dp6880
S'name'
p6881
S'\xcf\x80kaffe'
p6882
sbs(iplugins.pylisp
Symbol
p6883
(dp6884
g2310
S'loop'
p6885
sb(iplugins.pylisp
Lambda
p6886
(dp6887
g2299
(iplugins.pylisp
ExpressionBody
p6888
(dp6889
g2302
(iplugins.pylisp
ConsCell
p6890
(dp6891
g2305
(iplugins.pylisp
ConsCell
p6892
(dp6893
g2305
(iplugins.pylisp
Symbol
p6894
(dp6895
g2310
S'loop'
p6896
sbsg2312
(iplugins.pylisp
Nil
p6897
(dp6898
bsbsg2312
(iplugins.pylisp
Nil
p6899
(dp6900
bsbsbsg2340
(iplugins.pylisp
Nil
p6901
(dp6902
bsg2351
g0
sbs(iplugins.pylisp
Symbol
p6903
(dp6904
g420
S'Oliver'
p6905
sb(iplugins.pylisp
ConsCell
p6906
(dp6907
g424
(iplugins.pylisp
Symbol
p6908
(dp6909
g420
S'\xe2\x81\xbb\\'
p6910
sbsg428
(iplugins.pylisp
ConsCell
p6911
(dp6912
g424
(iplugins.pylisp
ConsCell
p6913
(dp6914
g424
(iplugins.pylisp
Symbol
p6915
(dp6916
g420
S'\xe2\x81\xb0_o'
p6917
sbsg428
(iplugins.pylisp
Nil
p6918
(dp6919
bsbsg428
(iplugins.pylisp
ConsCell
p6920
(dp6921
g424
(iplugins.pylisp
Symbol
p6922
(dp6923
g420
S'/\xe2\x81\xbb'
p6924
sbsg428
(iplugins.pylisp
Nil
p6925
(dp6926
bsbsbsbs(iplugins.pylisp
Symbol
p6927
(dp6928
g114
S'hejhej'
p6929
sb(iplugins.pylisp
String
p6930
(dp6931
g3362
S'+echo hej'
p6932
sbs(iplugins.pylisp
Symbol
p6933
(dp6934
g1280
S'recurse'
p6935
sb(iplugins.pylisp
Lambda
p6936
(dp6937
S'expression'
p6938
(iplugins.pylisp
ExpressionBody
p6939
(dp6940
S'expressions'
p6941
(iplugins.pylisp
ConsCell
p6942
(dp6943
S'car'
p6944
(iplugins.pylisp
ConsCell
p6945
(dp6946
g6944
(iplugins.pylisp
Symbol
p6947
(dp6948
g1280
S'if'
p6949
sbsS'cdr'
p6950
(iplugins.pylisp
ConsCell
p6951
(dp6952
g6944
(iplugins.pylisp
ConsCell
p6953
(dp6954
g6944
(iplugins.pylisp
Symbol
p6955
(dp6956
g1280
S'='
p6957
sbsg6950
(iplugins.pylisp
ConsCell
p6958
(dp6959
g6944
(iplugins.pylisp
ConsCell
p6960
(dp6961
g6944
(iplugins.pylisp
Symbol
p6962
(dp6963
g1280
S'setq'
p6964
sbsg6950
(iplugins.pylisp
ConsCell
p6965
(dp6966
g6944
(iplugins.pylisp
Symbol
p6967
(dp6968
g1280
S'level'
p6969
sbsg6950
(iplugins.pylisp
ConsCell
p6970
(dp6971
g6944
(iplugins.pylisp
ConsCell
p6972
(dp6973
g6944
(iplugins.pylisp
Symbol
p6974
(dp6975
g1280
S'-'
p6976
sbsg6950
(iplugins.pylisp
ConsCell
p6977
(dp6978
g6944
(iplugins.pylisp
Symbol
p6979
(dp6980
g1280
S'level'
p6981
sbsg6950
(iplugins.pylisp
ConsCell
p6982
(dp6983
g6944
(iplugins.pylisp
Integer
p6984
(dp6985
g1284
I1
sbsg6950
(iplugins.pylisp
Nil
p6986
(dp6987
bsbsbsbsg6950
(iplugins.pylisp
Nil
p6988
(dp6989
bsbsbsbsg6950
(iplugins.pylisp
ConsCell
p6990
(dp6991
g6944
(iplugins.pylisp
Integer
p6992
(dp6993
g1284
I0
sbsg6950
(iplugins.pylisp
Nil
p6994
(dp6995
bsbsbsbsg6950
(iplugins.pylisp
ConsCell
p6996
(dp6997
g6944
(iplugins.pylisp
Symbol
p6998
(dp6999
g1280
S'level'
p7000
sbsg6950
(iplugins.pylisp
ConsCell
p7001
(dp7002
g6944
(iplugins.pylisp
ConsCell
p7003
(dp7004
g6944
(iplugins.pylisp
Symbol
p7005
(dp7006
g1280
S'recurse'
p7007
sbsg6950
(iplugins.pylisp
Nil
p7008
(dp7009
bsbsg6950
(iplugins.pylisp
Nil
p7010
(dp7011
bsbsbsbsbsg6950
(iplugins.pylisp
Nil
p7012
(dp7013
bsbsbsS'parameters'
p7014
(iplugins.pylisp
Nil
p7015
(dp7016
bsS'env'
p7017
g0
sbs(iplugins.pylisp
Symbol
p7018
(dp7019
g886
S'<='
p7020
sb(iplugins.pylisp
Lambda
p7021
(dp7022
g4641
(iplugins.pylisp
ExpressionBody
p7023
(dp7024
g4644
(iplugins.pylisp
ConsCell
p7025
(dp7026
g4647
(iplugins.pylisp
ConsCell
p7027
(dp7028
g4647
(iplugins.pylisp
Symbol
p7029
(dp7030
g886
S'or'
p7031
sbsg4653
(iplugins.pylisp
ConsCell
p7032
(dp7033
g4647
(iplugins.pylisp
ConsCell
p7034
(dp7035
g4647
(iplugins.pylisp
Symbol
p7036
(dp7037
g886
g5756
sbsg4653
(iplugins.pylisp
ConsCell
p7038
(dp7039
g4647
(iplugins.pylisp
Symbol
p7040
(dp7041
g886
g4665
sbsg4653
(iplugins.pylisp
ConsCell
p7042
(dp7043
g4647
(iplugins.pylisp
Symbol
p7044
(dp7045
g886
g4670
sbsg4653
(iplugins.pylisp
Nil
p7046
(dp7047
bsbsbsbsg4653
(iplugins.pylisp
ConsCell
p7048
(dp7049
g4647
(iplugins.pylisp
ConsCell
p7050
(dp7051
g4647
(iplugins.pylisp
Symbol
p7052
(dp7053
g886
g4679
sbsg4653
(iplugins.pylisp
ConsCell
p7054
(dp7055
g4647
(iplugins.pylisp
Symbol
p7056
(dp7057
g886
g4665
sbsg4653
(iplugins.pylisp
ConsCell
p7058
(dp7059
g4647
(iplugins.pylisp
Symbol
p7060
(dp7061
g886
g4670
sbsg4653
(iplugins.pylisp
Nil
p7062
(dp7063
bsbsbsbsg4653
(iplugins.pylisp
Nil
p7064
(dp7065
bsbsbsbsg4653
(iplugins.pylisp
Nil
p7066
(dp7067
bsbsbsg4694
(iplugins.pylisp
ConsCell
p7068
(dp7069
g4647
(iplugins.pylisp
Symbol
p7070
(dp7071
g886
g4665
sbsg4653
(iplugins.pylisp
ConsCell
p7072
(dp7073
g4647
(iplugins.pylisp
Symbol
p7074
(dp7075
g886
g4670
sbsg4653
(iplugins.pylisp
Nil
p7076
(dp7077
bsbsbsg4705
g0
sbs(iplugins.pylisp
Symbol
p7078
(dp7079
g2662
S'infrec'
p7080
sb(iplugins.pylisp
Lambda
p7081
(dp7082
g4369
(iplugins.pylisp
ExpressionBody
p7083
(dp7084
g4372
(iplugins.pylisp
ConsCell
p7085
(dp7086
g4375
(iplugins.pylisp
ConsCell
p7087
(dp7088
g4375
(iplugins.pylisp
Symbol
p7089
(dp7090
g2662
S'infrec'
p7091
sbsg4381
(iplugins.pylisp
ConsCell
p7092
(dp7093
g4375
(iplugins.pylisp
Symbol
p7094
(dp7095
g2662
S'lol'
p7096
sbsg4381
(iplugins.pylisp
Nil
p7097
(dp7098
bsbsbsg4381
(iplugins.pylisp
Nil
p7099
(dp7100
bsbsbsg4452
(iplugins.pylisp
ConsCell
p7101
(dp7102
g4375
(iplugins.pylisp
Symbol
p7103
(dp7104
g2662
S'lol'
p7105
sbsg4381
(iplugins.pylisp
Nil
p7106
(dp7107
bsbsg4459
g0
sbs(iplugins.pylisp
Symbol
p7108
(dp7109
g108
S'dupa'
p7110
sb(iplugins.pylisp
ConsCell
p7111
(dp7112
g294
(iplugins.pylisp
Symbol
p7113
(dp7114
g108
S'\xc2\xa0'
p7115
sbsg300
(iplugins.pylisp
ConsCell
p7116
(dp7117
g294
(iplugins.pylisp
Symbol
p7118
(dp7119
g108
S'O'
p7120
sbsg300
(iplugins.pylisp
ConsCell
p7121
(dp7122
g294
(iplugins.pylisp
Symbol
p7123
(dp7124
g108
S'\xc2\xa0'
p7125
sbsg300
(iplugins.pylisp
Nil
p7126
(dp7127
bsbsbsbs(iplugins.pylisp
Symbol
p7128
(dp7129
g2662
S'merola'
p7130
sb(iplugins.pylisp
String
p7131
(dp7132
g4400
S'tv\xc3\xa4tta mig. NUU!!!'
p7133
sbs(iplugins.pylisp
Symbol
p7134
(dp7135
g1977
S'ampleyfly'
p7136
sb(iplugins.pylisp
Symbol
p7137
(dp7138
g1977
S'ampleyfly'
p7139
sbs(iplugins.pylisp
Symbol
p7140
(dp7141
g4898
S'apply-2'
p7142
sb(iplugins.pylisp
Lambda
p7143
(dp7144
g6525
(iplugins.pylisp
ExpressionBody
p7145
(dp7146
g6528
(iplugins.pylisp
ConsCell
p7147
(dp7148
g6531
(iplugins.pylisp
ConsCell
p7149
(dp7150
g6531
(iplugins.pylisp
Symbol
p7151
(dp7152
g4898
g6522
sbsg6536
(iplugins.pylisp
ConsCell
p7153
(dp7154
g6531
(iplugins.pylisp
Symbol
p7155
(dp7156
g4898
S'a'
p7157
sbsg6536
(iplugins.pylisp
ConsCell
p7158
(dp7159
g6531
(iplugins.pylisp
Symbol
p7160
(dp7161
g4898
S'b'
p7162
sbsg6536
(iplugins.pylisp
Nil
p7163
(dp7164
bsbsbsbsg6536
(iplugins.pylisp
Nil
p7165
(dp7166
bsbsbsg6541
(iplugins.pylisp
ConsCell
p7167
(dp7168
g6531
(iplugins.pylisp
Symbol
p7169
(dp7170
g4898
g6522
sbsg6536
(iplugins.pylisp
ConsCell
p7171
(dp7172
g6531
(iplugins.pylisp
Symbol
p7173
(dp7174
g4898
g7157
sbsg6536
(iplugins.pylisp
ConsCell
p7175
(dp7176
g6531
(iplugins.pylisp
Symbol
p7177
(dp7178
g4898
g7162
sbsg6536
(iplugins.pylisp
Nil
p7179
(dp7180
bsbsbsbsg6544
g0
sbs(iplugins.pylisp
Symbol
p7181
(dp7182
S'name'
p7183
S'inc'
p7184
sb(iplugins.pylisp
Lambda
p7185
(dp7186
S'expression'
p7187
(iplugins.pylisp
ExpressionBody
p7188
(dp7189
S'expressions'
p7190
(iplugins.pylisp
ConsCell
p7191
(dp7192
S'car'
p7193
(iplugins.pylisp
ConsCell
p7194
(dp7195
g7193
(iplugins.pylisp
Symbol
p7196
(dp7197
g7183
S'+'
p7198
sbsS'cdr'
p7199
(iplugins.pylisp
ConsCell
p7200
(dp7201
g7193
(iplugins.pylisp
Symbol
p7202
(dp7203
g7183
S'x'
p7204
sbsg7199
(iplugins.pylisp
ConsCell
p7205
(dp7206
g7193
(iplugins.pylisp
Integer
p7207
(dp7208
S'value'
p7209
I1
sbsg7199
(iplugins.pylisp
Nil
p7210
(dp7211
bsbsbsbsg7199
(iplugins.pylisp
Nil
p7212
(dp7213
bsbsbsS'parameters'
p7214
(iplugins.pylisp
ConsCell
p7215
(dp7216
g7193
(iplugins.pylisp
Symbol
p7217
(dp7218
g7183
g7204
sbsg7199
(iplugins.pylisp
Nil
p7219
(dp7220
bsbsS'env'
p7221
g0
sbs(iplugins.pylisp
Symbol
p7222
(dp7223
g6
S'approximate-pi'
p7224
sb(iplugins.pylisp
Lambda
p7225
(dp7226
g10
(iplugins.pylisp
ExpressionBody
p7227
(dp7228
g13
(iplugins.pylisp
ConsCell
p7229
(dp7230
g16
(iplugins.pylisp
ConsCell
p7231
(dp7232
g16
(iplugins.pylisp
Symbol
p7233
(dp7234
g6
S'if'
p7235
sbsg22
(iplugins.pylisp
ConsCell
p7236
(dp7237
g16
(iplugins.pylisp
ConsCell
p7238
(dp7239
g16
(iplugins.pylisp
Symbol
p7240
(dp7241
g6
g29
sbsg22
(iplugins.pylisp
ConsCell
p7242
(dp7243
g16
(iplugins.pylisp
Symbol
p7244
(dp7245
g6
S'm'
p7246
sbsg22
(iplugins.pylisp
ConsCell
p7247
(dp7248
g16
(iplugins.pylisp
Symbol
p7249
(dp7250
g6
S'-1'
p7251
sbsg22
(iplugins.pylisp
Nil
p7252
(dp7253
bsbsbsbsg22
(iplugins.pylisp
ConsCell
p7254
(dp7255
g16
(iplugins.pylisp
Integer
p7256
(dp7257
g39
I1
sbsg22
(iplugins.pylisp
ConsCell
p7258
(dp7259
g16
(iplugins.pylisp
ConsCell
p7260
(dp7261
g16
(iplugins.pylisp
Symbol
p7262
(dp7263
g6
g1579
sbsg22
(iplugins.pylisp
ConsCell
p7264
(dp7265
g16
(iplugins.pylisp
ConsCell
p7266
(dp7267
g16
(iplugins.pylisp
Symbol
p7268
(dp7269
g6
S'*'
p7270
sbsg22
(iplugins.pylisp
ConsCell
p7271
(dp7272
g16
(iplugins.pylisp
Integer
p7273
(dp7274
g39
I4
sbsg22
(iplugins.pylisp
ConsCell
p7275
(dp7276
g16
(iplugins.pylisp
ConsCell
p7277
(dp7278
g16
(iplugins.pylisp
Symbol
p7279
(dp7280
g6
S'pow'
p7281
sbsg22
(iplugins.pylisp
ConsCell
p7282
(dp7283
g16
(iplugins.pylisp
Symbol
p7284
(dp7285
g6
S'-1'
p7286
sbsg22
(iplugins.pylisp
ConsCell
p7287
(dp7288
g16
(iplugins.pylisp
Symbol
p7289
(dp7290
g6
g7246
sbsg22
(iplugins.pylisp
Nil
p7291
(dp7292
bsbsbsbsg22
(iplugins.pylisp
Nil
p7293
(dp7294
bsbsbsbsg22
(iplugins.pylisp
ConsCell
p7295
(dp7296
g16
(iplugins.pylisp
ConsCell
p7297
(dp7298
g16
(iplugins.pylisp
Symbol
p7299
(dp7300
g6
S'+'
p7301
sbsg22
(iplugins.pylisp
ConsCell
p7302
(dp7303
g16
(iplugins.pylisp
ConsCell
p7304
(dp7305
g16
(iplugins.pylisp
Symbol
p7306
(dp7307
g6
g7270
sbsg22
(iplugins.pylisp
ConsCell
p7308
(dp7309
g16
(iplugins.pylisp
Integer
p7310
(dp7311
g39
I2
sbsg22
(iplugins.pylisp
ConsCell
p7312
(dp7313
g16
(iplugins.pylisp
Symbol
p7314
(dp7315
g6
g7246
sbsg22
(iplugins.pylisp
Nil
p7316
(dp7317
bsbsbsbsg22
(iplugins.pylisp
ConsCell
p7318
(dp7319
g16
(iplugins.pylisp
Integer
p7320
(dp7321
g39
I1
sbsg22
(iplugins.pylisp
Nil
p7322
(dp7323
bsbsbsbsg22
(iplugins.pylisp
Nil
p7324
(dp7325
bsbsbsbsg22
(iplugins.pylisp
Nil
p7326
(dp7327
bsbsbsbsbsg22
(iplugins.pylisp
Nil
p7328
(dp7329
bsbsbsg94
(iplugins.pylisp
ConsCell
p7330
(dp7331
g16
(iplugins.pylisp
Symbol
p7332
(dp7333
g6
g7246
sbsg22
(iplugins.pylisp
Nil
p7334
(dp7335
bsbsg105
g0
sbs(iplugins.pylisp
Symbol
p7336
(dp7337
S'name'
p7338
S'gcd'
p7339
sb(iplugins.pylisp
Lambda
p7340
(dp7341
S'expression'
p7342
(iplugins.pylisp
ExpressionBody
p7343
(dp7344
S'expressions'
p7345
(iplugins.pylisp
ConsCell
p7346
(dp7347
S'car'
p7348
(iplugins.pylisp
ConsCell
p7349
(dp7350
g7348
(iplugins.pylisp
Symbol
p7351
(dp7352
g7338
S'if'
p7353
sbsS'cdr'
p7354
(iplugins.pylisp
ConsCell
p7355
(dp7356
g7348
(iplugins.pylisp
ConsCell
p7357
(dp7358
g7348
(iplugins.pylisp
Symbol
p7359
(dp7360
g7338
S'<'
p7361
sbsg7354
(iplugins.pylisp
ConsCell
p7362
(dp7363
g7348
(iplugins.pylisp
Symbol
p7364
(dp7365
g7338
S'a'
p7366
sbsg7354
(iplugins.pylisp
ConsCell
p7367
(dp7368
g7348
(iplugins.pylisp
Symbol
p7369
(dp7370
g7338
S'b'
p7371
sbsg7354
(iplugins.pylisp
Nil
p7372
(dp7373
bsbsbsbsg7354
(iplugins.pylisp
ConsCell
p7374
(dp7375
g7348
(iplugins.pylisp
ConsCell
p7376
(dp7377
g7348
(iplugins.pylisp
Symbol
p7378
(dp7379
g7338
S'gcd'
p7380
sbsg7354
(iplugins.pylisp
ConsCell
p7381
(dp7382
g7348
(iplugins.pylisp
Symbol
p7383
(dp7384
g7338
g7371
sbsg7354
(iplugins.pylisp
ConsCell
p7385
(dp7386
g7348
(iplugins.pylisp
Symbol
p7387
(dp7388
g7338
g7366
sbsg7354
(iplugins.pylisp
Nil
p7389
(dp7390
bsbsbsbsg7354
(iplugins.pylisp
ConsCell
p7391
(dp7392
g7348
(iplugins.pylisp
ConsCell
p7393
(dp7394
g7348
(iplugins.pylisp
Symbol
p7395
(dp7396
g7338
S'if'
p7397
sbsg7354
(iplugins.pylisp
ConsCell
p7398
(dp7399
g7348
(iplugins.pylisp
ConsCell
p7400
(dp7401
g7348
(iplugins.pylisp
Symbol
p7402
(dp7403
g7338
S'='
p7404
sbsg7354
(iplugins.pylisp
ConsCell
p7405
(dp7406
g7348
(iplugins.pylisp
Symbol
p7407
(dp7408
g7338
g7371
sbsg7354
(iplugins.pylisp
ConsCell
p7409
(dp7410
g7348
(iplugins.pylisp
Integer
p7411
(dp7412
S'value'
p7413
I0
sbsg7354
(iplugins.pylisp
Nil
p7414
(dp7415
bsbsbsbsg7354
(iplugins.pylisp
ConsCell
p7416
(dp7417
g7348
(iplugins.pylisp
Symbol
p7418
(dp7419
g7338
g7366
sbsg7354
(iplugins.pylisp
ConsCell
p7420
(dp7421
g7348
(iplugins.pylisp
ConsCell
p7422
(dp7423
g7348
(iplugins.pylisp
Symbol
p7424
(dp7425
g7338
S'gcd'
p7426
sbsg7354
(iplugins.pylisp
ConsCell
p7427
(dp7428
g7348
(iplugins.pylisp
Symbol
p7429
(dp7430
g7338
g7371
sbsg7354
(iplugins.pylisp
ConsCell
p7431
(dp7432
g7348
(iplugins.pylisp
ConsCell
p7433
(dp7434
g7348
(iplugins.pylisp
Symbol
p7435
(dp7436
g7338
S'mod'
p7437
sbsg7354
(iplugins.pylisp
ConsCell
p7438
(dp7439
g7348
(iplugins.pylisp
Symbol
p7440
(dp7441
g7338
g7366
sbsg7354
(iplugins.pylisp
ConsCell
p7442
(dp7443
g7348
(iplugins.pylisp
Symbol
p7444
(dp7445
g7338
g7371
sbsg7354
(iplugins.pylisp
Nil
p7446
(dp7447
bsbsbsbsg7354
(iplugins.pylisp
Nil
p7448
(dp7449
bsbsbsbsg7354
(iplugins.pylisp
Nil
p7450
(dp7451
bsbsbsbsbsg7354
(iplugins.pylisp
Nil
p7452
(dp7453
bsbsbsbsbsg7354
(iplugins.pylisp
Nil
p7454
(dp7455
bsbsbsS'parameters'
p7456
(iplugins.pylisp
ConsCell
p7457
(dp7458
g7348
(iplugins.pylisp
Symbol
p7459
(dp7460
g7338
g7366
sbsg7354
(iplugins.pylisp
ConsCell
p7461
(dp7462
g7348
(iplugins.pylisp
Symbol
p7463
(dp7464
g7338
g7371
sbsg7354
(iplugins.pylisp
Nil
p7465
(dp7466
bsbsbsS'env'
p7467
g0
sbs(iplugins.pylisp
Symbol
p7468
(dp7469
g6
S'CeQeal'
p7470
sb(iplugins.pylisp
Nil
p7471
(dp7472
bs(iplugins.pylisp
Symbol
p7473
(dp7474
g1653
S'favdown'
p7475
sb(iplugins.pylisp
Lambda
p7476
(dp7477
g1657
(iplugins.pylisp
ExpressionBody
p7478
(dp7479
g1660
(iplugins.pylisp
ConsCell
p7480
(dp7481
g1663
(iplugins.pylisp
ConsCell
p7482
(dp7483
g1663
(iplugins.pylisp
Symbol
p7484
(dp7485
g1653
S'command'
p7486
sbsg1669
(iplugins.pylisp
ConsCell
p7487
(dp7488
g1663
(iplugins.pylisp
String
p7489
(dp7490
g1674
S'down'
p7491
sbsg1669
(iplugins.pylisp
ConsCell
p7492
(dp7493
g1663
(iplugins.pylisp
ConsCell
p7494
(dp7495
g1663
(iplugins.pylisp
Symbol
p7496
(dp7497
g1653
S'command'
p7498
sbsg1669
(iplugins.pylisp
ConsCell
p7499
(dp7500
g1663
(iplugins.pylisp
Symbol
p7501
(dp7502
g1653
S'name'
p7503
sbsg1669
(iplugins.pylisp
ConsCell
p7504
(dp7505
g1663
(iplugins.pylisp
String
p7506
(dp7507
g1674
S'lispnik'
p7508
sbsg1669
(iplugins.pylisp
Nil
p7509
(dp7510
bsbsbsbsg1669
(iplugins.pylisp
Nil
p7511
(dp7512
bsbsbsbsg1669
(iplugins.pylisp
Nil
p7513
(dp7514
bsbsbsg1685
(iplugins.pylisp
ConsCell
p7515
(dp7516
g1663
(iplugins.pylisp
Symbol
p7517
(dp7518
g1653
S'name'
p7519
sbsg1669
(iplugins.pylisp
Nil
p7520
(dp7521
bsbsg1692
g0
sbs(iplugins.pylisp
Symbol
p7522
(dp7523
g1535
S'-'
p7524
sb(iplugins.pylisp
NativeFunction
p7525
(dp7526
S'function'
p7527
cplugins.pylisp
sub_func
p7528
sS'num_args'
p7529
I2
sg1535
g7524
sbs(iplugins.pylisp
Symbol
p7530
(dp7531
g3904
S'range'
p7532
sb(iplugins.pylisp
Lambda
p7533
(dp7534
g3908
(iplugins.pylisp
ExpressionBody
p7535
(dp7536
g3911
(iplugins.pylisp
ConsCell
p7537
(dp7538
g3914
(iplugins.pylisp
ConsCell
p7539
(dp7540
g3914
(iplugins.pylisp
Symbol
p7541
(dp7542
g3904
S'if'
p7543
sbsg3920
(iplugins.pylisp
ConsCell
p7544
(dp7545
g3914
(iplugins.pylisp
ConsCell
p7546
(dp7547
g3914
(iplugins.pylisp
Symbol
p7548
(dp7549
g3904
S'='
p7550
sbsg3920
(iplugins.pylisp
ConsCell
p7551
(dp7552
g3914
(iplugins.pylisp
Symbol
p7553
(dp7554
g3904
g6153
sbsg3920
(iplugins.pylisp
ConsCell
p7555
(dp7556
g3914
(iplugins.pylisp
Integer
p7557
(dp7558
g6358
I0
sbsg3920
(iplugins.pylisp
Nil
p7559
(dp7560
bsbsbsbsg3920
(iplugins.pylisp
ConsCell
p7561
(dp7562
g3914
(iplugins.pylisp
Symbol
p7563
(dp7564
g3904
S'nil'
p7565
sbsg3920
(iplugins.pylisp
ConsCell
p7566
(dp7567
g3914
(iplugins.pylisp
ConsCell
p7568
(dp7569
g3914
(iplugins.pylisp
Symbol
p7570
(dp7571
g3904
S'append'
p7572
sbsg3920
(iplugins.pylisp
ConsCell
p7573
(dp7574
g3914
(iplugins.pylisp
ConsCell
p7575
(dp7576
g3914
(iplugins.pylisp
Symbol
p7577
(dp7578
g3904
S'range'
p7579
sbsg3920
(iplugins.pylisp
ConsCell
p7580
(dp7581
g3914
(iplugins.pylisp
ConsCell
p7582
(dp7583
g3914
(iplugins.pylisp
Symbol
p7584
(dp7585
g3904
S'dec'
p7586
sbsg3920
(iplugins.pylisp
ConsCell
p7587
(dp7588
g3914
(iplugins.pylisp
Symbol
p7589
(dp7590
g3904
g6153
sbsg3920
(iplugins.pylisp
Nil
p7591
(dp7592
bsbsbsg3920
(iplugins.pylisp
Nil
p7593
(dp7594
bsbsbsg3920
(iplugins.pylisp
ConsCell
p7595
(dp7596
g3914
(iplugins.pylisp
ConsCell
p7597
(dp7598
g3914
(iplugins.pylisp
Symbol
p7599
(dp7600
g3904
S'cons'
p7601
sbsg3920
(iplugins.pylisp
ConsCell
p7602
(dp7603
g3914
(iplugins.pylisp
ConsCell
p7604
(dp7605
g3914
(iplugins.pylisp
Symbol
p7606
(dp7607
g3904
S'dec'
p7608
sbsg3920
(iplugins.pylisp
ConsCell
p7609
(dp7610
g3914
(iplugins.pylisp
Symbol
p7611
(dp7612
g3904
g6153
sbsg3920
(iplugins.pylisp
Nil
p7613
(dp7614
bsbsbsg3920
(iplugins.pylisp
ConsCell
p7615
(dp7616
g3914
(iplugins.pylisp
Symbol
p7617
(dp7618
g3904
S'nil'
p7619
sbsg3920
(iplugins.pylisp
Nil
p7620
(dp7621
bsbsbsbsg3920
(iplugins.pylisp
Nil
p7622
(dp7623
bsbsbsbsg3920
(iplugins.pylisp
Nil
p7624
(dp7625
bsbsbsbsbsg3920
(iplugins.pylisp
Nil
p7626
(dp7627
bsbsbsg4002
(iplugins.pylisp
ConsCell
p7628
(dp7629
g3914
(iplugins.pylisp
Symbol
p7630
(dp7631
g3904
g6153
sbsg3920
(iplugins.pylisp
Nil
p7632
(dp7633
bsbsg4009
g0
sbs(iplugins.pylisp
Symbol
p7634
(dp7635
g4898
S'member'
p7636
sb(iplugins.pylisp
Lambda
p7637
(dp7638
g6525
(iplugins.pylisp
ExpressionBody
p7639
(dp7640
g6528
(iplugins.pylisp
ConsCell
p7641
(dp7642
g6531
(iplugins.pylisp
ConsCell
p7643
(dp7644
g6531
(iplugins.pylisp
Symbol
p7645
(dp7646
g4898
S'if'
p7647
sbsg6536
(iplugins.pylisp
ConsCell
p7648
(dp7649
g6531
(iplugins.pylisp
ConsCell
p7650
(dp7651
g6531
(iplugins.pylisp
Symbol
p7652
(dp7653
g4898
S'endp'
p7654
sbsg6536
(iplugins.pylisp
ConsCell
p7655
(dp7656
g6531
(iplugins.pylisp
Symbol
p7657
(dp7658
g4898
S'l'
p7659
sbsg6536
(iplugins.pylisp
Nil
p7660
(dp7661
bsbsbsg6536
(iplugins.pylisp
ConsCell
p7662
(dp7663
g6531
(iplugins.pylisp
Symbol
p7664
(dp7665
g4898
S'nil'
p7666
sbsg6536
(iplugins.pylisp
ConsCell
p7667
(dp7668
g6531
(iplugins.pylisp
ConsCell
p7669
(dp7670
g6531
(iplugins.pylisp
Symbol
p7671
(dp7672
g4898
S'if'
p7673
sbsg6536
(iplugins.pylisp
ConsCell
p7674
(dp7675
g6531
(iplugins.pylisp
ConsCell
p7676
(dp7677
g6531
(iplugins.pylisp
Symbol
p7678
(dp7679
g4898
S'='
p7680
sbsg6536
(iplugins.pylisp
ConsCell
p7681
(dp7682
g6531
(iplugins.pylisp
Symbol
p7683
(dp7684
g4898
S'e'
p7685
sbsg6536
(iplugins.pylisp
ConsCell
p7686
(dp7687
g6531
(iplugins.pylisp
ConsCell
p7688
(dp7689
g6531
(iplugins.pylisp
Symbol
p7690
(dp7691
g4898
S'car'
p7692
sbsg6536
(iplugins.pylisp
ConsCell
p7693
(dp7694
g6531
(iplugins.pylisp
Symbol
p7695
(dp7696
g4898
g7659
sbsg6536
(iplugins.pylisp
Nil
p7697
(dp7698
bsbsbsg6536
(iplugins.pylisp
Nil
p7699
(dp7700
bsbsbsbsg6536
(iplugins.pylisp
ConsCell
p7701
(dp7702
g6531
(iplugins.pylisp
Symbol
p7703
(dp7704
g4898
S't'
p7705
sbsg6536
(iplugins.pylisp
ConsCell
p7706
(dp7707
g6531
(iplugins.pylisp
ConsCell
p7708
(dp7709
g6531
(iplugins.pylisp
Symbol
p7710
(dp7711
g4898
S'member'
p7712
sbsg6536
(iplugins.pylisp
ConsCell
p7713
(dp7714
g6531
(iplugins.pylisp
Symbol
p7715
(dp7716
g4898
g7685
sbsg6536
(iplugins.pylisp
ConsCell
p7717
(dp7718
g6531
(iplugins.pylisp
ConsCell
p7719
(dp7720
g6531
(iplugins.pylisp
Symbol
p7721
(dp7722
g4898
S'cdr'
p7723
sbsg6536
(iplugins.pylisp
ConsCell
p7724
(dp7725
g6531
(iplugins.pylisp
Symbol
p7726
(dp7727
g4898
g7659
sbsg6536
(iplugins.pylisp
Nil
p7728
(dp7729
bsbsbsg6536
(iplugins.pylisp
Nil
p7730
(dp7731
bsbsbsbsg6536
(iplugins.pylisp
Nil
p7732
(dp7733
bsbsbsbsbsg6536
(iplugins.pylisp
Nil
p7734
(dp7735
bsbsbsbsbsg6536
(iplugins.pylisp
Nil
p7736
(dp7737
bsbsbsg6541
(iplugins.pylisp
ConsCell
p7738
(dp7739
g6531
(iplugins.pylisp
Symbol
p7740
(dp7741
g4898
g7685
sbsg6536
(iplugins.pylisp
ConsCell
p7742
(dp7743
g6531
(iplugins.pylisp
Symbol
p7744
(dp7745
g4898
g7659
sbsg6536
(iplugins.pylisp
Nil
p7746
(dp7747
bsbsbsg6544
g0
sbs(iplugins.pylisp
Symbol
p7748
(dp7749
g2662
S'setkuk'
p7750
sb(iplugins.pylisp
Lambda
p7751
(dp7752
g4369
(iplugins.pylisp
ExpressionBody
p7753
(dp7754
g4372
(iplugins.pylisp
ConsCell
p7755
(dp7756
g4375
(iplugins.pylisp
ConsCell
p7757
(dp7758
g4375
(iplugins.pylisp
Symbol
p7759
(dp7760
g2662
S'setq'
p7761
sbsg4381
(iplugins.pylisp
ConsCell
p7762
(dp7763
g4375
(iplugins.pylisp
Symbol
p7764
(dp7765
g2662
S'name'
p7766
sbsg4381
(iplugins.pylisp
ConsCell
p7767
(dp7768
g4375
(iplugins.pylisp
Symbol
p7769
(dp7770
g2662
S'val'
p7771
sbsg4381
(iplugins.pylisp
Nil
p7772
(dp7773
bsbsbsbsg4381
(iplugins.pylisp
Nil
p7774
(dp7775
bsbsbsg4452
(iplugins.pylisp
ConsCell
p7776
(dp7777
g4375
(iplugins.pylisp
Symbol
p7778
(dp7779
g2662
S'name'
p7780
sbsg4381
(iplugins.pylisp
ConsCell
p7781
(dp7782
g4375
(iplugins.pylisp
Symbol
p7783
(dp7784
g2662
S'val'
p7785
sbsg4381
(iplugins.pylisp
Nil
p7786
(dp7787
bsbsbsg4459
g0
sbs(iplugins.pylisp
Symbol
p7788
(dp7789
g7183
S'sum-list'
p7790
sb(iplugins.pylisp
Lambda
p7791
(dp7792
g4711
(iplugins.pylisp
ExpressionBody
p7793
(dp7794
g4714
(iplugins.pylisp
ConsCell
p7795
(dp7796
g2753
(iplugins.pylisp
ConsCell
p7797
(dp7798
g2753
(iplugins.pylisp
Symbol
p7799
(dp7800
g1977
S'if'
p7801
sbsg2757
(iplugins.pylisp
ConsCell
p7802
(dp7803
g2753
(iplugins.pylisp
ConsCell
p7804
(dp7805
g2753
(iplugins.pylisp
Symbol
p7806
(dp7807
g1977
S'not'
p7808
sbsg2757
(iplugins.pylisp
ConsCell
p7809
(dp7810
g2753
(iplugins.pylisp
ConsCell
p7811
(dp7812
g2753
(iplugins.pylisp
Symbol
p7813
(dp7814
g1977
S'listp'
p7815
sbsg2757
(iplugins.pylisp
ConsCell
p7816
(dp7817
g2753
(iplugins.pylisp
Symbol
p7818
(dp7819
g1977
S'l'
p7820
sbsg2757
(iplugins.pylisp
Nil
p7821
(dp7822
bsbsbsg2757
(iplugins.pylisp
Nil
p7823
(dp7824
bsbsbsg2757
(iplugins.pylisp
ConsCell
p7825
(dp7826
g2753
(iplugins.pylisp
ConsCell
p7827
(dp7828
g2753
(iplugins.pylisp
Symbol
p7829
(dp7830
g1977
S'print'
p7831
sbsg2757
(iplugins.pylisp
ConsCell
p7832
(dp7833
g2753
(iplugins.pylisp
String
p7834
(dp7835
g3213
S'lol ingen lista'
p7836
sbsg2757
(iplugins.pylisp
Nil
p7837
(dp7838
bsbsbsg2757
(iplugins.pylisp
ConsCell
p7839
(dp7840
g2753
(iplugins.pylisp
ConsCell
p7841
(dp7842
g2753
(iplugins.pylisp
Symbol
p7843
(dp7844
g1977
S'if'
p7845
sbsg2757
(iplugins.pylisp
ConsCell
p7846
(dp7847
g2753
(iplugins.pylisp
ConsCell
p7848
(dp7849
g2753
(iplugins.pylisp
Symbol
p7850
(dp7851
g1977
S'endp'
p7852
sbsg2757
(iplugins.pylisp
ConsCell
p7853
(dp7854
g2753
(iplugins.pylisp
Symbol
p7855
(dp7856
g1977
g7820
sbsg2757
(iplugins.pylisp
Nil
p7857
(dp7858
bsbsbsg2757
(iplugins.pylisp
ConsCell
p7859
(dp7860
g2753
(iplugins.pylisp
Integer
p7861
(dp7862
g3213
I0
sbsg2757
(iplugins.pylisp
ConsCell
p7863
(dp7864
g2753
(iplugins.pylisp
ConsCell
p7865
(dp7866
g2753
(iplugins.pylisp
Symbol
p7867
(dp7868
g1977
S'-'
p7869
sbsg2757
(iplugins.pylisp
ConsCell
p7870
(dp7871
g2753
(iplugins.pylisp
ConsCell
p7872
(dp7873
g2753
(iplugins.pylisp
Symbol
p7874
(dp7875
g1977
S'first'
p7876
sbsg2757
(iplugins.pylisp
ConsCell
p7877
(dp7878
g2753
(iplugins.pylisp
Symbol
p7879
(dp7880
g1977
g7820
sbsg2757
(iplugins.pylisp
Nil
p7881
(dp7882
bsbsbsg2757
(iplugins.pylisp
ConsCell
p7883
(dp7884
g2753
(iplugins.pylisp
ConsCell
p7885
(dp7886
g2753
(iplugins.pylisp
Symbol
p7887
(dp7888
g1977
g7869
sbsg2757
(iplugins.pylisp
ConsCell
p7889
(dp7890
g2753
(iplugins.pylisp
Integer
p7891
(dp7892
g3213
I0
sbsg2757
(iplugins.pylisp
ConsCell
p7893
(dp7894
g2753
(iplugins.pylisp
ConsCell
p7895
(dp7896
g2753
(iplugins.pylisp
Symbol
p7897
(dp7898
g1977
S'+'
p7899
sbsg2757
(iplugins.pylisp
ConsCell
p7900
(dp7901
g2753
(iplugins.pylisp
ConsCell
p7902
(dp7903
g2753
(iplugins.pylisp
Symbol
p7904
(dp7905
g1977
S'rest'
p7906
sbsg2757
(iplugins.pylisp
ConsCell
p7907
(dp7908
g2753
(iplugins.pylisp
Symbol
p7909
(dp7910
g1977
g7820
sbsg2757
(iplugins.pylisp
Nil
p7911
(dp7912
bsbsbsg2757
(iplugins.pylisp
Nil
p7913
(dp7914
bsbsbsg2757
(iplugins.pylisp
Nil
p7915
(dp7916
bsbsbsbsg2757
(iplugins.pylisp
Nil
p7917
(dp7918
bsbsbsbsg2757
(iplugins.pylisp
Nil
p7919
(dp7920
bsbsbsbsbsg2757
(iplugins.pylisp
Nil
p7921
(dp7922
bsbsbsbsbsg2757
(iplugins.pylisp
Nil
p7923
(dp7924
bsbsbsg4739
(iplugins.pylisp
ConsCell
p7925
(dp7926
g2753
(iplugins.pylisp
Symbol
p7927
(dp7928
g1977
g7820
sbsg2757
(iplugins.pylisp
Nil
p7929
(dp7930
bsbsg4747
g0
sbs(iplugins.pylisp
Symbol
p7931
(dp7932
g6
S'omnom'
p7933
sb(iplugins.pylisp
Lambda
p7934
(dp7935
g10
(iplugins.pylisp
ExpressionBody
p7936
(dp7937
g13
(iplugins.pylisp
ConsCell
p7938
(dp7939
g16
(iplugins.pylisp
ConsCell
p7940
(dp7941
g16
(iplugins.pylisp
Symbol
p7942
(dp7943
g6
S'str-append'
p7944
sbsg22
(iplugins.pylisp
ConsCell
p7945
(dp7946
g16
(iplugins.pylisp
String
p7947
(dp7948
g39
S'om'
p7949
sbsg22
(iplugins.pylisp
ConsCell
p7950
(dp7951
g16
(iplugins.pylisp
ConsCell
p7952
(dp7953
g16
(iplugins.pylisp
Symbol
p7954
(dp7955
g6
S'str-join'
p7956
sbsg22
(iplugins.pylisp
ConsCell
p7957
(dp7958
g16
(iplugins.pylisp
ConsCell
p7959
(dp7960
g16
(iplugins.pylisp
Symbol
p7961
(dp7962
g6
S'copies'
p7963
sbsg22
(iplugins.pylisp
ConsCell
p7964
(dp7965
g16
(iplugins.pylisp
Symbol
p7966
(dp7967
g6
g34
sbsg22
(iplugins.pylisp
ConsCell
p7968
(dp7969
g16
(iplugins.pylisp
String
p7970
(dp7971
g39
S'nom'
p7972
sbsg22
(iplugins.pylisp
Nil
p7973
(dp7974
bsbsbsbsg22
(iplugins.pylisp
ConsCell
p7975
(dp7976
g16
(iplugins.pylisp
String
p7977
(dp7978
g39
g67
sbsg22
(iplugins.pylisp
Nil
p7979
(dp7980
bsbsbsbsg22
(iplugins.pylisp
Nil
p7981
(dp7982
bsbsbsbsg22
(iplugins.pylisp
Nil
p7983
(dp7984
bsbsbsg94
(iplugins.pylisp
ConsCell
p7985
(dp7986
g16
(iplugins.pylisp
Symbol
p7987
(dp7988
g6
g34
sbsg22
(iplugins.pylisp
Nil
p7989
(dp7990
bsbsg105
g0
sbs(iplugins.pylisp
Symbol
p7991
(dp7992
g108
S'test'
p7993
sb(iplugins.pylisp
Integer
p7994
(dp7995
g5436
I4
sbs(iplugins.pylisp
Symbol
p7996
(dp7997
g3904
S'divides'
p7998
sb(iplugins.pylisp
Lambda
p7999
(dp8000
g3908
(iplugins.pylisp
ExpressionBody
p8001
(dp8002
g3911
(iplugins.pylisp
ConsCell
p8003
(dp8004
g3914
(iplugins.pylisp
ConsCell
p8005
(dp8006
g3914
(iplugins.pylisp
Symbol
p8007
(dp8008
g3904
g7550
sbsg3920
(iplugins.pylisp
ConsCell
p8009
(dp8010
g3914
(iplugins.pylisp
ConsCell
p8011
(dp8012
g3914
(iplugins.pylisp
Symbol
p8013
(dp8014
g3904
S'mod'
p8015
sbsg3920
(iplugins.pylisp
ConsCell
p8016
(dp8017
g3914
(iplugins.pylisp
Symbol
p8018
(dp8019
g3904
S'b'
p8020
sbsg3920
(iplugins.pylisp
ConsCell
p8021
(dp8022
g3914
(iplugins.pylisp
Symbol
p8023
(dp8024
g3904
S'a'
p8025
sbsg3920
(iplugins.pylisp
Nil
p8026
(dp8027
bsbsbsbsg3920
(iplugins.pylisp
ConsCell
p8028
(dp8029
g3914
(iplugins.pylisp
Integer
p8030
(dp8031
g6358
I0
sbsg3920
(iplugins.pylisp
Nil
p8032
(dp8033
bsbsbsbsg3920
(iplugins.pylisp
Nil
p8034
(dp8035
bsbsbsg4002
(iplugins.pylisp
ConsCell
p8036
(dp8037
g3914
(iplugins.pylisp
Symbol
p8038
(dp8039
g3904
g8025
sbsg3920
(iplugins.pylisp
ConsCell
p8040
(dp8041
g3914
(iplugins.pylisp
Symbol
p8042
(dp8043
g3904
g8020
sbsg3920
(iplugins.pylisp
Nil
p8044
(dp8045
bsbsbsg4009
g0
sbs(iplugins.pylisp
Symbol
p8046
(dp8047
g5801
S'aduno'
p8048
sb(iplugins.pylisp
Symbol
p8049
(dp8050
g5801
S'\xc2\xaf\\{o_\xc2\xba}/\xc2\xaf'
p8051
sbs(iplugins.pylisp
Symbol
p8052
(dp8053
g7183
S'map'
p8054
sb(iplugins.pylisp
Lambda
p8055
(dp8056
g7187
(iplugins.pylisp
ExpressionBody
p8057
(dp8058
g7190
(iplugins.pylisp
ConsCell
p8059
(dp8060
g7193
(iplugins.pylisp
ConsCell
p8061
(dp8062
g7193
(iplugins.pylisp
Symbol
p8063
(dp8064
g7183
S'if'
p8065
sbsg7199
(iplugins.pylisp
ConsCell
p8066
(dp8067
g7193
(iplugins.pylisp
ConsCell
p8068
(dp8069
g7193
(iplugins.pylisp
Symbol
p8070
(dp8071
g7183
S'endp'
p8072
sbsg7199
(iplugins.pylisp
ConsCell
p8073
(dp8074
g7193
(iplugins.pylisp
Symbol
p8075
(dp8076
g7183
S'l'
p8077
sbsg7199
(iplugins.pylisp
Nil
p8078
(dp8079
bsbsbsg7199
(iplugins.pylisp
ConsCell
p8080
(dp8081
g7193
(iplugins.pylisp
Symbol
p8082
(dp8083
g7183
S'nil'
p8084
sbsg7199
(iplugins.pylisp
ConsCell
p8085
(dp8086
g7193
(iplugins.pylisp
ConsCell
p8087
(dp8088
g7193
(iplugins.pylisp
Symbol
p8089
(dp8090
g7183
S'cons'
p8091
sbsg7199
(iplugins.pylisp
ConsCell
p8092
(dp8093
g7193
(iplugins.pylisp
ConsCell
p8094
(dp8095
g7193
(iplugins.pylisp
Symbol
p8096
(dp8097
g7183
S'f'
p8098
sbsg7199
(iplugins.pylisp
ConsCell
p8099
(dp8100
g7193
(iplugins.pylisp
ConsCell
p8101
(dp8102
g7193
(iplugins.pylisp
Symbol
p8103
(dp8104
g7183
S'car'
p8105
sbsg7199
(iplugins.pylisp
ConsCell
p8106
(dp8107
g7193
(iplugins.pylisp
Symbol
p8108
(dp8109
g7183
g8077
sbsg7199
(iplugins.pylisp
Nil
p8110
(dp8111
bsbsbsg7199
(iplugins.pylisp
Nil
p8112
(dp8113
bsbsbsg7199
(iplugins.pylisp
ConsCell
p8114
(dp8115
g7193
(iplugins.pylisp
ConsCell
p8116
(dp8117
g7193
(iplugins.pylisp
Symbol
p8118
(dp8119
g7183
S'map'
p8120
sbsg7199
(iplugins.pylisp
ConsCell
p8121
(dp8122
g7193
(iplugins.pylisp
Symbol
p8123
(dp8124
g7183
g8098
sbsg7199
(iplugins.pylisp
ConsCell
p8125
(dp8126
g7193
(iplugins.pylisp
ConsCell
p8127
(dp8128
g7193
(iplugins.pylisp
Symbol
p8129
(dp8130
g7183
S'cdr'
p8131
sbsg7199
(iplugins.pylisp
ConsCell
p8132
(dp8133
g7193
(iplugins.pylisp
Symbol
p8134
(dp8135
g7183
g8077
sbsg7199
(iplugins.pylisp
Nil
p8136
(dp8137
bsbsbsg7199
(iplugins.pylisp
Nil
p8138
(dp8139
bsbsbsbsg7199
(iplugins.pylisp
Nil
p8140
(dp8141
bsbsbsbsg7199
(iplugins.pylisp
Nil
p8142
(dp8143
bsbsbsbsbsg7199
(iplugins.pylisp
Nil
p8144
(dp8145
bsbsbsg7214
(iplugins.pylisp
ConsCell
p8146
(dp8147
g7193
(iplugins.pylisp
Symbol
p8148
(dp8149
g7183
g8098
sbsg7199
(iplugins.pylisp
ConsCell
p8150
(dp8151
g7193
(iplugins.pylisp
Symbol
p8152
(dp8153
g7183
g8077
sbsg7199
(iplugins.pylisp
Nil
p8154
(dp8155
bsbsbsg7221
g0
sbs(iplugins.pylisp
Symbol
p8156
(dp8157
g1535
S'nil'
p8158
sb(iplugins.pylisp
Nil
p8159
(dp8160
bs(iplugins.pylisp
Symbol
p8161
(dp8162
S'name'
p8163
S'add-together'
p8164
sb(iplugins.pylisp
Macro
p8165
(dp8166
S'expression'
p8167
(iplugins.pylisp
ConsCell
p8168
(dp8169
S'car'
p8170
(iplugins.pylisp
Symbol
p8171
(dp8172
S'name'
p8173
S'+'
p8174
sbsS'cdr'
p8175
(iplugins.pylisp
ConsCell
p8176
(dp8177
g8170
(iplugins.pylisp
Symbol
p8178
(dp8179
g8173
S'o'
p8180
sbsg8175
(iplugins.pylisp
ConsCell
p8181
(dp8182
g8170
(iplugins.pylisp
Symbol
p8183
(dp8184
g8173
S'p'
p8185
sbsg8175
(iplugins.pylisp
Nil
p8186
(dp8187
bsbsbsbsS'parameters'
p8188
(iplugins.pylisp
ConsCell
p8189
(dp8190
g8170
(iplugins.pylisp
Symbol
p8191
(dp8192
g8173
g8180
sbsg8175
(iplugins.pylisp
ConsCell
p8193
(dp8194
g8170
(iplugins.pylisp
Symbol
p8195
(dp8196
g8173
g8185
sbsg8175
(iplugins.pylisp
Nil
p8197
(dp8198
bsbsbsS'env'
p8199
g0
sbs(iplugins.pylisp
Symbol
p8200
(dp8201
g7338
S'simplify'
p8202
sb(iplugins.pylisp
Lambda
p8203
(dp8204
g7342
(iplugins.pylisp
ExpressionBody
p8205
(dp8206
g7345
(iplugins.pylisp
ConsCell
p8207
(dp8208
g7348
(iplugins.pylisp
ConsCell
p8209
(dp8210
g7348
(iplugins.pylisp
Symbol
p8211
(dp8212
g7338
S'let*'
p8213
sbsg7354
(iplugins.pylisp
ConsCell
p8214
(dp8215
g7348
(iplugins.pylisp
ConsCell
p8216
(dp8217
g7348
(iplugins.pylisp
ConsCell
p8218
(dp8219
g7348
(iplugins.pylisp
Symbol
p8220
(dp8221
g7338
S'dividend'
p8222
sbsg7354
(iplugins.pylisp
ConsCell
p8223
(dp8224
g7348
(iplugins.pylisp
ConsCell
p8225
(dp8226
g7348
(iplugins.pylisp
Symbol
p8227
(dp8228
g7338
S'car'
p8229
sbsg7354
(iplugins.pylisp
ConsCell
p8230
(dp8231
g7348
(iplugins.pylisp
Symbol
p8232
(dp8233
g7338
S'rat'
p8234
sbsg7354
(iplugins.pylisp
Nil
p8235
(dp8236
bsbsbsg7354
(iplugins.pylisp
Nil
p8237
(dp8238
bsbsbsg7354
(iplugins.pylisp
ConsCell
p8239
(dp8240
g7348
(iplugins.pylisp
ConsCell
p8241
(dp8242
g7348
(iplugins.pylisp
Symbol
p8243
(dp8244
g7338
S'divisor'
p8245
sbsg7354
(iplugins.pylisp
ConsCell
p8246
(dp8247
g7348
(iplugins.pylisp
ConsCell
p8248
(dp8249
g7348
(iplugins.pylisp
Symbol
p8250
(dp8251
g7338
S'cdr'
p8252
sbsg7354
(iplugins.pylisp
ConsCell
p8253
(dp8254
g7348
(iplugins.pylisp
Symbol
p8255
(dp8256
g7338
S'rat'
p8257
sbsg7354
(iplugins.pylisp
Nil
p8258
(dp8259
bsbsbsg7354
(iplugins.pylisp
Nil
p8260
(dp8261
bsbsbsg7354
(iplugins.pylisp
ConsCell
p8262
(dp8263
g7348
(iplugins.pylisp
ConsCell
p8264
(dp8265
g7348
(iplugins.pylisp
Symbol
p8266
(dp8267
g7338
S't'
p8268
sbsg7354
(iplugins.pylisp
ConsCell
p8269
(dp8270
g7348
(iplugins.pylisp
ConsCell
p8271
(dp8272
g7348
(iplugins.pylisp
Symbol
p8273
(dp8274
g7338
S'gcd'
p8275
sbsg7354
(iplugins.pylisp
ConsCell
p8276
(dp8277
g7348
(iplugins.pylisp
Symbol
p8278
(dp8279
g7338
S'dividend'
p8280
sbsg7354
(iplugins.pylisp
ConsCell
p8281
(dp8282
g7348
(iplugins.pylisp
Symbol
p8283
(dp8284
g7338
S'divisor'
p8285
sbsg7354
(iplugins.pylisp
Nil
p8286
(dp8287
bsbsbsbsg7354
(iplugins.pylisp
Nil
p8288
(dp8289
bsbsbsg7354
(iplugins.pylisp
Nil
p8290
(dp8291
bsbsbsbsg7354
(iplugins.pylisp
ConsCell
p8292
(dp8293
g7348
(iplugins.pylisp
ConsCell
p8294
(dp8295
g7348
(iplugins.pylisp
Symbol
p8296
(dp8297
g7338
S'if'
p8298
sbsg7354
(iplugins.pylisp
ConsCell
p8299
(dp8300
g7348
(iplugins.pylisp
ConsCell
p8301
(dp8302
g7348
(iplugins.pylisp
Symbol
p8303
(dp8304
g7338
g7404
sbsg7354
(iplugins.pylisp
ConsCell
p8305
(dp8306
g7348
(iplugins.pylisp
Symbol
p8307
(dp8308
g7338
g8268
sbsg7354
(iplugins.pylisp
ConsCell
p8309
(dp8310
g7348
(iplugins.pylisp
Integer
p8311
(dp8312
g7413
I1
sbsg7354
(iplugins.pylisp
Nil
p8313
(dp8314
bsbsbsbsg7354
(iplugins.pylisp
ConsCell
p8315
(dp8316
g7348
(iplugins.pylisp
ConsCell
p8317
(dp8318
g7348
(iplugins.pylisp
Symbol
p8319
(dp8320
g7338
S'cons'
p8321
sbsg7354
(iplugins.pylisp
ConsCell
p8322
(dp8323
g7348
(iplugins.pylisp
Symbol
p8324
(dp8325
g7338
S'dividend'
p8326
sbsg7354
(iplugins.pylisp
ConsCell
p8327
(dp8328
g7348
(iplugins.pylisp
Symbol
p8329
(dp8330
g7338
S'divisor'
p8331
sbsg7354
(iplugins.pylisp
Nil
p8332
(dp8333
bsbsbsbsg7354
(iplugins.pylisp
ConsCell
p8334
(dp8335
g7348
(iplugins.pylisp
ConsCell
p8336
(dp8337
g7348
(iplugins.pylisp
Symbol
p8338
(dp8339
g7338
S'simplify'
p8340
sbsg7354
(iplugins.pylisp
ConsCell
p8341
(dp8342
g7348
(iplugins.pylisp
ConsCell
p8343
(dp8344
g7348
(iplugins.pylisp
Symbol
p8345
(dp8346
g7338
S'cons'
p8347
sbsg7354
(iplugins.pylisp
ConsCell
p8348
(dp8349
g7348
(iplugins.pylisp
ConsCell
p8350
(dp8351
g7348
(iplugins.pylisp
Symbol
p8352
(dp8353
g7338
S'/'
p8354
sbsg7354
(iplugins.pylisp
ConsCell
p8355
(dp8356
g7348
(iplugins.pylisp
Symbol
p8357
(dp8358
g7338
S'dividend'
p8359
sbsg7354
(iplugins.pylisp
ConsCell
p8360
(dp8361
g7348
(iplugins.pylisp
Symbol
p8362
(dp8363
g7338
g8268
sbsg7354
(iplugins.pylisp
Nil
p8364
(dp8365
bsbsbsbsg7354
(iplugins.pylisp
ConsCell
p8366
(dp8367
g7348
(iplugins.pylisp
ConsCell
p8368
(dp8369
g7348
(iplugins.pylisp
Symbol
p8370
(dp8371
g7338
g8354
sbsg7354
(iplugins.pylisp
ConsCell
p8372
(dp8373
g7348
(iplugins.pylisp
Symbol
p8374
(dp8375
g7338
S'divisor'
p8376
sbsg7354
(iplugins.pylisp
ConsCell
p8377
(dp8378
g7348
(iplugins.pylisp
Symbol
p8379
(dp8380
g7338
g8268
sbsg7354
(iplugins.pylisp
Nil
p8381
(dp8382
bsbsbsbsg7354
(iplugins.pylisp
Nil
p8383
(dp8384
bsbsbsbsg7354
(iplugins.pylisp
Nil
p8385
(dp8386
bsbsbsg7354
(iplugins.pylisp
Nil
p8387
(dp8388
bsbsbsbsbsg7354
(iplugins.pylisp
Nil
p8389
(dp8390
bsbsbsbsg7354
(iplugins.pylisp
Nil
p8391
(dp8392
bsbsbsg7456
(iplugins.pylisp
ConsCell
p8393
(dp8394
g7348
(iplugins.pylisp
Symbol
p8395
(dp8396
g7338
S'rat'
p8397
sbsg7354
(iplugins.pylisp
Nil
p8398
(dp8399
bsbsg7467
g0
sbs(iplugins.pylisp
Symbol
p8400
(dp8401
g6
S'dxk\xc3\xb6p'
p8402
sb(iplugins.pylisp
Lambda
p8403
(dp8404
g10
(iplugins.pylisp
ExpressionBody
p8405
(dp8406
g13
(iplugins.pylisp
ConsCell
p8407
(dp8408
g16
(iplugins.pylisp
ConsCell
p8409
(dp8410
g16
(iplugins.pylisp
Symbol
p8411
(dp8412
g6
S'str-append'
p8413
sbsg22
(iplugins.pylisp
ConsCell
p8414
(dp8415
g16
(iplugins.pylisp
ConsCell
p8416
(dp8417
g16
(iplugins.pylisp
Symbol
p8418
(dp8419
g6
S'str-append'
p8420
sbsg22
(iplugins.pylisp
ConsCell
p8421
(dp8422
g16
(iplugins.pylisp
ConsCell
p8423
(dp8424
g16
(iplugins.pylisp
Symbol
p8425
(dp8426
g6
S'str-append'
p8427
sbsg22
(iplugins.pylisp
ConsCell
p8428
(dp8429
g16
(iplugins.pylisp
String
p8430
(dp8431
g39
g2205
sbsg22
(iplugins.pylisp
ConsCell
p8432
(dp8433
g16
(iplugins.pylisp
ConsCell
p8434
(dp8435
g16
(iplugins.pylisp
Symbol
p8436
(dp8437
g6
S'str-append'
p8438
sbsg22
(iplugins.pylisp
ConsCell
p8439
(dp8440
g16
(iplugins.pylisp
ConsCell
p8441
(dp8442
g16
(iplugins.pylisp
Symbol
p8443
(dp8444
g6
S'stimes'
p8445
sbsg22
(iplugins.pylisp
ConsCell
p8446
(dp8447
g16
(iplugins.pylisp
Symbol
p8448
(dp8449
g6
g34
sbsg22
(iplugins.pylisp
ConsCell
p8450
(dp8451
g16
(iplugins.pylisp
String
p8452
(dp8453
g39
S'\xc3\xb6'
p8454
sbsg22
(iplugins.pylisp
Nil
p8455
(dp8456
bsbsbsbsg22
(iplugins.pylisp
ConsCell
p8457
(dp8458
g16
(iplugins.pylisp
String
p8459
(dp8460
g39
g2235
sbsg22
(iplugins.pylisp
Nil
p8461
(dp8462
bsbsbsbsg22
(iplugins.pylisp
Nil
p8463
(dp8464
bsbsbsbsg22
(iplugins.pylisp
ConsCell
p8465
(dp8466
g16
(iplugins.pylisp
String
p8467
(dp8468
g39
S': '
p8469
sbsg22
(iplugins.pylisp
Nil
p8470
(dp8471
bsbsbsbsg22
(iplugins.pylisp
ConsCell
p8472
(dp8473
g16
(iplugins.pylisp
ConsCell
p8474
(dp8475
g16
(iplugins.pylisp
Symbol
p8476
(dp8477
g6
S'dxrandom'
p8478
sbsg22
(iplugins.pylisp
Nil
p8479
(dp8480
bsbsg22
(iplugins.pylisp
Nil
p8481
(dp8482
bsbsbsbsg22
(iplugins.pylisp
Nil
p8483
(dp8484
bsbsbsg94
(iplugins.pylisp
ConsCell
p8485
(dp8486
g16
(iplugins.pylisp
Symbol
p8487
(dp8488
g6
g34
sbsg22
(iplugins.pylisp
Nil
p8489
(dp8490
bsbsg105
g0
sbs(iplugins.pylisp
Symbol
p8491
(dp8492
g1977
S'identity'
p8493
sb(iplugins.pylisp
Lambda
p8494
(dp8495
g4711
(iplugins.pylisp
ExpressionBody
p8496
(dp8497
g4714
(iplugins.pylisp
ConsCell
p8498
(dp8499
g2753
(iplugins.pylisp
Symbol
p8500
(dp8501
g1977
S'o'
p8502
sbsg2757
(iplugins.pylisp
Nil
p8503
(dp8504
bsbsbsg4739
(iplugins.pylisp
ConsCell
p8505
(dp8506
g2753
(iplugins.pylisp
Symbol
p8507
(dp8508
g1977
g8502
sbsg2757
(iplugins.pylisp
Nil
p8509
(dp8510
bsbsg4747
g0
sbs(iplugins.pylisp
Symbol
p8511
(dp8512
g2675
S'a'
p8513
sb(iplugins.pylisp
Macro
p8514
(dp8515
g2679
(iplugins.pylisp
Nil
p8516
(dp8517
bsg2734
(iplugins.pylisp
ConsCell
p8518
(dp8519
g2685
(iplugins.pylisp
Symbol
p8520
(dp8521
g2675
S'x'
p8522
sbsg2691
(iplugins.pylisp
Nil
p8523
(dp8524
bsbsg2747
g0
sbs(iplugins.pylisp
Symbol
p8525
(dp8526
g1977
S'\xe7\xb2\xbe\xe8\x82\x89'
p8527
sb(iplugins.pylisp
Symbol
p8528
(dp8529
g1977
S'k\xc3\xb6tt'
p8530
sbs(iplugins.pylisp
Symbol
p8531
(dp8532
g1653
S'third'
p8533
sb(iplugins.pylisp
Lambda
p8534
(dp8535
g1657
(iplugins.pylisp
ExpressionBody
p8536
(dp8537
g1660
(iplugins.pylisp
ConsCell
p8538
(dp8539
g1663
(iplugins.pylisp
ConsCell
p8540
(dp8541
g1663
(iplugins.pylisp
Symbol
p8542
(dp8543
g1653
S'nth'
p8544
sbsg1669
(iplugins.pylisp
ConsCell
p8545
(dp8546
g1663
(iplugins.pylisp
Symbol
p8547
(dp8548
g1653
g1771
sbsg1669
(iplugins.pylisp
ConsCell
p8549
(dp8550
g1663
(iplugins.pylisp
Integer
p8551
(dp8552
g1674
I2
sbsg1669
(iplugins.pylisp
Nil
p8553
(dp8554
bsbsbsbsg1669
(iplugins.pylisp
Nil
p8555
(dp8556
bsbsbsg1685
(iplugins.pylisp
ConsCell
p8557
(dp8558
g1663
(iplugins.pylisp
Symbol
p8559
(dp8560
g1653
g1771
sbsg1669
(iplugins.pylisp
Nil
p8561
(dp8562
bsbsg1692
g0
sbs(iplugins.pylisp
Symbol
p8563
(dp8564
g6
S'nomrate'
p8565
sb(iplugins.pylisp
Lambda
p8566
(dp8567
g10
(iplugins.pylisp
ExpressionBody
p8568
(dp8569
g13
(iplugins.pylisp
ConsCell
p8570
(dp8571
g16
(iplugins.pylisp
ConsCell
p8572
(dp8573
g16
(iplugins.pylisp
Symbol
p8574
(dp8575
g6
S'str-join'
p8576
sbsg22
(iplugins.pylisp
ConsCell
p8577
(dp8578
g16
(iplugins.pylisp
ConsCell
p8579
(dp8580
g16
(iplugins.pylisp
Symbol
p8581
(dp8582
g6
S'list'
p8583
sbsg22
(iplugins.pylisp
ConsCell
p8584
(dp8585
g16
(iplugins.pylisp
ConsCell
p8586
(dp8587
g16
(iplugins.pylisp
Symbol
p8588
(dp8589
g6
S'omnom'
p8590
sbsg22
(iplugins.pylisp
ConsCell
p8591
(dp8592
g16
(iplugins.pylisp
ConsCell
p8593
(dp8594
g16
(iplugins.pylisp
Symbol
p8595
(dp8596
g6
S'rand'
p8597
sbsg22
(iplugins.pylisp
ConsCell
p8598
(dp8599
g16
(iplugins.pylisp
Integer
p8600
(dp8601
g39
I10
sbsg22
(iplugins.pylisp
Nil
p8602
(dp8603
bsbsbsg22
(iplugins.pylisp
Nil
p8604
(dp8605
bsbsbsg22
(iplugins.pylisp
ConsCell
p8606
(dp8607
g16
(iplugins.pylisp
Symbol
p8608
(dp8609
g6
S'name'
p8610
sbsg22
(iplugins.pylisp
Nil
p8611
(dp8612
bsbsbsbsg22
(iplugins.pylisp
ConsCell
p8613
(dp8614
g16
(iplugins.pylisp
String
p8615
(dp8616
g39
S': '
p8617
sbsg22
(iplugins.pylisp
Nil
p8618
(dp8619
bsbsbsbsg22
(iplugins.pylisp
Nil
p8620
(dp8621
bsbsbsg94
(iplugins.pylisp
ConsCell
p8622
(dp8623
g16
(iplugins.pylisp
Symbol
p8624
(dp8625
g6
S'name'
p8626
sbsg22
(iplugins.pylisp
Nil
p8627
(dp8628
bsbsg105
g0
sbs(iplugins.pylisp
Symbol
p8629
(dp8630
g6881
S'k\xc3\xb6pstatus'
p8631
sb(iplugins.pylisp
Lambda
p8632
(dp8633
S'expression'
p8634
(iplugins.pylisp
ExpressionBody
p8635
(dp8636
S'expressions'
p8637
(iplugins.pylisp
ConsCell
p8638
(dp8639
S'car'
p8640
(iplugins.pylisp
ConsCell
p8641
(dp8642
g8640
(iplugins.pylisp
Symbol
p8643
(dp8644
g6881
S'command'
p8645
sbsS'cdr'
p8646
(iplugins.pylisp
ConsCell
p8647
(dp8648
g8640
(iplugins.pylisp
String
p8649
(dp8650
S'value'
p8651
S'kolli'
p8652
sbsg8646
(iplugins.pylisp
ConsCell
p8653
(dp8654
g8640
(iplugins.pylisp
String
p8655
(dp8656
g8651
S'RT036991925HK'
p8657
sbsg8646
(iplugins.pylisp
Nil
p8658
(dp8659
bsbsbsbsg8646
(iplugins.pylisp
Nil
p8660
(dp8661
bsbsbsS'parameters'
p8662
(iplugins.pylisp
Nil
p8663
(dp8664
bsS'env'
p8665
g0
sbs(iplugins.pylisp
Symbol
p8666
(dp8667
g420
S'setq'
p8668
sb(iplugins.pylisp
Lambda
p8669
(dp8670
g1705
(iplugins.pylisp
ExpressionBody
p8671
(dp8672
g1708
(iplugins.pylisp
ConsCell
p8673
(dp8674
g424
(iplugins.pylisp
ConsCell
p8675
(dp8676
g424
(iplugins.pylisp
Symbol
p8677
(dp8678
g420
S'print'
p8679
sbsg428
(iplugins.pylisp
ConsCell
p8680
(dp8681
g424
(iplugins.pylisp
String
p8682
(dp8683
g1433
S'nej du!'
p8684
sbsg428
(iplugins.pylisp
Nil
p8685
(dp8686
bsbsbsg428
(iplugins.pylisp
Nil
p8687
(dp8688
bsbsbsg1725
(iplugins.pylisp
ConsCell
p8689
(dp8690
g424
(iplugins.pylisp
Symbol
p8691
(dp8692
g420
g2176
sbsg428
(iplugins.pylisp
ConsCell
p8693
(dp8694
g424
(iplugins.pylisp
Symbol
p8695
(dp8696
g420
S'y'
p8697
sbsg428
(iplugins.pylisp
Nil
p8698
(dp8699
bsbsbsg1728
g0
sbs(iplugins.pylisp
Symbol
p8700
(dp8701
g868
S'time'
p8702
sb(iplugins.pylisp
Lambda
p8703
(dp8704
g857
(iplugins.pylisp
ExpressionBody
p8705
(dp8706
g860
(iplugins.pylisp
ConsCell
p8707
(dp8708
g863
(iplugins.pylisp
ConsCell
p8709
(dp8710
g863
(iplugins.pylisp
Symbol
p8711
(dp8712
g868
S'str-split'
p8713
sbsg870
(iplugins.pylisp
ConsCell
p8714
(dp8715
g863
(iplugins.pylisp
ConsCell
p8716
(dp8717
g863
(iplugins.pylisp
Symbol
p8718
(dp8719
g868
S'car'
p8720
sbsg870
(iplugins.pylisp
ConsCell
p8721
(dp8722
g863
(iplugins.pylisp
ConsCell
p8723
(dp8724
g863
(iplugins.pylisp
Symbol
p8725
(dp8726
g868
S'str-split'
p8727
sbsg870
(iplugins.pylisp
ConsCell
p8728
(dp8729
g863
(iplugins.pylisp
ConsCell
p8730
(dp8731
g863
(iplugins.pylisp
Symbol
p8732
(dp8733
g868
S'nth'
p8734
sbsg870
(iplugins.pylisp
ConsCell
p8735
(dp8736
g863
(iplugins.pylisp
Integer
p8737
(dp8738
g875
I1
sbsg870
(iplugins.pylisp
ConsCell
p8739
(dp8740
g863
(iplugins.pylisp
ConsCell
p8741
(dp8742
g863
(iplugins.pylisp
Symbol
p8743
(dp8744
g868
S'str-split'
p8745
sbsg870
(iplugins.pylisp
ConsCell
p8746
(dp8747
g863
(iplugins.pylisp
ConsCell
p8748
(dp8749
g863
(iplugins.pylisp
Symbol
p8750
(dp8751
g868
S'command'
p8752
sbsg870
(iplugins.pylisp
ConsCell
p8753
(dp8754
g863
(iplugins.pylisp
String
p8755
(dp8756
g875
S'time'
p8757
sbsg870
(iplugins.pylisp
ConsCell
p8758
(dp8759
g863
(iplugins.pylisp
String
p8760
(dp8761
g875
S'lispnik'
p8762
sbsg870
(iplugins.pylisp
Nil
p8763
(dp8764
bsbsbsbsg870
(iplugins.pylisp
ConsCell
p8765
(dp8766
g863
(iplugins.pylisp
String
p8767
(dp8768
g875
S'T'
p8769
sbsg870
(iplugins.pylisp
Nil
p8770
(dp8771
bsbsbsbsg870
(iplugins.pylisp
Nil
p8772
(dp8773
bsbsbsbsg870
(iplugins.pylisp
ConsCell
p8774
(dp8775
g863
(iplugins.pylisp
String
p8776
(dp8777
g875
S'.'
p8778
sbsg870
(iplugins.pylisp
Nil
p8779
(dp8780
bsbsbsbsg870
(iplugins.pylisp
Nil
p8781
(dp8782
bsbsbsg870
(iplugins.pylisp
ConsCell
p8783
(dp8784
g863
(iplugins.pylisp
String
p8785
(dp8786
g875
S':'
p8787
sbsg870
(iplugins.pylisp
Nil
p8788
(dp8789
bsbsbsbsg870
(iplugins.pylisp
Nil
p8790
(dp8791
bsbsbsg880
(iplugins.pylisp
Nil
p8792
(dp8793
bsg883
g0
sbs(iplugins.pylisp
Symbol
p8794
(dp8795
g1181
S'hello'
p8796
sb(iplugins.pylisp
Lambda
p8797
(dp8798
g6525
(iplugins.pylisp
ExpressionBody
p8799
(dp8800
g6528
(iplugins.pylisp
ConsCell
p8801
(dp8802
g6531
(iplugins.pylisp
ConsCell
p8803
(dp8804
g6531
(iplugins.pylisp
Symbol
p8805
(dp8806
g4898
S'str-append'
p8807
sbsg6536
(iplugins.pylisp
ConsCell
p8808
(dp8809
g6531
(iplugins.pylisp
String
p8810
(dp8811
g4902
S'hello '
p8812
sbsg6536
(iplugins.pylisp
ConsCell
p8813
(dp8814
g6531
(iplugins.pylisp
Symbol
p8815
(dp8816
g4898
S'source'
p8817
sbsg6536
(iplugins.pylisp
Nil
p8818
(dp8819
bsbsbsbsg6536
(iplugins.pylisp
Nil
p8820
(dp8821
bsbsbsg6541
(iplugins.pylisp
Nil
p8822
(dp8823
bsg6544
g0
sbssS'parent'
p8824
Nsb.