(lp0
(iplugins.reminder
Reminder
p1
(dp2
S'nick'
p3
S'teetow'
p4
sS'message'
p5
S'Formel-1'
p6
sS'trigger_time'
p7
cdatetime
datetime
p8
(S'\x07\xd8\x04\x1a\r7\x00\x00\x00\x00'
p9
tp10
Rp11
sba(iplugins.reminder
Reminder
p12
(dp13
S'nick'
p14
S'Srekel__'
p15
sS'message'
p16
S'tv\xe4tt!'
p17
sS'trigger_time'
p18
g8
(S'\x07\xd8\x07\x05\x172\x00\x00\x00\x00'
p19
tp20
Rp21
sba.