(lp0
(iplugins.reminder
Reminder
p1
(dp2
S'nick'
p3
S'teetow'
p4
sS'message'
p5
S'Formel-1'
p6
sS'trigger_time'
p7
cdatetime
datetime
p8
(S'\x07\xd8\x04\x1a\r7\x00\x00\x00\x00'
p9
tp10
Rp11
sba(iplugins.reminder
Reminder
p12
(dp13
S'nick'
p14
S'Srekel__'
p15
sS'message'
p16
S'tv\xe4tt!'
p17
sS'trigger_time'
p18
g8
(S'\x07\xd8\x07\x05\x172\x00\x00\x00\x00'
p19
tp20
Rp21
sba(iplugins.reminder
Reminder
p22
(dp23
S'nick'
p24
S'Srekel_'
p25
sS'message'
p26
S'buss'
p27
sS'trigger_time'
p28
g8
(S'\x07\xd8\x08\x02\x17(\x00\x00\x00\x00'
p29
tp30
Rp31
sba(iplugins.reminder
Reminder
p32
(dp33
g24
S'Papper'
p34
sg26
S'LOL'
p35
sg28
g8
(S'\x07\xd8\x08\x02\x17;\x00\x00\x00\x00'
p36
tp37
Rp38
sba(iplugins.reminder
Reminder
p39
(dp40
S'nick'
p41
S'Merola'
p42
sS'message'
p43
S'lol'
p44
sS'trigger_time'
p45
g8
(S'\x07\xd8\t\x08\x16\x00\x00\x00\x00\x00'
p46
tp47
Rp48
sba(iplugins.reminder
Reminder
p49
(dp50
S'nick'
p51
S'Merola'
p52
sS'message'
p53
S'riset \xc3\xa4r klart!'
p54
sS'trigger_time'
p55
g8
(S'\x07\xd8\n\x01\x13,\x00\x00\x00\x00'
p56
tp57
Rp58
sba(iplugins.reminder
Reminder
p59
(dp60
S'nick'
p61
S'J-ohaN'
p62
sS'message'
p63
S'PANTA BURKAR K\xc3\x96P CIGG'
p64
sS'trigger_time'
p65
g8
(S'\x07\xd8\n\t\x15(\x00\x00\x00\x00'
p66
tp67
Rp68
sba(iplugins.reminder
Reminder
p69
(dp70
g61
S'Hagbard_'
p71
sg63
S'SOV SOV SOV'
p72
sg65
g8
(S'\x07\xd8\n\t\x16\x00\x00\x00\x00\x00'
p73
tp74
Rp75
sba(iplugins.reminder
Reminder
p76
(dp77
g61
S'Hagbard_'
p78
sg63
S'Ska inte du sova?'
p79
sg65
g8
(S'\x07\xd8\n\t\x17\x00\x00\x00\x00\x00'
p80
tp81
Rp82
sba(iplugins.reminder
Reminder
p83
(dp84
g61
S'J-ohaN'
p85
sg63
S'f\xc3\xa4rdiggrillad 360'
p86
sg65
g8
(S'\x07\xd8\n\n\x00#\x00\x00\x00\x00'
p87
tp88
Rp89
sba(iplugins.reminder
Reminder
p90
(dp91
S'nick'
p92
S'Sudden_'
p93
sS'message'
p94
S'ta ur pizzaj\xe4veln'
p95
sS'trigger_time'
p96
g8
(S'\x07\xd8\x0c\x04\x10\x00\x00\x00\x00\x00'
p97
tp98
Rp99
sba(iplugins.reminder
Reminder
p100
(dp101
S'nick'
p102
S'jmbnik'
p103
sS'message'
p104
S'.reminder 17:26 .reminder 17:27 .reminder 17.28 .reminder 17:29 hej! :DDD'
p105
sS'trigger_time'
p106
g8
(S'\x07\xd8\x0c\n\x11\x19\x00\x00\x00\x00'
p107
tp108
Rp109
sba(iplugins.reminder
Reminder
p110
(dp111
S'nick'
p112
S'Papper'
p113
sS'message'
p114
S'Titta p\xe5 dakar-sammandrag'
p115
sS'trigger_time'
p116
g8
(S'\x07\xd9\x01\x07\x16:\x00\x00\x00\x00'
p117
tp118
Rp119
sba(iplugins.reminder
Reminder
p120
(dp121
S'nick'
p122
S'Sudden'
p123
sS'message'
p124
S'tja'
p125
sS'trigger_time'
p126
g8
(S'\x07\xd9\x01\x18\x05;\x00\x00\x00\x00'
p127
tp128
Rp129
sba(iplugins.reminder
Reminder
p130
(dp131
g122
S'Sudden'
p132
sg124
S'TJjenare'
p133
sg126
g8
(S'\x07\xd9\x01\x18\x06\x1c\x00\x00\x00\x00'
p134
tp135
Rp136
sba(iplugins.reminder
Reminder
p137
(dp138
g122
S'Sudden'
p139
sg124
S'mhm'
p140
sg126
g8
(S'\x07\xd9\x01\x18\x07\x00\x00\x00\x00\x00'
p141
tp142
Rp143
sba(iplugins.reminder
Reminder
p144
(dp145
g122
S'AndyNc'
p146
sg124
S'\xc3\x96hm? Test!'
p147
sg126
g8
(S'\x07\xd9\x01\x18\n\x0e\x00\x00\x00\x00'
p148
tp149
Rp150
sba(iplugins.reminder
Reminder
p151
(dp152
S'nick'
p153
S'maqqan'
p154
sS'message'
p155
S'v\xc3\xa4ck pappa'
p156
sS'trigger_time'
p157
g8
(S'\x07\xd9\x02\x10\x02(\x00\x00\x00\x00'
p158
tp159
Rp160
sba(iplugins.reminder
Reminder
p161
(dp162
g153
S'maqqan'
p163
sg155
S'v\xc3\xa4ck pappa'
p164
sg157
g8
(S'\x07\xd9\x02\x0f\x05-\x00\x00\x00\x00'
p165
tp166
Rp167
sba(iplugins.reminder
Reminder
p168
(dp169
g153
S'maqqan'
p170
sg155
S'v\xc3\xa4ck brodern'
p171
sg157
g8
(S'\x07\xd9\x02\x0f\t\x00\x00\x00\x00\x00'
p172
tp173
Rp174
sba(iplugins.reminder
Reminder
p175
(dp176
g153
S'Ulfalizer'
p177
sg155
S'M\xe5ste k\xf6pa hem mer tram'
p178
sg157
g8
(S'\x07\xd9\x02\x0f\x0b\x0b\x00\x00\x00\x00'
p179
tp180
Rp181
sba(iplugins.reminder
Reminder
p182
(dp183
g153
S'Cray-on-'
p184
sg155
S'hej'
p185
sg157
g8
(S'\x07\xd9\x02\x0f\x03\x14\x00\x00\x00\x00'
p186
tp187
Rp188
sba(iplugins.reminder
Reminder
p189
(dp190
g153
S'maqqan'
p191
sg155
S'hej!'
p192
sg157
g8
(S'\x07\xd9\x02\x0f\x03\x18\x00\x00\x00\x00'
p193
tp194
Rp195
sba(iplugins.reminder
Reminder
p196
(dp197
g153
S'gordonfreeman'
p198
sg155
S'r\xc3\xa4dda v\xc3\xa4rlden'
p199
sg157
g8
(S'\x07\xd9\x02\x0f\n\x00\x00\x00\x00\x00'
p200
tp201
Rp202
sba(iplugins.reminder
Reminder
p203
(dp204
S'nick'
p205
S'Srekel'
p206
sS'message'
p207
S'gogogo'
p208
sS'trigger_time'
p209
g8
(S'\x07\xd9\x04\x05\x0b\x11\x00\x00\x00\x00'
p210
tp211
Rp212
sba(iplugins.reminder
Reminder
p213
(dp214
g205
S'IcE^'
p215
sg207
S'helo'
p216
sg209
g8
(S'\x07\xd9\x04\x05\x0b\x03\x00\x00\x00\x00'
p217
tp218
Rp219
sba(iplugins.reminder
Reminder
p220
(dp221
g205
S'IcE^'
p222
sg207
S'helo'
p223
sg209
g8
(S'\x07\xd9\x04\x05\x0b\x03\x00\x00\x00\x00'
p224
tp225
Rp226
sba(iplugins.reminder
Reminder
p227
(dp228
g205
S'IcE^'
p229
sg207
S'helo'
p230
sg209
g8
(S'\x07\xd9\x04\x05\x0b\x03\x00\x00\x00\x00'
p231
tp232
Rp233
sba(iplugins.reminder
Reminder
p234
(dp235
g205
S'IcE^'
p236
sg207
S'helo'
p237
sg209
g8
(S'\x07\xd9\x04\x05\x0b\x03\x00\x00\x00\x00'
p238
tp239
Rp240
sba(iplugins.reminder
Reminder
p241
(dp242
g205
S'IcE^'
p243
sg207
S'helo'
p244
sg209
g8
(S'\x07\xd9\x04\x05\x0b\x03\x00\x00\x00\x00'
p245
tp246
Rp247
sba(iplugins.reminder
Reminder
p248
(dp249
g205
S'IcE^'
p250
sg207
S'tv\xc3\xa4tta'
p251
sg209
g8
(S'\x07\xd9\x04\x05\x0c;\x00\x00\x00\x00'
p252
tp253
Rp254
sba(iplugins.reminder
Reminder
p255
(dp256
g205
S'buffi'
p257
sg207
S'SPR\xc3\x84NG SVERIGE'
p258
sg209
g8
(S'\x07\xd9\x04\x05\x10\x00\x00\x00\x00\x00'
p259
tp260
Rp261
sba(iplugins.reminder
Reminder
p262
(dp263
S'nick'
p264
S'grul'
p265
sS'message'
p266
S'hello'
p267
sS'trigger_time'
p268
g8
(S'\x07\xd9\x06\t\x15\x1e\x00\x00\x00\x00'
p269
tp270
Rp271
sba(iplugins.reminder
Reminder
p272
(dp273
S'nick'
p274
S'buffi'
p275
sS'message'
p276
S'lol'
p277
sS'trigger_time'
p278
g8
(S'\x07\xd9\x06\x1d\x17\x18\x00\x00\x00\x00'
p279
tp280
Rp281
sba(iplugins.reminder
Reminder
p282
(dp283
S'nick'
p284
S'jondoe'
p285
sS'message'
p286
S'st\xe4da \xf6verv\xe5ning, ta ner tv\xe4tt, h\xe4nga tv\xe4tt, tv\xe4tta tv\xe4tt!!!!!!!!!'
p287
sS'trigger_time'
p288
g8
(S'\x07\xd9\x07\x19\x11\x00\x00\x00\x00\x00'
p289
tp290
Rp291
sba(iplugins.reminder
Reminder
p292
(dp293
g284
S'Papper'
p294
sg286
S'titta till mirkken'
p295
sg288
g8
(S'\x07\xd9\x07\x19\x0f\x00\x00\x00\x00\x00'
p296
tp297
Rp298
sba(iplugins.reminder
Reminder
p299
(dp300
g284
S'Puffen'
p301
sg286
S'h\xe4mta posten'
p302
sg288
g8
(S'\x07\xd9\x07\x19\x0f\x00\x00\x00\x00\x00'
p303
tp304
Rp305
sba(iplugins.reminder
Reminder
p306
(dp307
g284
S'jondoe'
p308
sg286
S'test'
p309
sg288
g8
(S'\x07\xd9\x07\x19\x15\x1d\x00\x00\x00\x00'
p310
tp311
Rp312
sba(iplugins.reminder
Reminder
p313
(dp314
g284
S'jonte'
p315
sg286
S'best\xe4ll pizza'
p316
sg288
g8
(S'\x07\xd9\x07\x1a\x15\x0f\x00\x00\x00\x00'
p317
tp318
Rp319
sba.