(dp0
S'jonex'
p1
I39912000
sS'd2a'
p2
I28824001
sS'lolbajs'
p3
I123
sS'd1a'
p4
I28823001
sS'd1b'
p5
I28823002
sS'd1c'
p6
I28823003
sS'grinden'
p7
I25867000
sS'd2b'
p8
I28824002
sS'd2'
p9
I28824000
sS'd3a'
p10
I28825001
s.