(lp0
ccopy_reg
_reconstructor
p1
(cplugins.spotify
Spot
p2
c__builtin__
object
p3
Ntp4
Rp5
(dp6
S'prot'
p7
S'http'
p8
sS'spot'
p9
S'4wL2pDaBHiFPnbYsbJ7tSJ'
p10
sbag1
(g2
g3
Ntp11
Rp12
(dp13
g7
g8
sg9
S'4wL2pDaBHiFPnbYsbJ7tSJ'
p14
sbag1
(g2
g3
Ntp15
Rp16
(dp17
g7
S'spotify'
p18
sg9
S'3fQXuxHi1P1M8En8xieFJF'
p19
sbag1
(g2
g3
Ntp20
Rp21
(dp22
g7
g8
sg9
S'4wL2pDaBHiFPnbYsbJ7tSJ'
p23
sbag1
(g2
g3
Ntp24
Rp25
(dp26
S'prot'
p27
S'spotify'
p28
sS'spot'
p29
S'3fQXuxHi1P1M8En8xieFJF'
p30
sbag1
(g2
g3
Ntp31
Rp32
(dp33
g27
S'http'
p34
sg29
S'3fQXuxHi1P1M8En8xieFJF'
p35
sbag1
(g2
g3
Ntp36
Rp37
(dp38
S'prot'
p39
S'http'
p40
sS'spot'
p41
S'0NKA2GWoXo8djibJzIwr3x'
p42
sbag1
(g2
g3
Ntp43
Rp44
(dp45
g39
g40
sg41
S'1xz2x28NqMFRSx4IfJkC5p'
p46
sbag1
(g2
g3
Ntp47
Rp48
(dp49
g39
S'spotify'
p50
sg41
S'6L89mwZXSOwYl76YXfX13s'
p51
sbag1
(g2
g3
Ntp52
Rp53
(dp54
g39
g40
sg41
S'3E1b0oOWfFnXRvFoCvPEVZ'
p55
sbag1
(g2
g3
Ntp56
Rp57
(dp58
g39
g50
sg41
S'6L89mwZXSOwYl76YXfX13s'
p59
sbag1
(g2
g3
Ntp60
Rp61
(dp62
g39
g40
sg41
S'76AZdI6UdsoIwd0DYljB81'
p63
sbag1
(g2
g3
Ntp64
Rp65
(dp66
g39
g50
sg41
S'2UKkLqST2xWpK8n1b0Xr5Z'
p67
sbag1
(g2
g3
Ntp68
Rp69
(dp70
g39
g50
sg41
S'50mwGp3PgKoZldhBvfy2cf'
p71
sbag1
(g2
g3
Ntp72
Rp73
(dp74
S'prot'
p75
S'http'
p76
sS'spot'
p77
S'5yVigV4tmPKlsXzJnoON1Q'
p78
sbag1
(g2
g3
Ntp79
Rp80
(dp81
g75
g76
sg77
S'5yVigV4tmPKlsXzJnoON1Q'
p82
sbag1
(g2
g3
Ntp83
Rp84
(dp85
g75
S'spotify'
p86
sg77
S'5yVigV4tmPKlsXzJnoON1Q'
p87
sbag1
(g2
g3
Ntp88
Rp89
(dp90
g75
g76
sg77
S'0DCdMiGUOlZM8YRRF2kzR7'
p91
sbag1
(g2
g3
Ntp92
Rp93
(dp94
g75
g76
sg77
S'0DCdMiGUOlZM8YRRF2kzR7'
p95
sbag1
(g2
g3
Ntp96
Rp97
(dp98
g75
g86
sg77
S'0DCdMiGUOlZM8YRRF2kzR7'
p99
sbag1
(g2
g3
Ntp100
Rp101
(dp102
g75
g76
sg77
S'32lv5JM00CWiq7ga2wH2YW'
p103
sbag1
(g2
g3
Ntp104
Rp105
(dp106
g75
g76
sg77
S'32lv5JM00CWiq7ga2wH2YW'
p107
sbag1
(g2
g3
Ntp108
Rp109
(dp110
g75
g86
sg77
S'7AzFID6u1b3zIWbd9pb8Dk'
p111
sbag1
(g2
g3
Ntp112
Rp113
(dp114
g75
g86
sg77
S'7AzFID6u1b3zIWbd9pb8Dk'
p115
sbag1
(g2
g3
Ntp116
Rp117
(dp118
g75
g86
sg77
S'7AzFID6u1b3zIWbd9pb8Dk'
p119
sbag1
(g2
g3
Ntp120
Rp121
(dp122
g75
g86
sg77
S'4xZvQCnT9a7D34rVxBBQom'
p123
sbag1
(g2
g3
Ntp124
Rp125
(dp126
g75
g86
sg77
S'1iNeZGJsoC0D7ZyJTdIbDS'
p127
sbag1
(g2
g3
Ntp128
Rp129
(dp130
g75
g86
sg77
S'7dYj7QO4jR8n3zUAgeFSiL'
p131
sbag1
(g2
g3
Ntp132
Rp133
(dp134
g75
g86
sg77
S'0rg1hGpSgVdOX3MBVFkSbR'
p135
sbag1
(g2
g3
Ntp136
Rp137
(dp138
g75
g86
sg77
S'5TzPzFtkhJvDPUmSlfqm3s'
p139
sbag1
(g2
g3
Ntp140
Rp141
(dp142
g75
g86
sg77
S'1GCpt29FS4upmY8mHSGhE2'
p143
sbag1
(g2
g3
Ntp144
Rp145
(dp146
g75
g86
sg77
S'6JEK0CvvjDjjMUBFoXShNZ'
p147
sbag1
(g2
g3
Ntp148
Rp149
(dp150
g75
g86
sg77
S'7AzFID6u1b3zIWbd9pb8Dk'
p151
sbag1
(g2
g3
Ntp152
Rp153
(dp154
g75
g86
sg77
S'7AzFID6u1b3zIWbd9pb8Dk'
p155
sbag1
(g2
g3
Ntp156
Rp157
(dp158
S'prot'
p159
S'http'
p160
sS'spot'
p161
S'6PrKZUXJPmBiobMN44yR8Y'
p162
sbag1
(g2
g3
Ntp163
Rp164
(dp165
g159
g160
sg161
S'2wdkUQIPQ8ktcDpYWRMvLJ'
p166
sbag1
(g2
g3
Ntp167
Rp168
(dp169
g159
g160
sg161
S'7ehXSFlAsbadnSM93Pj4jT'
p170
sbag1
(g2
g3
Ntp171
Rp172
(dp173
g159
g160
sg161
S'6E5JDnaSWqj7G0eVUiUjjh'
p174
sbag1
(g2
g3
Ntp175
Rp176
(dp177
g159
S'spotify'
p178
sg161
S'1t7QE6QxZnV2b9UT5tdf5X'
p179
sbag1
(g2
g3
Ntp180
Rp181
(dp182
g159
g160
sg161
S'7LOyk6JmHNeBWgWNda10FS'
p183
sbag1
(g2
g3
Ntp184
Rp185
(dp186
g159
g178
sg161
S'3IvTmR4KpKJ4M5Hq6XQIdd'
p187
sbag1
(g2
g3
Ntp188
Rp189
(dp190
g159
g160
sg161
S'3IvTmR4KpKJ4M5Hq6XQIdd'
p191
sbag1
(g2
g3
Ntp192
Rp193
(dp194
g159
g160
sg161
S'3IvTmR4KpKJ4M5Hq6XQIdd'
p195
sbag1
(g2
g3
Ntp196
Rp197
(dp198
g159
g160
sg161
S'4mzn0B0xKlK2kpwngstFWi'
p199
sbag1
(g2
g3
Ntp200
Rp201
(dp202
g159
g160
sg161
S'2ZkqbuzalAWNHOmATLwPTy'
p203
sbag1
(g2
g3
Ntp204
Rp205
(dp206
g159
g160
sg161
S'6VCqx14OVaX9uwSvC0PvAG'
p207
sbag1
(g2
g3
Ntp208
Rp209
(dp210
g159
g160
sg161
S'0RhGI1NZ77ajTr4hdiJPNr'
p211
sbag1
(g2
g3
Ntp212
Rp213
(dp214
S'prot'
p215
S'http'
p216
sS'spot'
p217
S'4x6ZRJcOLn25F1xFn9gJe7'
p218
sbag1
(g2
g3
Ntp219
Rp220
(dp221
g215
S'spotify'
p222
sg217
S'6DWDOmCwl4SEpuue0QJSyh'
p223
sbag1
(g2
g3
Ntp224
Rp225
(dp226
g215
g222
sg217
S'6DWDOmCwl4SEpuue0QJSyh'
p227
sbag1
(g2
g3
Ntp228
Rp229
(dp230
g215
g222
sg217
S'6DWDOmCwl4SEpuue0QJSyh'
p231
sbag1
(g2
g3
Ntp232
Rp233
(dp234
g215
g222
sg217
S'2seIOckxV2T83NJ2s4V8ym'
p235
sbag1
(g2
g3
Ntp236
Rp237
(dp238
g215
g216
sg217
S'4TQZ4gQduLiY5J3rFXzyZs'
p239
sbag1
(g2
g3
Ntp240
Rp241
(dp242
g215
g222
sg217
S'3RVQbdYml0bZH94CWOigJ0'
p243
sbag1
(g2
g3
Ntp244
Rp245
(dp246
g215
g216
sg217
S'7xZWwC4LNNG6FpCBc1If9x'
p247
sbag1
(g2
g3
Ntp248
Rp249
(dp250
g215
g216
sg217
S'5sUfO7QQTnsutpPDrqvJxt'
p251
sbag1
(g2
g3
Ntp252
Rp253
(dp254
g215
g222
sg217
S'2iZMxOwYen7XbRWqlhqMkZ'
p255
sbag1
(g2
g3
Ntp256
Rp257
(dp258
g215
g222
sg217
S'2iZMxOwYen7XbRWqlhqMkZ'
p259
sbag1
(g2
g3
Ntp260
Rp261
(dp262
g215
g222
sg217
S'0j9aigyo7QgCMitnZUuMnS'
p263
sbag1
(g2
g3
Ntp264
Rp265
(dp266
g215
g216
sg217
S'2w4kcKu5R5dpoDnmGdW2X7'
p267
sbag1
(g2
g3
Ntp268
Rp269
(dp270
g215
g222
sg217
S'1TDoIi88XOiBJ8xwjRuVme'
p271
sbag1
(g2
g3
Ntp272
Rp273
(dp274
g215
g222
sg217
S'6CZpJuPIMAMxg3HONneMSG'
p275
sbag1
(g2
g3
Ntp276
Rp277
(dp278
g215
g216
sg217
S'7ChD5hekmO6mNYE0huGNET'
p279
sbag1
(g2
g3
Ntp280
Rp281
(dp282
g215
g216
sg217
S'5YR4OOJkATAuuIwE0BFnBP'
p283
sbag1
(g2
g3
Ntp284
Rp285
(dp286
g215
g222
sg217
S'1MPCNdNaGiVvVAuRWWM3Ki'
p287
sbag1
(g2
g3
Ntp288
Rp289
(dp290
g215
g222
sg217
S'4i5gmkaExUSfULyu6eP5f2'
p291
sbag1
(g2
g3
Ntp292
Rp293
(dp294
g215
g222
sg217
S'2EKzS2s2VKnbQ7jxyk2WHi'
p295
sbag1
(g2
g3
Ntp296
Rp297
(dp298
g215
g222
sg217
S'2EKzS2s2VKnbQ7jxyk2WHi'
p299
sbag1
(g2
g3
Ntp300
Rp301
(dp302
g215
g222
sg217
S'6YqmVdIHH31i5TnugW8013'
p303
sbag1
(g2
g3
Ntp304
Rp305
(dp306
g215
g222
sg217
S'2y7ttEjT8PDQj7izDVOkZW'
p307
sbag1
(g2
g3
Ntp308
Rp309
(dp310
g215
g222
sg217
S'0JeQIRyzEqcIbJRYnfSSpH'
p311
sbag1
(g2
g3
Ntp312
Rp313
(dp314
g215
g222
sg217
S'0ekX8f90SM9yxk9ipmhUvO'
p315
sbag1
(g2
g3
Ntp316
Rp317
(dp318
g215
g216
sg217
S'4QeWMGQEyuQSsnzpY7ryVf'
p319
sbag1
(g2
g3
Ntp320
Rp321
(dp322
g215
g216
sg217
S'2H1T29kZJyV7Jp0WMcVJHD'
p323
sbag1
(g2
g3
Ntp324
Rp325
(dp326
g215
g222
sg217
S'46WVVHERbHreW3Ap2ztQt8'
p327
sbag1
(g2
g3
Ntp328
Rp329
(dp330
g215
g222
sg217
S'46WVVHERbHreW3Ap2ztQt8'
p331
sbag1
(g2
g3
Ntp332
Rp333
(dp334
g215
g216
sg217
S'3bdGdaASvWpQbO5p8dLIMa'
p335
sbag1
(g2
g3
Ntp336
Rp337
(dp338
S'prot'
p339
S'spotify'
p340
sS'spot'
p341
S'1oeybzUQEnEsNR2couGr6B'
p342
sbag1
(g2
g3
Ntp343
Rp344
(dp345
g339
g340
sg341
S'1oeybzUQEnEsNR2couGr6B'
p346
sbag1
(g2
g3
Ntp347
Rp348
(dp349
g339
S'http'
p350
sg341
S'74ONqTl0LFGPmIY97Z8iVk'
p351
sbag1
(g2
g3
Ntp352
Rp353
(dp354
g339
g350
sg341
S'0iBtZXh2WlpMz21kyAYJ2T'
p355
sbag1
(g2
g3
Ntp356
Rp357
(dp358
g339
g340
sg341
S'6TgIDOQEymuMiYDMrzDB1u'
p359
sbag1
(g2
g3
Ntp360
Rp361
(dp362
g339
g350
sg341
S'7t9ewXPhhXM2RfNKcnqeUL'
p363
sbag1
(g2
g3
Ntp364
Rp365
(dp366
g339
g350
sg341
S'38zmD7ZE2LtQmfGNgvPP89'
p367
sbag1
(g2
g3
Ntp368
Rp369
(dp370
g339
g350
sg341
S'4tPfGR4m0sK5yBORvQgqs8'
p371
sbag1
(g2
g3
Ntp372
Rp373
(dp374
g339
g350
sg341
S'68xHoEPqa2k5Y2Dbkgc4vJ'
p375
sbag1
(g2
g3
Ntp376
Rp377
(dp378
g339
g350
sg341
S'6wsTxNS5rKtgpQpIIKhIDo'
p379
sbag1
(g2
g3
Ntp380
Rp381
(dp382
g339
g350
sg341
S'4wENDaZ4pweWHYEJStByD1'
p383
sbag1
(g2
g3
Ntp384
Rp385
(dp386
g339
g350
sg341
S'2B3dN5WtosKi02Zune8AQ5'
p387
sbag1
(g2
g3
Ntp388
Rp389
(dp390
g339
g350
sg341
S'591QP4eGNz2PQ6BAHHLPDg'
p391
sbag1
(g2
g3
Ntp392
Rp393
(dp394
g339
g350
sg341
S'0d5RXhvbSSlQSzUE0gNPNd'
p395
sbag1
(g2
g3
Ntp396
Rp397
(dp398
g339
g340
sg341
S'2oSpQ7QtIKTNFfA08Cy0ku'
p399
sbag1
(g2
g3
Ntp400
Rp401
(dp402
g339
g340
sg341
S'2oSpQ7QtIKTNFfA08Cy0ku'
p403
sbag1
(g2
g3
Ntp404
Rp405
(dp406
g339
g350
sg341
S'2AkcjsKlRbIBYGAgpQVFii'
p407
sbag1
(g2
g3
Ntp408
Rp409
(dp410
g339
g350
sg341
S'1H44xnZ2YmutpmCpkwwZNn'
p411
sbag1
(g2
g3
Ntp412
Rp413
(dp414
g339
g350
sg341
S'7uOqItg25qRArZCuZocueC'
p415
sbag1
(g2
g3
Ntp416
Rp417
(dp418
g339
g340
sg341
S'2FRS0bY1OTTENEd0N6ZHhc'
p419
sbag1
(g2
g3
Ntp420
Rp421
(dp422
g339
g350
sg341
S'34nphLc42nhtz3oEr5wXXX'
p423
sbag1
(g2
g3
Ntp424
Rp425
(dp426
g339
g350
sg341
S'5umoZmJLW98rlImZulfLp5'
p427
sbag1
(g2
g3
Ntp428
Rp429
(dp430
g339
g350
sg341
S'1AGBnwoQ10U8OLj9qTrw1f'
p431
sbag1
(g2
g3
Ntp432
Rp433
(dp434
g339
g350
sg341
S'2VEJK9KZfPPAkW1PxeVYti'
p435
sbag1
(g2
g3
Ntp436
Rp437
(dp438
g339
g350
sg341
S'2TBwIEhkzVeMQ5bUlDaOlb'
p439
sbag1
(g2
g3
Ntp440
Rp441
(dp442
g339
g340
sg341
S'29h9U8Q6q87Kj6dMn0RfLj'
p443
sbag1
(g2
g3
Ntp444
Rp445
(dp446
g339
g340
sg341
S'29h9U8Q6q87Kj6dMn0RfLj'
p447
sbag1
(g2
g3
Ntp448
Rp449
(dp450
g339
g340
sg341
S'6VBy3FLlKZOWV85xmAXmr8'
p451
sbag1
(g2
g3
Ntp452
Rp453
(dp454
g339
g340
sg341
S'6VBy3FLlKZOWV85xmAXmr8'
p455
sbag1
(g2
g3
Ntp456
Rp457
(dp458
g339
g350
sg341
S'4YxLxDx6U9KowxBIDU5R9B'
p459
sbag1
(g2
g3
Ntp460
Rp461
(dp462
g339
g340
sg341
S'2r4bZr1TFyyXe03A1STRCx'
p463
sbag1
(g2
g3
Ntp464
Rp465
(dp466
g339
g340
sg341
S'1wCZKu0RbCmCsbS86hkeIR'
p467
sbag1
(g2
g3
Ntp468
Rp469
(dp470
g339
g350
sg341
S'1L3aPNyZFPM6XSk1cSyZWm'
p471
sbag1
(g2
g3
Ntp472
Rp473
(dp474
g339
g350
sg341
S'6wdqu9Q93bLp650T34odav'
p475
sbag1
(g2
g3
Ntp476
Rp477
(dp478
g339
g350
sg341
S'4RraeyhZr06gkUY0ORFAk2'
p479
sbag1
(g2
g3
Ntp480
Rp481
(dp482
g339
g350
sg341
S'6wdqu9Q93bLp650T34odav'
p483
sbag1
(g2
g3
Ntp484
Rp485
(dp486
g339
g340
sg341
S'0l2NaGt7PY8p80QXJiCgZz'
p487
sbag1
(g2
g3
Ntp488
Rp489
(dp490
g339
g350
sg341
S'1EiyLzoLAuCrWT2TjfJ45w'
p491
sbag1
(g2
g3
Ntp492
Rp493
(dp494
g339
g350
sg341
S'07L2b1rNFcywc0coZYUzeV'
p495
sbag1
(g2
g3
Ntp496
Rp497
(dp498
S'prot'
p499
S'spotify'
p500
sS'spot'
p501
S'1eWxnQ8CTkpelpUj8WXs9d'
p502
sbag1
(g2
g3
Ntp503
Rp504
(dp505
g499
g500
sg501
S'1eWxnQ8CTkpelpUj8WXs9d'
p506
sbag1
(g2
g3
Ntp507
Rp508
(dp509
g499
S'http'
p510
sg501
S'6rhVKeUhQTGLIRmQOfc9Wo'
p511
sbag1
(g2
g3
Ntp512
Rp513
(dp514
g499
g510
sg501
S'44go3ZmDNtKdfCc15IseAx'
p515
sbag1
(g2
g3
Ntp516
Rp517
(dp518
g499
g500
sg501
S'3MiP5FLrtZUHQRkgLWtDs9'
p519
sbag1
(g2
g3
Ntp520
Rp521
(dp522
g499
g500
sg501
S'5TI5D4vMaCU97QazWxXxFE'
p523
sbag1
(g2
g3
Ntp524
Rp525
(dp526
g499
g510
sg501
S'59Xo3BICqRNDdvNquirBot'
p527
sbag1
(g2
g3
Ntp528
Rp529
(dp530
g499
g510
sg501
S'1WSltBYenkkEqBIZXVcpBb'
p531
sbag1
(g2
g3
Ntp532
Rp533
(dp534
g499
g500
sg501
S'5rBYdNRo6hPnaRsOfEEpNw'
p535
sbag1
(g2
g3
Ntp536
Rp537
(dp538
g499
g500
sg501
S'5rBYdNRo6hPnaRsOfEEpNw'
p539
sbag1
(g2
g3
Ntp540
Rp541
(dp542
g499
g500
sg501
S'0keinpjGmeM5XrfuWtwE2A'
p543
sbag1
(g2
g3
Ntp544
Rp545
(dp546
g499
g500
sg501
S'0keinpjGmeM5XrfuWtwE2A'
p547
sbag1
(g2
g3
Ntp548
Rp549
(dp550
g499
g500
sg501
S'79hlrUjrmgvsAN7QR74ft2'
p551
sbag1
(g2
g3
Ntp552
Rp553
(dp554
g499
g500
sg501
S'6Ap85jPfZq0DIgglSKPf55'
p555
sbag1
(g2
g3
Ntp556
Rp557
(dp558
g499
g510
sg501
S'7gwRSZ0EmGWa697ZrE58GA'
p559
sbag1
(g2
g3
Ntp560
Rp561
(dp562
S'prot'
p563
S'http'
p564
sS'spot'
p565
S'6ogth8dNQWkdDalwHefKZ2'
p566
sbag1
(g2
g3
Ntp567
Rp568
(dp569
g563
S'spotify'
p570
sg565
S'3342KA7fTnvsqm45vPzZYC'
p571
sbag1
(g2
g3
Ntp572
Rp573
(dp574
g563
g564
sg565
S'3HSYwCVAbi7Wef2jy7RkOI'
p575
sbag1
(g2
g3
Ntp576
Rp577
(dp578
g563
g570
sg565
S'51gAyN5iTJaUDmUqjN1Sug'
p579
sbag1
(g2
g3
Ntp580
Rp581
(dp582
g563
g570
sg565
S'51gAyN5iTJaUDmUqjN1Sug'
p583
sbag1
(g2
g3
Ntp584
Rp585
(dp586
g563
g564
sg565
S'1qu922idX5lYDRRlQfYuuW'
p587
sbag1
(g2
g3
Ntp588
Rp589
(dp590
g563
g564
sg565
S'1UqsYXvKi8E16XFh4ZtqGd'
p591
sbag1
(g2
g3
Ntp592
Rp593
(dp594
g563
g564
sg565
S'4F64QXRV1EGHSm5jIeMmcQ'
p595
sbag1
(g2
g3
Ntp596
Rp597
(dp598
g563
g564
sg565
S'4PgNYFcgwYjjqaWCuNf5uR'
p599
sbag1
(g2
g3
Ntp600
Rp601
(dp602
g563
g570
sg565
S'5ytGdnH7kbysvNZtapFW1J'
p603
sbag1
(g2
g3
Ntp604
Rp605
(dp606
g563
g570
sg565
S'5ytGdnH7kbysvNZtapFW1J'
p607
sbag1
(g2
g3
Ntp608
Rp609
(dp610
g563
g570
sg565
S'2VloemNops4JDoejRRdwke'
p611
sbag1
(g2
g3
Ntp612
Rp613
(dp614
g563
g570
sg565
S'0dmblcTpERPhKOvKLKc79J'
p615
sbag1
(g2
g3
Ntp616
Rp617
(dp618
g563
g570
sg565
S'0dmblcTpERPhKOvKLKc79J'
p619
sbag1
(g2
g3
Ntp620
Rp621
(dp622
g563
g570
sg565
S'1xRWMRxq5S6USAShyhzBR7'
p623
sbag1
(g2
g3
Ntp624
Rp625
(dp626
g563
g564
sg565
S'1H5tvpoApNDxvxDexoaAUo'
p627
sbag1
(g2
g3
Ntp628
Rp629
(dp630
g563
g564
sg565
S'5kOpySWYwEkaxmNtLTjbbs'
p631
sbag1
(g2
g3
Ntp632
Rp633
(dp634
g563
g564
sg565
S'17JCy2DEvUhuynF1e2UdBw'
p635
sbag1
(g2
g3
Ntp636
Rp637
(dp638
g563
g564
sg565
S'2oquE7dpwe4N0A8y1zeF5q'
p639
sbag1
(g2
g3
Ntp640
Rp641
(dp642
g563
g570
sg565
S'3qoiFcjxpI7KN05qCVwbTf'
p643
sbag1
(g2
g3
Ntp644
Rp645
(dp646
g563
g564
sg565
S'1HeswCzxznuC3hcnoKG7Fb'
p647
sbag1
(g2
g3
Ntp648
Rp649
(dp650
g563
g564
sg565
S'4F64QXRV1EGHSm5jIeMmcQ'
p651
sbag1
(g2
g3
Ntp652
Rp653
(dp654
g563
g564
sg565
S'0Hu739NmylGRhZ3ItN55j3'
p655
sbag1
(g2
g3
Ntp656
Rp657
(dp658
g563
g564
sg565
S'44go3ZmDNtKdfCc15IseAx'
p659
sbag1
(g2
g3
Ntp660
Rp661
(dp662
g563
g564
sg565
S'7gwRSZ0EmGWa697ZrE58GA'
p663
sbag1
(g2
g3
Ntp664
Rp665
(dp666
g563
g564
sg565
S'22sZ8JkpfLH5a2nH05Wk8x'
p667
sbag1
(g2
g3
Ntp668
Rp669
(dp670
g563
g570
sg565
S'05rm1zAtv60zq4RVU1y9Mm'
p671
sbag1
(g2
g3
Ntp672
Rp673
(dp674
g563
g570
sg565
S'2mHlFUOtWyxPGI38qurIQC'
p675
sbag1
(g2
g3
Ntp676
Rp677
(dp678
g563
g570
sg565
S'1osf5XbVkE16K9XpMQ7gUr'
p679
sbag1
(g2
g3
Ntp680
Rp681
(dp682
S'prot'
p683
S'http'
p684
sS'spot'
p685
S'45zvStEMsXp8z45OQRhWFJ'
p686
sbag1
(g2
g3
Ntp687
Rp688
(dp689
g683
g684
sg685
S'79pPZ0QOVe3DXwdVNjHBlu'
p690
sbag1
(g2
g3
Ntp691
Rp692
(dp693
g683
g684
sg685
S'3jDQeIviIiKtRg7QBd4xbE'
p694
sbag1
(g2
g3
Ntp695
Rp696
(dp697
g683
g684
sg685
S'40CXbp4CdBLzbtKGyNM6XB'
p698
sbag1
(g2
g3
Ntp699
Rp700
(dp701
g683
g684
sg685
S'0aUihCqc8uW8nsMysv7npM'
p702
sbag1
(g2
g3
Ntp703
Rp704
(dp705
g683
g684
sg685
S'1Gm1spai71Uv8g5dNTo0D4'
p706
sbag1
(g2
g3
Ntp707
Rp708
(dp709
g683
g684
sg685
S'1G1EnQAxfIOnsFuoqKAPiE'
p710
sbag1
(g2
g3
Ntp711
Rp712
(dp713
g683
g684
sg685
S'6EyQpjSVlFgX69F3YSXj0x'
p714
sbag1
(g2
g3
Ntp715
Rp716
(dp717
g683
S'spotify'
p718
sg685
S'5vbAqgWmAuPJOk2cI3VXkh'
p719
sbag1
(g2
g3
Ntp720
Rp721
(dp722
g683
g684
sg685
S'5vbAqgWmAuPJOk2cI3VXkh'
p723
sbag1
(g2
g3
Ntp724
Rp725
(dp726
g683
g684
sg685
S'121so7t3AeX6nLMvxy9ZP9'
p727
sba.