(lp0
ccopy_reg
_reconstructor
p1
(cplugins.spotify
Spot
p2
c__builtin__
object
p3
Ntp4
Rp5
(dp6
S'hash'
p7
S'4ksk5b2zHHMhsFCIeU3vdQ'
p8
sS'type'
p9
S'album'
p10
sS'format'
p11
S'URL'
p12
sbag1
(g2
g3
Ntp13
Rp14
(dp15
g7
S'0cDrYiLOotWQb09XTc9KD0'
p16
sg9
S'track'
p17
sg11
S'URI'
p18
sbag1
(g2
g3
Ntp19
Rp20
(dp21
g7
S'7b8ZHJUUs9N4E3FJjy6QWZ'
p22
sg9
S'track'
p23
sg11
g12
sbag1
(g2
g3
Ntp24
Rp25
(dp26
g7
S'0cDrYiLOotWQb09XTc9KD0'
p27
sg9
S'track'
p28
sg11
g18
sbag1
(g2
g3
Ntp29
Rp30
(dp31
g7
S'1ttcUVJr3Cj8YYQRQNo8uM'
p32
sg9
S'track'
p33
sg11
g12
sbag1
(g2
g3
Ntp34
Rp35
(dp36
g7
S'42BAI1kT2bRV014mlkBozu'
p37
sg9
S'track'
p38
sg11
g18
sbag1
(g2
g3
Ntp39
Rp40
(dp41
g7
S'1jcwyFjMtTJOsTvJ5iIZpg'
p42
sg9
S'track'
p43
sg11
g18
sbag1
(g2
g3
Ntp44
Rp45
(dp46
g7
S'14epVmvJSkurE9Jj0m5AEG'
p47
sg9
S'artist'
p48
sg11
g18
sbag1
(g2
g3
Ntp49
Rp50
(dp51
g7
S'0bzCHb0hTpcg0Z804Ma2Q4'
p52
sg9
S'track'
p53
sg11
g18
sbag1
(g2
g3
Ntp54
Rp55
(dp56
g7
S'3fLJfEJuyfZVYJ01BB9vnV'
p57
sg9
S'track'
p58
sg11
g12
sbag1
(g2
g3
Ntp59
Rp60
(dp61
g7
S'53xNE9haE7XzCUObiRpWNG'
p62
sg9
S'track'
p63
sg11
g12
sbag1
(g2
g3
Ntp64
Rp65
(dp66
g7
S'5nK9Ea1CfTAdS4mVNmQ4DN'
p67
sg9
S'track'
p68
sg11
g12
sbag1
(g2
g3
Ntp69
Rp70
(dp71
g7
S'5yyevlas2Gu7NGQfo7pNvt'
p72
sg9
S'track'
p73
sg11
g12
sbag1
(g2
g3
Ntp74
Rp75
(dp76
g7
S'4KPU7XGqxo4UlMp3is7NBI'
p77
sg9
S'track'
p78
sg11
g12
sbag1
(g2
g3
Ntp79
Rp80
(dp81
g7
S'2pmt7o5SFxLcHwVevehBPo'
p82
sg9
S'track'
p83
sg11
g18
sbag1
(g2
g3
Ntp84
Rp85
(dp86
g7
S'2pmt7o5SFxLcHwVevehBPo'
p87
sg9
S'track'
p88
sg11
g18
sbag1
(g2
g3
Ntp89
Rp90
(dp91
g7
S'0RJM4JHDwDF4ZfsZMVMHGM'
p92
sg9
S'track'
p93
sg11
g18
sbag1
(g2
g3
Ntp94
Rp95
(dp96
g7
S'61jpbG7CdvzZnHuIb5GWyf'
p97
sg9
S'track'
p98
sg11
g18
sbag1
(g2
g3
Ntp99
Rp100
(dp101
g7
S'5IxUJIYiwfkwa9Q2hMcNxm'
p102
sg9
S'track'
p103
sg11
g18
sbag1
(g2
g3
Ntp104
Rp105
(dp106
g7
S'4dkVeCqySIWJhVMDoqe7v4'
p107
sg9
S'track'
p108
sg11
g12
sbag1
(g2
g3
Ntp109
Rp110
(dp111
g7
S'0RcybaTpCltcc3IbxahEnL'
p112
sg9
S'track'
p113
sg11
g12
sbag1
(g2
g3
Ntp114
Rp115
(dp116
g7
S'3emrWgYEdxsjINz56LB2pw'
p117
sg9
S'track'
p118
sg11
g18
sbag1
(g2
g3
Ntp119
Rp120
(dp121
g7
S'the'
p122
sg9
S'search'
p123
sg11
g12
sbag1
(g2
g3
Ntp124
Rp125
(dp126
g7
S'0ffCvZRNnnhkJ7W4qOG4nJ'
p127
sg9
S'track'
p128
sg11
g12
sbag1
(g2
g3
Ntp129
Rp130
(dp131
S'hash'
p132
S'6RwSFmfOXaSzS9wWQ454Is'
p133
sS'type'
p134
S'track'
p135
sS'format'
p136
S'URL'
p137
sbag1
(g2
g3
Ntp138
Rp139
(dp140
g132
S'7LERGRIyasZ7au9lW8cGdB'
p141
sg134
S'track'
p142
sg136
g137
sbag1
(g2
g3
Ntp143
Rp144
(dp145
g132
S'1BLwWvdXqxPulgrgsuNZoZ'
p146
sg134
S'track'
p147
sg136
g137
sbag1
(g2
g3
Ntp148
Rp149
(dp150
g132
S'4vXXIqQIDIgsNhkPvOVKWd'
p151
sg134
S'track'
p152
sg136
g137
sbag1
(g2
g3
Ntp153
Rp154
(dp155
g132
S'gasko'
p156
sg134
S'user'
p157
sg136
g137
sbag1
(g2
g3
Ntp158
Rp159
(dp160
g132
S'7yfSyr3iNAIgBjZf6fbyfO'
p161
sg134
S'track'
p162
sg136
g137
sbag1
(g2
g3
Ntp163
Rp164
(dp165
S'hash'
p166
S'3TxA3YfJDq1FeCCKthb4G5'
p167
sS'type'
p168
S'track'
p169
sS'format'
p170
S'URL'
p171
sbag1
(g2
g3
Ntp172
Rp173
(dp174
g166
S'1srgll3k7bMe57EvwYR512'
p175
sg168
S'track'
p176
sg170
g171
sbag1
(g2
g3
Ntp177
Rp178
(dp179
g166
S'7blkYnxlPeerJ7GQPHUPkN'
p180
sg168
S'track'
p181
sg170
g171
sbag1
(g2
g3
Ntp182
Rp183
(dp184
g166
S'5NoUgO4Kr93QymQGQlBC7b'
p185
sg168
S'track'
p186
sg170
g171
sbag1
(g2
g3
Ntp187
Rp188
(dp189
g166
S'1bs2kmXeGoo8HEQaNDL1sT'
p190
sg168
S'track'
p191
sg170
g171
sbag1
(g2
g3
Ntp192
Rp193
(dp194
g166
S'phooey'
p195
sg168
S'user'
p196
sg170
g171
sbag1
(g2
g3
Ntp197
Rp198
(dp199
g166
S'0oKOAL9nhFMieApXNLYkZ8'
p200
sg168
S'track'
p201
sg170
g171
sbag1
(g2
g3
Ntp202
Rp203
(dp204
S'hash'
p205
S'7MSGrMmq5rBtLKthkPuchg'
p206
sS'type'
p207
S'track'
p208
sS'format'
p209
S'URI'
p210
sbag1
(g2
g3
Ntp211
Rp212
(dp213
S'hash'
p214
S'4RqLbQKtQFIjDL74sdbixp'
p215
sS'type'
p216
S'track'
p217
sS'format'
p218
S'URL'
p219
sbag1
(g2
g3
Ntp220
Rp221
(dp222
g214
S'1DhW6dLh8ki7hFxxuUQGF5'
p223
sg216
S'track'
p224
sg218
g219
sbag1
(g2
g3
Ntp225
Rp226
(dp227
S'hash'
p228
S'6oVY50pmdXqLNVeK8bzomn'
p229
sS'type'
p230
S'track'
p231
sS'format'
p232
S'URI'
p233
sbag1
(g2
g3
Ntp234
Rp235
(dp236
g228
S'1COLAXqAZTKPv3S75XYgLp'
p237
sg230
S'track'
p238
sg232
S'URL'
p239
sbag1
(g2
g3
Ntp240
Rp241
(dp242
S'hash'
p243
S'phooey'
p244
sS'type'
p245
S'user'
p246
sS'format'
p247
S'URL'
p248
sbag1
(g2
g3
Ntp249
Rp250
(dp251
g243
S'5NoUgO4Kr93QymQGQlBC7b'
p252
sg245
S'track'
p253
sg247
S'URI'
p254
sbag1
(g2
g3
Ntp255
Rp256
(dp257
g243
S'5KOl9loGGLPaA4DGPwH4Q2'
p258
sg245
S'track'
p259
sg247
g248
sbag1
(g2
g3
Ntp260
Rp261
(dp262
g243
S'amandalinden'
p263
sg245
S'user'
p264
sg247
g248
sbag1
(g2
g3
Ntp265
Rp266
(dp267
g243
S'djck'
p268
sg245
S'user'
p269
sg247
g248
sbag1
(g2
g3
Ntp270
Rp271
(dp272
g243
S'kristinapettersson'
p273
sg245
S'user'
p274
sg247
g248
sbag1
(g2
g3
Ntp275
Rp276
(dp277
g243
S'0xz9DxhUvF0AZKH3V1aqbP'
p278
sg245
S'track'
p279
sg247
g248
sbag1
(g2
g3
Ntp280
Rp281
(dp282
g243
S'3JT9tQjTMJcDtLtCZJPUc4'
p283
sg245
S'track'
p284
sg247
g248
sbag1
(g2
g3
Ntp285
Rp286
(dp287
S'hash'
p288
S'6Azq0hISxq4weKdxDaxEsh'
p289
sS'type'
p290
S'track'
p291
sS'format'
p292
S'URI'
p293
sbag1
(g2
g3
Ntp294
Rp295
(dp296
g288
S'6VT9WMylghf3Xd5odu2MpI'
p297
sg290
S'track'
p298
sg292
S'URL'
p299
sbag1
(g2
g3
Ntp300
Rp301
(dp302
g288
S'5TuihWGVJZVtzvYGpiTqbo'
p303
sg290
S'track'
p304
sg292
g299
sbag1
(g2
g3
Ntp305
Rp306
(dp307
g288
S'4Wq9mESm9worC1oukheOZk'
p308
sg290
S'track'
p309
sg292
g293
sbag1
(g2
g3
Ntp310
Rp311
(dp312
g288
S'6lPc44ZWKIBKbxhq4LMNYD'
p313
sg290
S'track'
p314
sg292
g299
sbag1
(g2
g3
Ntp315
Rp316
(dp317
g288
S'3XsvFEVP1LroiMPtMRHH26'
p318
sg290
S'track'
p319
sg292
g299
sbag1
(g2
g3
Ntp320
Rp321
(dp322
g288
S'5rDsAMjmB4Qa5WNciJPsfK'
p323
sg290
S'track'
p324
sg292
g299
sbag1
(g2
g3
Ntp325
Rp326
(dp327
g288
S'5J8rD2HqChb3TUwkRLP1Gb'
p328
sg290
S'track'
p329
sg292
g299
sbag1
(g2
g3
Ntp330
Rp331
(dp332
g288
S'1Cqr8raNJLUbfiKnByrpHQ'
p333
sg290
S'track'
p334
sg292
g293
sbag1
(g2
g3
Ntp335
Rp336
(dp337
g288
S'5CNdr2HAjwu9ayiEZ70uVy'
p338
sg290
S'track'
p339
sg292
g293
sbag1
(g2
g3
Ntp340
Rp341
(dp342
S'hash'
p343
S'2SciNj9d5umblEp13hn6wZ'
p344
sS'type'
p345
S'track'
p346
sS'format'
p347
S'URI'
p348
sbag1
(g2
g3
Ntp349
Rp350
(dp351
g343
S'57QT8ks6OsAK4m6wr8q4qe'
p352
sg345
S'track'
p353
sg347
S'URL'
p354
sbag1
(g2
g3
Ntp355
Rp356
(dp357
g343
S'3BIpOCGYyYnsonqMaTU5Ta'
p358
sg345
S'track'
p359
sg347
g354
sbag1
(g2
g3
Ntp360
Rp361
(dp362
g343
S'4t4OONaqbjmhGtJL2tkxpj'
p363
sg345
S'track'
p364
sg347
g354
sbag1
(g2
g3
Ntp365
Rp366
(dp367
g343
S'5Kd1lAqGg9WepkgmkvPS2i'
p368
sg345
S'track'
p369
sg347
g348
sbag1
(g2
g3
Ntp370
Rp371
(dp372
g343
S'6YCgtDTwRgC7ePPYPdk4zo'
p373
sg345
S'track'
p374
sg347
g354
sbag1
(g2
g3
Ntp375
Rp376
(dp377
S'hash'
p378
S'0CHokUsSg32KCcqJLf4tpq'
p379
sS'type'
p380
S'track'
p381
sS'format'
p382
S'URI'
p383
sbag1
(g2
g3
Ntp384
Rp385
(dp386
g378
S'3ZlFUr0RBrUYYsmlcFvD0e'
p387
sg380
S'track'
p388
sg382
g383
sbag1
(g2
g3
Ntp389
Rp390
(dp391
g378
S'5mrBMfaMJqlkpyTiVcEjXS'
p392
sg380
S'track'
p393
sg382
S'URL'
p394
sbag1
(g2
g3
Ntp395
Rp396
(dp397
g378
S'79Ht6VgaJ8KkJ0jJl4Q9A2'
p398
sg380
S'track'
p399
sg382
g394
sbag1
(g2
g3
Ntp400
Rp401
(dp402
g378
S'8mrBKfaMJqpkLyTiVcEjXS'
p403
sg380
S'track'
p404
sg382
g394
sbag1
(g2
g3
Ntp405
Rp406
(dp407
g378
S'2FUJZ1HMAvXgGkEiqd9qa5'
p408
sg380
S'track'
p409
sg382
g394
sbag1
(g2
g3
Ntp410
Rp411
(dp412
g378
S'4cKaMk1tmfmqinHTkMftkm'
p413
sg380
S'track'
p414
sg382
g394
sbag1
(g2
g3
Ntp415
Rp416
(dp417
g378
S'1t1xtsLEHjPOQbISiL2EiS'
p418
sg380
S'track'
p419
sg382
g394
sbag1
(g2
g3
Ntp420
Rp421
(dp422
g378
S'1G1EnQAxfIOnsFuoqKAPiE'
p423
sg380
S'track'
p424
sg382
g394
sbag1
(g2
g3
Ntp425
Rp426
(dp427
g378
S'1ISqRLJdAQ8JJVKPu55fcU'
p428
sg380
S'track'
p429
sg382
g394
sbag1
(g2
g3
Ntp430
Rp431
(dp432
g378
S'3MFUWaD7AEgmleDqIj9U3M'
p433
sg380
S'track'
p434
sg382
g383
sbag1
(g2
g3
Ntp435
Rp436
(dp437
g378
S'6ADCAEWHEO6DXINAd4uiMv'
p438
sg380
S'album'
p439
sg382
g394
sbag1
(g2
g3
Ntp440
Rp441
(dp442
g378
S'2SJXK09v3AGOw29p9O7D8j'
p443
sg380
S'track'
p444
sg382
g383
sbag1
(g2
g3
Ntp445
Rp446
(dp447
g378
S'1ISqRLJdAQ8JJVKPu55fcU'
p448
sg380
S'track'
p449
sg382
g394
sbag1
(g2
g3
Ntp450
Rp451
(dp452
S'hash'
p453
S'5wzUTd5rsxCc1Dt0C9a27B'
p454
sS'type'
p455
S'track'
p456
sS'format'
p457
S'URI'
p458
sbag1
(g2
g3
Ntp459
Rp460
(dp461
g453
S'0XYyQel2cYzXP0E2HGk0eB'
p462
sg455
S'track'
p463
sg457
g458
sbag1
(g2
g3
Ntp464
Rp465
(dp466
g453
S'5FwaTWEBuBaPhMsuQk2nzk'
p467
sg455
S'album'
p468
sg457
S'URL'
p469
sbag1
(g2
g3
Ntp470
Rp471
(dp472
g453
S'0EQksiFSpjKbT4CDr5UiFH'
p473
sg455
S'track'
p474
sg457
g469
sbag1
(g2
g3
Ntp475
Rp476
(dp477
g453
S'4PBYheFUUbnj9mTVycdOCg'
p478
sg455
S'track'
p479
sg457
g469
sbag1
(g2
g3
Ntp480
Rp481
(dp482
S'hash'
p483
S'track'
p484
sS'type'
p485
S' spotify'
p486
sS'format'
p487
S'URI'
p488
sbag1
(g2
g3
Ntp489
Rp490
(dp491
g483
S'20z93Foiz25OoMJPbxN3JI'
p492
sg485
S'track'
p493
sg487
g488
sbag1
(g2
g3
Ntp494
Rp495
(dp496
S'hash'
p497
S'3s3AY8N8AItlCn4inPV6Kr'
p498
sS'type'
p499
S'album'
p500
sS'format'
p501
S'URL'
p502
sbag1
(g2
g3
Ntp503
Rp504
(dp505
g497
S'6cUTt8qhedfp04jFp3V3e5'
p506
sg499
S'album'
p507
sg501
S'URI'
p508
sbag1
(g2
g3
Ntp509
Rp510
(dp511
g497
S'4aS0TuyG64f2e6DncaiIwz'
p512
sg499
S'track'
p513
sg501
g502
sbag1
(g2
g3
Ntp514
Rp515
(dp516
g497
S'1pxO7IS622Q8DQJ7uK7JRt'
p517
sg499
S'track'
p518
sg501
g502
sbag1
(g2
g3
Ntp519
Rp520
(dp521
g497
S'3yP0cohcr97BUNJcgvmSVg'
p522
sg499
S'track'
p523
sg501
g508
sbag1
(g2
g3
Ntp524
Rp525
(dp526
S'hash'
p527
S'7o5jS54xQhWcloZ8wBXgxO'
p528
sS'type'
p529
S'track'
p530
sS'format'
p531
S'URI'
p532
sbag1
(g2
g3
Ntp533
Rp534
(dp535
g527
S'6nO59NQ633lxZ1ri3JqzU1'
p536
sg529
S'track'
p537
sg531
S'URL'
p538
sbag1
(g2
g3
Ntp539
Rp540
(dp541
g527
S'136K6eL7w6vCVNwnNju1zu'
p542
sg529
S'track'
p543
sg531
g538
sbag1
(g2
g3
Ntp544
Rp545
(dp546
g527
S'60fzNA5B65lJTwqKBlS2mQ'
p547
sg529
S'track'
p548
sg531
g532
sbag1
(g2
g3
Ntp549
Rp550
(dp551
S'hash'
p552
S'7LlLIjcMbimfka33VcwfQA'
p553
sS'type'
p554
S'track'
p555
sS'format'
p556
S'URL'
p557
sbag1
(g2
g3
Ntp558
Rp559
(dp560
S'hash'
p561
S'5LpJrKTIMa7WAiXsnYbTgC'
p562
sS'type'
p563
S'track'
p564
sS'format'
p565
S'URI'
p566
sbag1
(g2
g3
Ntp567
Rp568
(dp569
g561
S'5LpJrKTIMa7WAiXsnYbTgB'
p570
sg563
S'track'
p571
sg565
g566
sbag1
(g2
g3
Ntp572
Rp573
(dp574
g561
S'5LpJrKTIMa7WAiXsnYbTgA'
p575
sg563
S'track'
p576
sg565
g566
sbag1
(g2
g3
Ntp577
Rp578
(dp579
g561
S'kristinapettersson'
p580
sg563
S'user'
p581
sg565
S'URL'
p582
sbag1
(g2
g3
Ntp583
Rp584
(dp585
g561
S'6V4eAv3rPLeQhAO8RnOKFs'
p586
sg563
S'album'
p587
sg565
g582
sbag1
(g2
g3
Ntp588
Rp589
(dp590
g561
S'2VloemNops4JDoejRRdwke'
p591
sg563
S'track'
p592
sg565
g566
sbag1
(g2
g3
Ntp593
Rp594
(dp595
g561
S'1wdRo9hSIYSsQDwLd40a1W'
p596
sg563
S'track'
p597
sg565
g582
sbag1
(g2
g3
Ntp598
Rp599
(dp600
g561
S'1wdRo9hSIYSsQDwLd40a1W'
p601
sg563
S'track'
p602
sg565
g566
sbag1
(g2
g3
Ntp603
Rp604
(dp605
g561
S'0KIIpmXgg00hOSpgFqYwnf'
p606
sg563
S'album'
p607
sg565
g566
sbag1
(g2
g3
Ntp608
Rp609
(dp610
S'hash'
p611
S'2qfze6v2h0uc0e2ABp7z3a'
p612
sS'type'
p613
S'artist'
p614
sS'format'
p615
S'URL'
p616
sbag1
(g2
g3
Ntp617
Rp618
(dp619
g611
S'4kpywGFDailKERiDjFUw5Y'
p620
sg613
S'track'
p621
sg615
S'URI'
p622
sbag1
(g2
g3
Ntp623
Rp624
(dp625
g611
S'0PmOemFFxcZvqCqxioiOq3'
p626
sg613
S'track'
p627
sg615
g622
sbag1
(g2
g3
Ntp628
Rp629
(dp630
g611
S'0CaZZbGsFZXwDlRcBiZeiU'
p631
sg613
S'track'
p632
sg615
g616
sbag1
(g2
g3
Ntp633
Rp634
(dp635
S'hash'
p636
S'7dfMJItfy79ykb49edsiLs'
p637
sS'type'
p638
S'track'
p639
sS'format'
p640
S'URI'
p641
sbag1
(g2
g3
Ntp642
Rp643
(dp644
S'hash'
p645
S'3bSaG7ASsAHkXHMlf2Dyzy'
p646
sS'type'
p647
S'track'
p648
sS'format'
p649
S'URI'
p650
sbag1
(g2
g3
Ntp651
Rp652
(dp653
g645
S'3RJpMphx9fX5Y8NZXKweUV'
p654
sg647
S'track'
p655
sg649
S'URL'
p656
sbag1
(g2
g3
Ntp657
Rp658
(dp659
S'hash'
p660
S'dioid'
p661
sS'type'
p662
S'user'
p663
sS'format'
p664
S'URI'
p665
sbag1
(g2
g3
Ntp666
Rp667
(dp668
g660
S'6hz9f6H7URtoigU517WjD6'
p669
sg662
S'album'
p670
sg664
g665
sbag1
(g2
g3
Ntp671
Rp672
(dp673
g660
S'7amQD0ax3Q3OkFQz0cYnI1'
p674
sg662
S'track'
p675
sg664
S'URL'
p676
sbag1
(g2
g3
Ntp677
Rp678
(dp679
g660
S'matricks'
p680
sg662
S'user'
p681
sg664
g665
sbag1
(g2
g3
Ntp682
Rp683
(dp684
g660
S'matricks'
p685
sg662
S'user'
p686
sg664
g665
sbag1
(g2
g3
Ntp687
Rp688
(dp689
g660
S'57D1JtzLqIWgJJvuqna7vn'
p690
sg662
S'track'
p691
sg664
g676
sbag1
(g2
g3
Ntp692
Rp693
(dp694
S'hash'
p695
S'matricks'
p696
sS'type'
p697
S'user'
p698
sS'format'
p699
S'URI'
p700
sbag1
(g2
g3
Ntp701
Rp702
(dp703
g695
S'5rBYdNRo6hPnaRsOfEEpNw'
p704
sg697
S'track'
p705
sg699
g700
sbag1
(g2
g3
Ntp706
Rp707
(dp708
g695
S'0NYvKzI84jo8UXVEe5d4C1'
p709
sg697
S'track'
p710
sg699
S'URL'
p711
sbag1
(g2
g3
Ntp712
Rp713
(dp714
S'hash'
p715
S'0Foga2WFLWe92IH53PolyI'
p716
sS'type'
p717
S'track'
p718
sS'format'
p719
S'URL'
p720
sbag1
(g2
g3
Ntp721
Rp722
(dp723
g715
S'2tUkNEU2SiM2nfUIULRiV2'
p724
sg717
S'track'
p725
sg719
g720
sbag1
(g2
g3
Ntp726
Rp727
(dp728
g715
S'0SvEOu0Or2CWKS8YWvivrU'
p729
sg717
S'track'
p730
sg719
g720
sbag1
(g2
g3
Ntp731
Rp732
(dp733
S'hash'
p734
S'3SxOxTdyRW6bPyqRLvHFfE'
p735
sS'type'
p736
S'track'
p737
sS'format'
p738
S'URI'
p739
sbag1
(g2
g3
Ntp740
Rp741
(dp742
g734
S'3SxOxTdyRW6bPyqRLvHFfE'
p743
sg736
S'track'
p744
sg738
g739
sbag1
(g2
g3
Ntp745
Rp746
(dp747
g734
S'3SxOxTdyRW6bPyqRLvHFfE'
p748
sg736
S'track'
p749
sg738
g739
sbag1
(g2
g3
Ntp750
Rp751
(dp752
g734
S'5CGVq1l0UvZ7WkbW9hA4lj'
p753
sg736
S'track'
p754
sg738
g739
sbag1
(g2
g3
Ntp755
Rp756
(dp757
S'hash'
p758
S'3DobZsGLYAY12p6R0LqRFE'
p759
sS'type'
p760
S'track'
p761
sS'format'
p762
S'URL'
p763
sbag1
(g2
g3
Ntp764
Rp765
(dp766
g758
S'3IP8cPFhyY1kJtcwZvGU9y'
p767
sg760
S'track'
p768
sg762
g763
sbag1
(g2
g3
Ntp769
Rp770
(dp771
g758
S'3IP8cPFhyY1kJtcwZvGU9y'
p772
sg760
S'track'
p773
sg762
g763
sbag1
(g2
g3
Ntp774
Rp775
(dp776
S'hash'
p777
S'77NNZQSqzLNqh2A9JhLRkg'
p778
sS'type'
p779
S'track'
p780
sS'format'
p781
S'URL'
p782
sbag1
(g2
g3
Ntp783
Rp784
(dp785
S'hash'
p786
S'0uLPbNtNO9932ZxnVI9sQX'
p787
sS'type'
p788
S'track'
p789
sS'format'
p790
S'URL'
p791
sbag1
(g2
g3
Ntp792
Rp793
(dp794
g786
S'4ffUrr1kphmse46rW0mnV5'
p795
sg788
S'track'
p796
sg790
g791
sbag1
(g2
g3
Ntp797
Rp798
(dp799
g786
S'7hdfYPz4MaEcAH97E0S6vW'
p800
sg788
S'track'
p801
sg790
g791
sbag1
(g2
g3
Ntp802
Rp803
(dp804
g786
S'1Sm3U3B5XoidYQEZQZrh3i'
p805
sg788
S'track'
p806
sg790
g791
sbag1
(g2
g3
Ntp807
Rp808
(dp809
g786
S'1hKEMwCaBQ0fTp3AHc12g8'
p810
sg788
S'track'
p811
sg790
S'URI'
p812
sbag1
(g2
g3
Ntp813
Rp814
(dp815
g786
S'1LggghHQU8QOOC2AQ4WbWO'
p816
sg788
S'track'
p817
sg790
g791
sbag1
(g2
g3
Ntp818
Rp819
(dp820
g786
S'3zkHSkaSz2wOEtv45cU6S4'
p821
sg788
S'track'
p822
sg790
g791
sbag1
(g2
g3
Ntp823
Rp824
(dp825
g786
S'3Ukf2oQRQYUDGL0JK5UR2r'
p826
sg788
S'track'
p827
sg790
g791
sbag1
(g2
g3
Ntp828
Rp829
(dp830
g786
S'5llCFNN98RfhnHWPtV9nC1'
p831
sg788
S'track'
p832
sg790
g812
sbag1
(g2
g3
Ntp833
Rp834
(dp835
g786
S'77NNZQSqzLNqh2A9JhLRkg'
p836
sg788
S'track'
p837
sg790
g791
sbag1
(g2
g3
Ntp838
Rp839
(dp840
S'hash'
p841
S'3QXhoHP2siMwe3rj1qKAWt'
p842
sS'type'
p843
S'track'
p844
sS'format'
p845
S'URI'
p846
sbag1
(g2
g3
Ntp847
Rp848
(dp849
S'hash'
p850
S'78kEFL3ImXJb92tEfTAtot'
p851
sS'type'
p852
S'track'
p853
sS'format'
p854
S'URI'
p855
sbag1
(g2
g3
Ntp856
Rp857
(dp858
g850
S'78kEFL3ImXJb92tEfTAtot'
p859
sg852
S'track'
p860
sg854
g855
sbag1
(g2
g3
Ntp861
Rp862
(dp863
g850
S'kottizen'
p864
sg852
S'user'
p865
sg854
S'URL'
p866
sbag1
(g2
g3
Ntp867
Rp868
(dp869
g850
S'6RcR9VAl0c1Ehvnb1hlzXE'
p870
sg852
S'track'
p871
sg854
g866
sbag1
(g2
g3
Ntp872
Rp873
(dp874
S'hash'
p875
S'48ocqBX8QePtdTEOPuOKrq'
p876
sS'type'
p877
S'track'
p878
sS'format'
p879
S'URI'
p880
sbag1
(g2
g3
Ntp881
Rp882
(dp883
g875
S'1o8tVFWzGDaWIckHsEFHj4'
p884
sg877
S'track'
p885
sg879
S'URL'
p886
sbag1
(g2
g3
Ntp887
Rp888
(dp889
g875
S'10P0PVdhCChJOjWGJG7sVK'
p890
sg877
S'track'
p891
sg879
g880
sbag1
(g2
g3
Ntp892
Rp893
(dp894
g875
S'35JuTLEcXPi4pMloUeM70s'
p895
sg877
S'track'
p896
sg879
g886
sbag1
(g2
g3
Ntp897
Rp898
(dp899
g875
S'4oEuRVRHRFOjwv5f8vm0JR'
p900
sg877
S'track'
p901
sg879
g880
sbag1
(g2
g3
Ntp902
Rp903
(dp904
g875
S'46GvKF2TRLAcbtWUv7Exqq'
p905
sg877
S'track'
p906
sg879
g880
sbag1
(g2
g3
Ntp907
Rp908
(dp909
g875
S'46aRTYYXkN8ok6fnv9ljvr'
p910
sg877
S'track'
p911
sg879
g880
sbag1
(g2
g3
Ntp912
Rp913
(dp914
g875
S'7GLi64lYeWA24CuRXPucVq'
p915
sg877
S'track'
p916
sg879
g880
sbag1
(g2
g3
Ntp917
Rp918
(dp919
g875
S'64gpgh5jBMxyh7iVJll23t'
p920
sg877
S'track'
p921
sg879
g880
sbag1
(g2
g3
Ntp922
Rp923
(dp924
g875
S'6WjNSfSOf7jEAzP93d2TDw'
p925
sg877
S'track'
p926
sg879
g886
sbag1
(g2
g3
Ntp927
Rp928
(dp929
g875
S'58nZVFnAtDe2YSTPJvXVzO'
p930
sg877
S'track'
p931
sg879
g886
sbag1
(g2
g3
Ntp932
Rp933
(dp934
g875
S'4LmSxJVbKgclgUXcwZEisI'
p935
sg877
S'track'
p936
sg879
g886
sbag1
(g2
g3
Ntp937
Rp938
(dp939
g875
S'2KjOItMbmmu5UI7JEOH19W'
p940
sg877
S'track'
p941
sg879
g880
sbag1
(g2
g3
Ntp942
Rp943
(dp944
g875
S'7z7P06JcIHtlzt0IprZlIR'
p945
sg877
S'track'
p946
sg879
g886
sbag1
(g2
g3
Ntp947
Rp948
(dp949
g875
S'50x45a2M8ZJOHvCSA1EmPH'
p950
sg877
S'track'
p951
sg879
g886
sbag1
(g2
g3
Ntp952
Rp953
(dp954
g875
S'4Qkd49SzNq7WPvVnlK81Oy'
p955
sg877
S'track'
p956
sg879
g886
sbag1
(g2
g3
Ntp957
Rp958
(dp959
S'hash'
p960
S'0Xb0co5yvf9HHODKIbhctf'
p961
sS'type'
p962
S'track'
p963
sS'format'
p964
S'URL'
p965
sbag1
(g2
g3
Ntp966
Rp967
(dp968
g960
S'77NNZQSqzLNqh2A9JhLRkg'
p969
sg962
S'track'
p970
sg964
g965
sbag1
(g2
g3
Ntp971
Rp972
(dp973
g960
S'3PwUxOBMBkwILa7Y0s6h8S'
p974
sg962
S'track'
p975
sg964
S'URI'
p976
sbag1
(g2
g3
Ntp977
Rp978
(dp979
g960
S'6eplvTPiF37Y7x6i90MomR'
p980
sg962
S'track'
p981
sg964
g965
sbag1
(g2
g3
Ntp982
Rp983
(dp984
S'hash'
p985
S'6WjNSfSOf7jEAzP93d2TDw'
p986
sS'type'
p987
S'track'
p988
sS'format'
p989
S'URL'
p990
sbag1
(g2
g3
Ntp991
Rp992
(dp993
g985
S'6WjNSfSOf7jEAzP93d2TDw'
p994
sg987
S'track'
p995
sg989
g990
sbag1
(g2
g3
Ntp996
Rp997
(dp998
S'hash'
p999
S'6itOVV1ScoFj3ZdYT7kmko'
p1000
sS'type'
p1001
S'track'
p1002
sS'format'
p1003
S'URL'
p1004
sbag1
(g2
g3
Ntp1005
Rp1006
(dp1007
g999
S'58DLhiqRDUnB6jBU0Gmrt4'
p1008
sg1001
S'track'
p1009
sg1003
g1004
sbag1
(g2
g3
Ntp1010
Rp1011
(dp1012
g999
S'5mlEBLh477EvXmRBFoeZDi'
p1013
sg1001
S'track'
p1014
sg1003
S'URI'
p1015
sbag1
(g2
g3
Ntp1016
Rp1017
(dp1018
S'hash'
p1019
S'7vPM3drObCRLobjsTfEZ3f'
p1020
sS'type'
p1021
S'track'
p1022
sS'format'
p1023
S'URL'
p1024
sbag1
(g2
g3
Ntp1025
Rp1026
(dp1027
S'hash'
p1028
S'gasko'
p1029
sS'type'
p1030
S'user'
p1031
sS'format'
p1032
S'URL'
p1033
sbag1
(g2
g3
Ntp1034
Rp1035
(dp1036
g1028
S'gasko'
p1037
sg1030
S'user'
p1038
sg1032
g1033
sbag1
(g2
g3
Ntp1039
Rp1040
(dp1041
g1028
S'7f2lT3qLxK0YgGGlHZEy1x'
p1042
sg1030
S'track'
p1043
sg1032
g1033
sbag1
(g2
g3
Ntp1044
Rp1045
(dp1046
g1028
S'64MB9UzZF2wy0lLAeI1uvJ'
p1047
sg1030
S'track'
p1048
sg1032
g1033
sbag1
(g2
g3
Ntp1049
Rp1050
(dp1051
g1028
S'5ksIbZrgm9fVbZSgZkU1k5'
p1052
sg1030
S'track'
p1053
sg1032
S'URI'
p1054
sbag1
(g2
g3
Ntp1055
Rp1056
(dp1057
g1028
S'5wtFDp83eEhSGsGiYGTNEz'
p1058
sg1030
S'track'
p1059
sg1032
g1033
sbag1
(g2
g3
Ntp1060
Rp1061
(dp1062
S'hash'
p1063
S'3hxoYmSHzIBwSS2bPTOfbg'
p1064
sS'type'
p1065
S'track'
p1066
sS'format'
p1067
S'URI'
p1068
sbag1
(g2
g3
Ntp1069
Rp1070
(dp1071
g1063
S'3hxoYmSHzIBwSS2bPTOfbg'
p1072
sg1065
S'track'
p1073
sg1067
g1068
sbag1
(g2
g3
Ntp1074
Rp1075
(dp1076
g1063
S'0TGN5hymke69nlawA9LeTV'
p1077
sg1065
S'track'
p1078
sg1067
S'URL'
p1079
sbag1
(g2
g3
Ntp1080
Rp1081
(dp1082
g1063
S'6jrVIdcN8Q38xt9UWkOHeF'
p1083
sg1065
S'track'
p1084
sg1067
g1068
sbag1
(g2
g3
Ntp1085
Rp1086
(dp1087
g1063
S'0eqBRs7kKPBSgMa1PhVupY'
p1088
sg1065
S'track'
p1089
sg1067
g1068
sbag1
(g2
g3
Ntp1090
Rp1091
(dp1092
g1063
S'6hTcRuSaaTNwlyIYkkMpWX'
p1093
sg1065
S'track'
p1094
sg1067
g1079
sbag1
(g2
g3
Ntp1095
Rp1096
(dp1097
g1063
S'6z9OkgOC6xf2M1gqDsRbtW'
p1098
sg1065
S'track'
p1099
sg1067
g1079
sbag1
(g2
g3
Ntp1100
Rp1101
(dp1102
g1063
S'6z9OkgOC6xf2M1gqDsRbtW'
p1103
sg1065
S'track'
p1104
sg1067
g1079
sbag1
(g2
g3
Ntp1105
Rp1106
(dp1107
g1063
S'0lREG1IoBP7l09U8RF08RD'
p1108
sg1065
S'track'
p1109
sg1067
g1079
sbag1
(g2
g3
Ntp1110
Rp1111
(dp1112
g1063
S'2YDJMKzn2Hg9at5VGZhit6'
p1113
sg1065
S'track'
p1114
sg1067
g1068
sbag1
(g2
g3
Ntp1115
Rp1116
(dp1117
g1063
S'62HY7V5hRKtfIZ7uCYqYqu'
p1118
sg1065
S'track'
p1119
sg1067
g1068
sbag1
(g2
g3
Ntp1120
Rp1121
(dp1122
g1063
S'3H4iAp9Qh5kYhO44ho7QpH'
p1123
sg1065
S'track'
p1124
sg1067
g1068
sbag1
(g2
g3
Ntp1125
Rp1126
(dp1127
g1063
S'0vuHo2PKqHCuDNfsTjrIAN'
p1128
sg1065
S'track'
p1129
sg1067
g1079
sbag1
(g2
g3
Ntp1130
Rp1131
(dp1132
g1063
S'arahael_swe'
p1133
sg1065
S'user'
p1134
sg1067
g1079
sbag1
(g2
g3
Ntp1135
Rp1136
(dp1137
g1063
S'dgroup09010'
p1138
sg1065
S'user'
p1139
sg1067
g1079
sbag1
(g2
g3
Ntp1140
Rp1141
(dp1142
g1063
S'dgroup09010'
p1143
sg1065
S'user'
p1144
sg1067
g1068
sbag1
(g2
g3
Ntp1145
Rp1146
(dp1147
g1063
S'1947'
p1148
sg1065
S'user'
p1149
sg1067
g1079
sbag1
(g2
g3
Ntp1150
Rp1151
(dp1152
g1063
S'6Hm8aup4wMyhalHkMUmqjo'
p1153
sg1065
S'track'
p1154
sg1067
g1068
sbag1
(g2
g3
Ntp1155
Rp1156
(dp1157
g1063
S'6Hm8aup4wMyhalHkMUmqjo'
p1158
sg1065
S'track'
p1159
sg1067
g1068
sbag1
(g2
g3
Ntp1160
Rp1161
(dp1162
g1063
S'2qbnFNxZjgCQqFWEMT6hpi'
p1163
sg1065
S'track'
p1164
sg1067
g1079
sbag1
(g2
g3
Ntp1165
Rp1166
(dp1167
g1063
S'1uHKCU8E24KoXnflD75o9H'
p1168
sg1065
S'track'
p1169
sg1067
g1079
sbag1
(g2
g3
Ntp1170
Rp1171
(dp1172
g1063
S'56npR21Ai021jZxVCvy0DJ'
p1173
sg1065
S'track'
p1174
sg1067
g1079
sbag1
(g2
g3
Ntp1175
Rp1176
(dp1177
g1063
S'2qbnFNxZjgCQqFWEMT6hpi'
p1178
sg1065
S'track'
p1179
sg1067
g1079
sbag1
(g2
g3
Ntp1180
Rp1181
(dp1182
g1063
S'5cZmZjrusNlVuCHHkSR967'
p1183
sg1065
S'track'
p1184
sg1067
g1068
sbag1
(g2
g3
Ntp1185
Rp1186
(dp1187
g1063
S'6z8MwaLVNW68gKPsIrmicR'
p1188
sg1065
S'track'
p1189
sg1067
g1079
sbag1
(g2
g3
Ntp1190
Rp1191
(dp1192
g1063
S'6z8MwaLVNW68gKPsIrmicR'
p1193
sg1065
S'track'
p1194
sg1067
g1079
sbag1
(g2
g3
Ntp1195
Rp1196
(dp1197
g1063
S'4ncJE9VLX71mLACpnKD4AC'
p1198
sg1065
S'track'
p1199
sg1067
g1068
sbag1
(g2
g3
Ntp1200
Rp1201
(dp1202
g1063
S'63asfkExBw8h1GGiz3tWoR'
p1203
sg1065
S'track'
p1204
sg1067
g1068
sbag1
(g2
g3
Ntp1205
Rp1206
(dp1207
g1063
S'kungtotte'
p1208
sg1065
S'user'
p1209
sg1067
g1068
sbag1
(g2
g3
Ntp1210
Rp1211
(dp1212
g1063
S'6Jkn5ZRCisQkvGa34HUXHW'
p1213
sg1065
S'track'
p1214
sg1067
g1079
sbag1
(g2
g3
Ntp1215
Rp1216
(dp1217
g1063
S'1zxF9IHX8DwGiKsulkQ2o9'
p1218
sg1065
S'track'
p1219
sg1067
g1079
sbag1
(g2
g3
Ntp1220
Rp1221
(dp1222
g1063
S'1NcZDTUJGzolPY4VhzoSS1'
p1223
sg1065
S'track'
p1224
sg1067
g1068
sbag1
(g2
g3
Ntp1225
Rp1226
(dp1227
g1063
S'2YDJMKzn2Hg9at5VGZhit6'
p1228
sg1065
S'track'
p1229
sg1067
g1068
sbag1
(g2
g3
Ntp1230
Rp1231
(dp1232
g1063
S'5304TEmec1FRiIq3Wfxum4'
p1233
sg1065
S'track'
p1234
sg1067
g1068
sbag1
(g2
g3
Ntp1235
Rp1236
(dp1237
g1063
S'755kegfryuRgVINOAljpy3'
p1238
sg1065
S'track'
p1239
sg1067
g1068
sbag1
(g2
g3
Ntp1240
Rp1241
(dp1242
g1063
S'5Z4DBsmycgmuvibDPFjAdE'
p1243
sg1065
S'album'
p1244
sg1067
g1068
sbag1
(g2
g3
Ntp1245
Rp1246
(dp1247
g1063
S'3CooJNwowkgWY0tfuMgW33'
p1248
sg1065
S'album'
p1249
sg1067
g1079
sbag1
(g2
g3
Ntp1250
Rp1251
(dp1252
g1063
S'7vC1yfNXcURh42ZN70x0Oj'
p1253
sg1065
S'album'
p1254
sg1067
g1079
sbag1
(g2
g3
Ntp1255
Rp1256
(dp1257
g1063
S'redcom'
p1258
sg1065
S'user'
p1259
sg1067
g1068
sbag1
(g2
g3
Ntp1260
Rp1261
(dp1262
g1063
S'0As6CEEV5d6tOEFhSx444J'
p1263
sg1065
S'track'
p1264
sg1067
g1079
sbag1
(g2
g3
Ntp1265
Rp1266
(dp1267
g1063
S'4niy5jbEb70771kN6GitE6'
p1268
sg1065
S'track'
p1269
sg1067
g1079
sbag1
(g2
g3
Ntp1270
Rp1271
(dp1272
g1063
S'6U18XiROFt4UJ1an9OZyYl'
p1273
sg1065
S'track'
p1274
sg1067
g1079
sbag1
(g2
g3
Ntp1275
Rp1276
(dp1277
g1063
S'4Fq7HzEVjWZe60n42X2aYh'
p1278
sg1065
S'track'
p1279
sg1067
g1079
sbag1
(g2
g3
Ntp1280
Rp1281
(dp1282
g1063
S'2VsSnYZzq8mhAtdhwzYxXi'
p1283
sg1065
S'track'
p1284
sg1067
g1079
sbag1
(g2
g3
Ntp1285
Rp1286
(dp1287
g1063
S'658MZZqXTmTurI0jqh09kj'
p1288
sg1065
S'track'
p1289
sg1067
g1068
sbag1
(g2
g3
Ntp1290
Rp1291
(dp1292
g1063
S'658MZZqXTmTurI0jqh09kj'
p1293
sg1065
S'track'
p1294
sg1067
g1068
sbag1
(g2
g3
Ntp1295
Rp1296
(dp1297
g1063
S'77XwMMBECbIWOzIbdeAfz6'
p1298
sg1065
S'track'
p1299
sg1067
g1079
sbag1
(g2
g3
Ntp1300
Rp1301
(dp1302
g1063
S'1lv3ERBOWElcKNOkOh25fT'
p1303
sg1065
S'track'
p1304
sg1067
g1068
sbag1
(g2
g3
Ntp1305
Rp1306
(dp1307
g1063
S'5AAJVgxrDCVYWguruAvX8z'
p1308
sg1065
S'track'
p1309
sg1067
g1079
sbag1
(g2
g3
Ntp1310
Rp1311
(dp1312
g1063
S'78kEFL3ImXJb92tEfTAtot'
p1313
sg1065
S'track'
p1314
sg1067
g1068
sbag1
(g2
g3
Ntp1315
Rp1316
(dp1317
g1063
S'6DWBGE8h44hKYQUmrJLKrG'
p1318
sg1065
S'track'
p1319
sg1067
g1079
sbag1
(g2
g3
Ntp1320
Rp1321
(dp1322
g1063
S'2NvfDIqjpVqITAJgIcP1HZ'
p1323
sg1065
S'track'
p1324
sg1067
g1079
sbag1
(g2
g3
Ntp1325
Rp1326
(dp1327
g1063
S'4EouAE5Xe5EpIpT4PdAlsd'
p1328
sg1065
S'track'
p1329
sg1067
g1079
sbag1
(g2
g3
Ntp1330
Rp1331
(dp1332
g1063
S'3e8jan5jd1QDwPAOcnaYkz'
p1333
sg1065
S'track'
p1334
sg1067
g1079
sbag1
(g2
g3
Ntp1335
Rp1336
(dp1337
S'hash'
p1338
S'0NLHitERWzANXeCLnegM4S'
p1339
sS'type'
p1340
S'track'
p1341
sS'format'
p1342
S'URL'
p1343
sbag1
(g2
g3
Ntp1344
Rp1345
(dp1346
g1338
S'4FFKYMQcqGIKLp4pJRdkbm'
p1347
sg1340
S'track'
p1348
sg1342
S'URI'
p1349
sbag1
(g2
g3
Ntp1350
Rp1351
(dp1352
g1338
S'6f2v69KBUA1E76XWs9Dl2L'
p1353
sg1340
S'track'
p1354
sg1342
g1343
sbag1
(g2
g3
Ntp1355
Rp1356
(dp1357
g1338
S'stefanb'
p1358
sg1340
S'user'
p1359
sg1342
g1349
sbag1
(g2
g3
Ntp1360
Rp1361
(dp1362
g1338
S'6RwSFmfOXaSzS9wWQ454Is'
p1363
sg1340
S'track'
p1364
sg1342
g1343
sbag1
(g2
g3
Ntp1365
Rp1366
(dp1367
g1338
S'5Kd1lAqGg9WepkgmkvPS2i'
p1368
sg1340
S'track'
p1369
sg1342
g1349
sbag1
(g2
g3
Ntp1370
Rp1371
(dp1372
g1338
S'1LFJLLhNEzgfVGBNIlUwmI'
p1373
sg1340
S'track'
p1374
sg1342
g1343
sbag1
(g2
g3
Ntp1375
Rp1376
(dp1377
g1338
S'rohmann'
p1378
sg1340
S'user'
p1379
sg1342
g1349
sbag1
(g2
g3
Ntp1380
Rp1381
(dp1382
S'hash'
p1383
S'bergq'
p1384
sS'type'
p1385
S'user'
p1386
sS'format'
p1387
S'URL'
p1388
sbag1
(g2
g3
Ntp1389
Rp1390
(dp1391
g1383
S'0b1fVeBO4Zi8LsbDhXZDIB'
p1392
sg1385
S'track'
p1393
sg1387
S'URI'
p1394
sbag1
(g2
g3
Ntp1395
Rp1396
(dp1397
g1383
S'5ADcWswt9mQ39zZ7GbqmTH'
p1398
sg1385
S'track'
p1399
sg1387
g1394
sbag1
(g2
g3
Ntp1400
Rp1401
(dp1402
g1383
S'dioid'
p1403
sg1385
S'user'
p1404
sg1387
g1394
sbag1
(g2
g3
Ntp1405
Rp1406
(dp1407
g1383
S'2f7sZFUET4uJK83Kw12e1b'
p1408
sg1385
S'track'
p1409
sg1387
g1394
sbag1
(g2
g3
Ntp1410
Rp1411
(dp1412
g1383
S'11NlA1woMOmvl47tFyRVe5'
p1413
sg1385
S'track'
p1414
sg1387
g1394
sbag1
(g2
g3
Ntp1415
Rp1416
(dp1417
g1383
S'1niesTemAki2TpoMqJmNWV'
p1418
sg1385
S'track'
p1419
sg1387
g1388
sbag1
(g2
g3
Ntp1420
Rp1421
(dp1422
g1383
S'1niesTemAki2TpoMqJmNWV'
p1423
sg1385
S'track'
p1424
sg1387
g1388
sbag1
(g2
g3
Ntp1425
Rp1426
(dp1427
g1383
S'dioid'
p1428
sg1385
S'user'
p1429
sg1387
g1394
sbag1
(g2
g3
Ntp1430
Rp1431
(dp1432
g1383
S'22Z2jk16IA7q4CJbYLsKit'
p1433
sg1385
S'track'
p1434
sg1387
g1388
sbag1
(g2
g3
Ntp1435
Rp1436
(dp1437
g1383
S'5ahQnlpcBnLCQ21gCyeZ2R'
p1438
sg1385
S'track'
p1439
sg1387
g1394
sbag1
(g2
g3
Ntp1440
Rp1441
(dp1442
g1383
S'7dRsnPKxSsdQHH88LhC7JV'
p1443
sg1385
S'track'
p1444
sg1387
g1388
sbag1
(g2
g3
Ntp1445
Rp1446
(dp1447
g1383
S'embry00s'
p1448
sg1385
S'user'
p1449
sg1387
g1388
sbag1
(g2
g3
Ntp1450
Rp1451
(dp1452
g1383
S'6YE3SGaxOi00u1VyQCL7ud'
p1453
sg1385
S'track'
p1454
sg1387
g1388
sbag1
(g2
g3
Ntp1455
Rp1456
(dp1457
S'hash'
p1458
S'2X62kelycsUOCs6KHi77AT'
p1459
sS'type'
p1460
S'track'
p1461
sS'format'
p1462
S'URL'
p1463
sbag1
(g2
g3
Ntp1464
Rp1465
(dp1466
g1458
S'2X62kelycsUOCs6KHi77AT'
p1467
sg1460
S'track'
p1468
sg1462
g1463
sbag1
(g2
g3
Ntp1469
Rp1470
(dp1471
g1458
S'6wofigrahJlK8o08zFeCNO'
p1472
sg1460
S'track'
p1473
sg1462
S'URI'
p1474
sbag1
(g2
g3
Ntp1475
Rp1476
(dp1477
g1458
S'5nFH91NWN7rOC4l1X1mgcp'
p1478
sg1460
S'track'
p1479
sg1462
g1463
sbag1
(g2
g3
Ntp1480
Rp1481
(dp1482
g1458
S'1NTJewNBiwnpeAmvTMFxHK'
p1483
sg1460
S'track'
p1484
sg1462
g1463
sbag1
(g2
g3
Ntp1485
Rp1486
(dp1487
g1458
S'3XlfIcjySCq9WqiYbqp4er'
p1488
sg1460
S'track'
p1489
sg1462
g1474
sbag1
(g2
g3
Ntp1490
Rp1491
(dp1492
g1458
S'6lYHYcgDjKAnsSjH53ehoM'
p1493
sg1460
S'album'
p1494
sg1462
g1463
sbag1
(g2
g3
Ntp1495
Rp1496
(dp1497
S'hash'
p1498
S'0Hxty2K8F2DrrCXQyQVpBo'
p1499
sS'type'
p1500
S'track'
p1501
sS'format'
p1502
S'URL'
p1503
sbag1
(g2
g3
Ntp1504
Rp1505
(dp1506
g1498
S'3ry5g5MA99kSzbZPVY100p'
p1507
sg1500
S'track'
p1508
sg1502
g1503
sbag1
(g2
g3
Ntp1509
Rp1510
(dp1511
g1498
S'7vGiQNK5S90KObmCYEzdym'
p1512
sg1500
S'track'
p1513
sg1502
S'URI'
p1514
sbag1
(g2
g3
Ntp1515
Rp1516
(dp1517
g1498
S'7gov7ugWx71Oi6OQoxGLfS'
p1518
sg1500
S'track'
p1519
sg1502
g1503
sbag1
(g2
g3
Ntp1520
Rp1521
(dp1522
g1498
S'7pDMHisF1qDYOrwY1jzxzj'
p1523
sg1500
S'track'
p1524
sg1502
g1503
sbag1
(g2
g3
Ntp1525
Rp1526
(dp1527
g1498
S'0ua0WdaFy3X7msH9CMCcni'
p1528
sg1500
S'track'
p1529
sg1502
g1514
sbag1
(g2
g3
Ntp1530
Rp1531
(dp1532
g1498
S'6La0FVyFDar1OAgMcUoND7'
p1533
sg1500
S'track'
p1534
sg1502
g1503
sbag1
(g2
g3
Ntp1535
Rp1536
(dp1537
g1498
S'7gov7ugWx71Oi6OQoxGLfS'
p1538
sg1500
S'track'
p1539
sg1502
g1503
sbag1
(g2
g3
Ntp1540
Rp1541
(dp1542
g1498
S'1li0jGGRIaMaNNRBV8JXZ4'
p1543
sg1500
S'track'
p1544
sg1502
g1514
sbag1
(g2
g3
Ntp1545
Rp1546
(dp1547
g1498
S'2Uk3uky365BBGidUpOtKvw'
p1548
sg1500
S'track'
p1549
sg1502
g1503
sbag1
(g2
g3
Ntp1550
Rp1551
(dp1552
g1498
S'dattamanne'
p1553
sg1500
S'user'
p1554
sg1502
g1503
sbag1
(g2
g3
Ntp1555
Rp1556
(dp1557
g1498
S'0kBbKdAfbLl1Pmzcx2RocJ'
p1558
sg1500
S'track'
p1559
sg1502
g1503
sbag1
(g2
g3
Ntp1560
Rp1561
(dp1562
g1498
S'1li0jGGRIaMaNNRBV8JXZ4'
p1563
sg1500
S'track'
p1564
sg1502
g1514
sbag1
(g2
g3
Ntp1565
Rp1566
(dp1567
g1498
S'1UvJAx07pcivMaWkGVyF2X'
p1568
sg1500
S'track'
p1569
sg1502
g1503
sbag1
(g2
g3
Ntp1570
Rp1571
(dp1572
g1498
S'5304TEmec1FRiIq3Wfxum4'
p1573
sg1500
S'track'
p1574
sg1502
g1514
sbag1
(g2
g3
Ntp1575
Rp1576
(dp1577
g1498
S'5304TEmec1FRiIq3Wfxum4'
p1578
sg1500
S'track'
p1579
sg1502
g1514
sbag1
(g2
g3
Ntp1580
Rp1581
(dp1582
g1498
S'5304TEmec1FRiIq3Wfxum4'
p1583
sg1500
S'track'
p1584
sg1502
g1503
sbag1
(g2
g3
Ntp1585
Rp1586
(dp1587
g1498
S'3E0XC7UYYOjplTDyT0KlhI'
p1588
sg1500
S'album'
p1589
sg1502
g1514
sbag1
(g2
g3
Ntp1590
Rp1591
(dp1592
g1498
S'6nvxmJgdZ7iayp1XtHoIFw'
p1593
sg1500
S'track'
p1594
sg1502
g1503
sbag1
(g2
g3
Ntp1595
Rp1596
(dp1597
g1498
S'6dyTKyfOC7uCzXX0ZCuKB9'
p1598
sg1500
S'track'
p1599
sg1502
g1503
sbag1
(g2
g3
Ntp1600
Rp1601
(dp1602
g1498
S'0Xb0co5yvf9HHODKIbhctf'
p1603
sg1500
S'track'
p1604
sg1502
g1514
sbag1
(g2
g3
Ntp1605
Rp1606
(dp1607
g1498
S'0yxhME7Qi1vBW2ILdRmqx8'
p1608
sg1500
S'track'
p1609
sg1502
g1503
sbag1
(g2
g3
Ntp1610
Rp1611
(dp1612
g1498
S'7w3pSbnahBzFfRCt9odoNA'
p1613
sg1500
S'track'
p1614
sg1502
g1503
sbag1
(g2
g3
Ntp1615
Rp1616
(dp1617
g1498
S'7dRsnPKxSsdQHH88LhC7JV'
p1618
sg1500
S'track'
p1619
sg1502
g1503
sbag1
(g2
g3
Ntp1620
Rp1621
(dp1622
g1498
S'1ISqRLJdAQ8JJVKPu55fcU'
p1623
sg1500
S'track'
p1624
sg1502
g1503
sbag1
(g2
g3
Ntp1625
Rp1626
(dp1627
g1498
S'3k69XuwFFQMkZpqIO65R06'
p1628
sg1500
S'track'
p1629
sg1502
g1503
sbag1
(g2
g3
Ntp1630
Rp1631
(dp1632
g1498
S'trubb'
p1633
sg1500
S'user'
p1634
sg1502
g1514
sbag1
(g2
g3
Ntp1635
Rp1636
(dp1637
g1498
S'trubb'
p1638
sg1500
S'user'
p1639
sg1502
g1503
sbag1
(g2
g3
Ntp1640
Rp1641
(dp1642
g1498
S'0PDzZ91fIkInYreoYDxNHG'
p1643
sg1500
S'track'
p1644
sg1502
g1503
sbag1
(g2
g3
Ntp1645
Rp1646
(dp1647
g1498
S'6ovx70RUK8iTctyW2TUoGG'
p1648
sg1500
S'track'
p1649
sg1502
g1503
sbag1
(g2
g3
Ntp1650
Rp1651
(dp1652
g1498
S'phooey'
p1653
sg1500
S'user'
p1654
sg1502
g1503
sbag1
(g2
g3
Ntp1655
Rp1656
(dp1657
g1498
S'1MIwRUsj23h7cYn6mNiqHw'
p1658
sg1500
S'track'
p1659
sg1502
g1503
sbag1
(g2
g3
Ntp1660
Rp1661
(dp1662
g1498
S'408Cfvb5Ye6bakSd6a2jj1'
p1663
sg1500
S'track'
p1664
sg1502
g1514
sbag1
(g2
g3
Ntp1665
Rp1666
(dp1667
g1498
S'0r4aRmRHc38vWZrQfg688L'
p1668
sg1500
S'track'
p1669
sg1502
g1514
sbag1
(g2
g3
Ntp1670
Rp1671
(dp1672
S'hash'
p1673
S'0nptztrnlLzRGjpnciHu8p'
p1674
sS'type'
p1675
S'track'
p1676
sS'format'
p1677
S'URI'
p1678
sbag1
(g2
g3
Ntp1679
Rp1680
(dp1681
g1673
S'3saN0PSasJ7I3CfqG0jAYN'
p1682
sg1675
S'track'
p1683
sg1677
S'URL'
p1684
sbag1
(g2
g3
Ntp1685
Rp1686
(dp1687
g1673
S'0V4xwX6SWACFTJPZhlwoPd'
p1688
sg1675
S'track'
p1689
sg1677
g1684
sbag1
(g2
g3
Ntp1690
Rp1691
(dp1692
g1673
S'5PIpXzlFB1lwJObLATwrJ0'
p1693
sg1675
S'track'
p1694
sg1677
g1684
sbag1
(g2
g3
Ntp1695
Rp1696
(dp1697
g1673
S'0qyO4bbG0bFMRellwQFO6q'
p1698
sg1675
S'track'
p1699
sg1677
g1684
sbag1
(g2
g3
Ntp1700
Rp1701
(dp1702
g1673
S'5CaQfJImSGCdHw8OxYbe0U'
p1703
sg1675
S'track'
p1704
sg1677
g1684
sbag1
(g2
g3
Ntp1705
Rp1706
(dp1707
g1673
S'4yRCjceBoMYgcqOEF8vgxG'
p1708
sg1675
S'album'
p1709
sg1677
g1684
sbag1
(g2
g3
Ntp1710
Rp1711
(dp1712
g1673
S'42szGJ9rm5nYMqndUEpf9Z'
p1713
sg1675
S'album'
p1714
sg1677
g1684
sbag1
(g2
g3
Ntp1715
Rp1716
(dp1717
g1673
S'3XlfIcjySCq9WqiYbqp4er'
p1718
sg1675
S'track'
p1719
sg1677
g1678
sbag1
(g2
g3
Ntp1720
Rp1721
(dp1722
g1673
S'5FtMpePxucxfIp2THi6OYQ'
p1723
sg1675
S'track'
p1724
sg1677
g1684
sbag1
(g2
g3
Ntp1725
Rp1726
(dp1727
S'hash'
p1728
S'76Kj4tUzlBCVTbDOyhMC4E'
p1729
sS'type'
p1730
S'track'
p1731
sS'format'
p1732
S'URL'
p1733
sbag1
(g2
g3
Ntp1734
Rp1735
(dp1736
g1728
S'0fEDN4KbqpDgCeNR15PGu8'
p1737
sg1730
S'track'
p1738
sg1732
g1733
sbag1
(g2
g3
Ntp1739
Rp1740
(dp1741
g1728
S'66GNPuAqtfDCUS38DVv4cr'
p1742
sg1730
S'track'
p1743
sg1732
g1733
sbag1
(g2
g3
Ntp1744
Rp1745
(dp1746
S'hash'
p1747
S'5i2YfhYyULnv1MCdU6Y0n9'
p1748
sS'type'
p1749
S'album'
p1750
sS'format'
p1751
S'URL'
p1752
sbag1
(g2
g3
Ntp1753
Rp1754
(dp1755
S'hash'
p1756
S'5NPJFt0tsAOOJN1G07tgSR'
p1757
sS'type'
p1758
S'track'
p1759
sS'format'
p1760
S'URL'
p1761
sbag1
(g2
g3
Ntp1762
Rp1763
(dp1764
g1756
S'1d5j7ibUKDihkXKddtp1dl'
p1765
sg1758
S'track'
p1766
sg1760
g1761
sbag1
(g2
g3
Ntp1767
Rp1768
(dp1769
g1756
S'7bYHSFl3vp67wI1Iuddyvz'
p1770
sg1758
S'track'
p1771
sg1760
g1761
sbag1
(g2
g3
Ntp1772
Rp1773
(dp1774
g1756
S'39gbqNCH7ziSgfmKlYGx4b'
p1775
sg1758
S'track'
p1776
sg1760
g1761
sbag1
(g2
g3
Ntp1777
Rp1778
(dp1779
g1756
S'3JT9tQjTMJcDtLtCZJPUc4'
p1780
sg1758
S'track'
p1781
sg1760
g1761
sbag1
(g2
g3
Ntp1782
Rp1783
(dp1784
g1756
S'2eHTQschfsvyXdFfxb7Gik'
p1785
sg1758
S'track'
p1786
sg1760
g1761
sbag1
(g2
g3
Ntp1787
Rp1788
(dp1789
g1756
S'7kAKPXXsxA15Bs49pYDyxF'
p1790
sg1758
S'album'
p1791
sg1760
g1761
sbag1
(g2
g3
Ntp1792
Rp1793
(dp1794
g1756
S'0RYzk610RW0ysjSSPSZwlU'
p1795
sg1758
S'track'
p1796
sg1760
S'URI'
p1797
sbag1
(g2
g3
Ntp1798
Rp1799
(dp1800
g1756
S'5TGbyIHenvbIfRSiKZaZJO'
p1801
sg1758
S'track'
p1802
sg1760
g1761
sbag1
(g2
g3
Ntp1803
Rp1804
(dp1805
g1756
S'06Tng5EO50ttHVr6PP6uNQ'
p1806
sg1758
S'track'
p1807
sg1760
g1797
sbag1
(g2
g3
Ntp1808
Rp1809
(dp1810
g1756
S'6scy62kv1KIUzU73pGQ8Jg'
p1811
sg1758
S'track'
p1812
sg1760
g1761
sbag1
(g2
g3
Ntp1813
Rp1814
(dp1815
g1756
S'4k3fcQ1d1Od9qJuqT4jKYQ'
p1816
sg1758
S'track'
p1817
sg1760
g1761
sbag1
(g2
g3
Ntp1818
Rp1819
(dp1820
g1756
S'2Uk3uky365BBGidUpOtKvw'
p1821
sg1758
S'track'
p1822
sg1760
g1761
sbag1
(g2
g3
Ntp1823
Rp1824
(dp1825
g1756
S'7pDMHisF1qDYOrwY1jzxzj'
p1826
sg1758
S'track'
p1827
sg1760
g1761
sbag1
(g2
g3
Ntp1828
Rp1829
(dp1830
g1756
S'0F1fdFp29xM9321cfWcJT8'
p1831
sg1758
S'track'
p1832
sg1760
g1761
sbag1
(g2
g3
Ntp1833
Rp1834
(dp1835
g1756
S'6IIjmqaDdO6vdEBasXsCve'
p1836
sg1758
S'track'
p1837
sg1760
g1797
sbag1
(g2
g3
Ntp1838
Rp1839
(dp1840
S'hash'
p1841
S'5jw4n80CA7v0AqCgOy2RvZ'
p1842
sS'type'
p1843
S'track'
p1844
sS'format'
p1845
S'URI'
p1846
sbag1
(g2
g3
Ntp1847
Rp1848
(dp1849
g1841
S'0MYLzCswPtYON4yYWmB4dx'
p1850
sg1843
S'track'
p1851
sg1845
S'URL'
p1852
sbag1
(g2
g3
Ntp1853
Rp1854
(dp1855
S'hash'
p1856
S'0wP3e5PzSxafy2TRtlayq9'
p1857
sS'type'
p1858
S'track'
p1859
sS'format'
p1860
S'URL'
p1861
sbag1
(g2
g3
Ntp1862
Rp1863
(dp1864
g1856
S'5HqrnydBeleud69ON8RX3a'
p1865
sg1858
S'track'
p1866
sg1860
g1861
sbag1
(g2
g3
Ntp1867
Rp1868
(dp1869
g1856
S'65ulGMah9X690rfSheqdT4'
p1870
sg1858
S'track'
p1871
sg1860
S'URI'
p1872
sbag1
(g2
g3
Ntp1873
Rp1874
(dp1875
S'hash'
p1876
S'5Ad2qLQtodMjB54kEhTdVw'
p1877
sS'type'
p1878
S'track'
p1879
sS'format'
p1880
S'URI'
p1881
sbag1
(g2
g3
Ntp1882
Rp1883
(dp1884
S'hash'
p1885
S'658MZZqXTmTurI0jqh09kj'
p1886
sS'type'
p1887
S'track'
p1888
sS'format'
p1889
S'URL'
p1890
sbag1
(g2
g3
Ntp1891
Rp1892
(dp1893
g1885
S'4uBzDO9wmPEXBKhfwAlMFJ'
p1894
sg1887
S'track'
p1895
sg1889
g1890
sbag1
(g2
g3
Ntp1896
Rp1897
(dp1898
g1885
S'3lEy7N92Ps2u4wiOZPZYfy'
p1899
sg1887
S'track'
p1900
sg1889
g1890
sbag1
(g2
g3
Ntp1901
Rp1902
(dp1903
g1885
S'7aHRctaQ7vjxVTVmY8OhAA'
p1904
sg1887
S'track'
p1905
sg1889
g1890
sbag1
(g2
g3
Ntp1906
Rp1907
(dp1908
g1885
S'0NyXFHAsKqpBchSOyUr809'
p1909
sg1887
S'track'
p1910
sg1889
g1890
sbag1
(g2
g3
Ntp1911
Rp1912
(dp1913
S'hash'
p1914
S'23nJdN9TpBm5IdBEiACt7d'
p1915
sS'type'
p1916
S'track'
p1917
sS'format'
p1918
S'URI'
p1919
sbag1
(g2
g3
Ntp1920
Rp1921
(dp1922
g1914
S'1Y16A27bLrZpMMuTQbPeQG'
p1923
sg1916
S'track'
p1924
sg1918
g1919
sbag1
(g2
g3
Ntp1925
Rp1926
(dp1927
S'hash'
p1928
S'1THOTEqBfznVCfshZDNWo1'
p1929
sS'type'
p1930
S'track'
p1931
sS'format'
p1932
S'URI'
p1933
sbag1
(g2
g3
Ntp1934
Rp1935
(dp1936
g1928
S'2rAN9psKhsFskkKE17DUh6'
p1937
sg1930
S'track'
p1938
sg1932
g1933
sbag1
(g2
g3
Ntp1939
Rp1940
(dp1941
g1928
S'6zm9NR9RTLn8jTH9S8cb2S'
p1942
sg1930
S'track'
p1943
sg1932
g1933
sbag1
(g2
g3
Ntp1944
Rp1945
(dp1946
S'hash'
p1947
S'5Ed4ckECjPvb1EExVV6Vr3'
p1948
sS'type'
p1949
S'track'
p1950
sS'format'
p1951
S'URL'
p1952
sbag1
(g2
g3
Ntp1953
Rp1954
(dp1955
g1947
S'7vz1mIFQKpIuj2krAU1MWS'
p1956
sg1949
S'track'
p1957
sg1951
g1952
sbag1
(g2
g3
Ntp1958
Rp1959
(dp1960
g1947
S'0zcJ8MaIrXrExhV8hTkFDB'
p1961
sg1949
S'track'
p1962
sg1951
g1952
sbag1
(g2
g3
Ntp1963
Rp1964
(dp1965
g1947
S'1Xg2EMCycWVNd6os4nAhSG'
p1966
sg1949
S'track'
p1967
sg1951
S'URI'
p1968
sbag1
(g2
g3
Ntp1969
Rp1970
(dp1971
g1947
S'6J1NDncyE32ESFN45kGQU0'
p1972
sg1949
S'track'
p1973
sg1951
g1952
sbag1
(g2
g3
Ntp1974
Rp1975
(dp1976
g1947
S'rohmann'
p1977
sg1949
S'user'
p1978
sg1951
g1968
sbag1
(g2
g3
Ntp1979
Rp1980
(dp1981
g1947
S'0VxC0gNXqaI4ZY2f0kPfoh'
p1982
sg1949
S'track'
p1983
sg1951
g1968
sbag1
(g2
g3
Ntp1984
Rp1985
(dp1986
S'hash'
p1987
S'2u0Lu5pNZ22HAmDwWdRfix'
p1988
sS'type'
p1989
S'track'
p1990
sS'format'
p1991
S'URI'
p1992
sbag1
(g2
g3
Ntp1993
Rp1994
(dp1995
g1987
S'0Ob61VuJub8C2dSehf1f4D'
p1996
sg1989
S'track'
p1997
sg1991
S'URL'
p1998
sbag1
(g2
g3
Ntp1999
Rp2000
(dp2001
g1987
S'2TAufNl8y6auRGz3vX5LCt'
p2002
sg1989
S'track'
p2003
sg1991
g1998
sbag1
(g2
g3
Ntp2004
Rp2005
(dp2006
g1987
S'0xNvtk64b95tvsz34iad8b'
p2007
sg1989
S'album'
p2008
sg1991
g1992
sbag1
(g2
g3
Ntp2009
Rp2010
(dp2011
g1987
S'3M7rOIhJTEL1oetp8TKQki'
p2012
sg1989
S'track'
p2013
sg1991
g1998
sbag1
(g2
g3
Ntp2014
Rp2015
(dp2016
g1987
S'777a0xNhaysnf8fuHkIHjV'
p2017
sg1989
S'album'
p2018
sg1991
g1998
sbag1
(g2
g3
Ntp2019
Rp2020
(dp2021
S'hash'
p2022
S'5i5hBVIyIhm3G2Lv93Jauj'
p2023
sS'type'
p2024
S'track'
p2025
sS'format'
p2026
S'URI'
p2027
sbag1
(g2
g3
Ntp2028
Rp2029
(dp2030
S'hash'
p2031
S'5i74b845QKfC9HXzJhWxMi'
p2032
sS'type'
p2033
S'track'
p2034
sS'format'
p2035
S'URL'
p2036
sbag1
(g2
g3
Ntp2037
Rp2038
(dp2039
g2031
S'0koZYtM93uGBsPaD2uqa8A'
p2040
sg2033
S'album'
p2041
sg2035
g2036
sbag1
(g2
g3
Ntp2042
Rp2043
(dp2044
g2031
S'0SWKlpFKJcY0K4UlPoRzMV'
p2045
sg2033
S'track'
p2046
sg2035
g2036
sbag1
(g2
g3
Ntp2047
Rp2048
(dp2049
g2031
S'0XMdQc5AKkVoC4JgVueW67'
p2050
sg2033
S'track'
p2051
sg2035
g2036
sbag1
(g2
g3
Ntp2052
Rp2053
(dp2054
S'hash'
p2055
S'1XOhPvf4Ps1o0gCt3NxApG'
p2056
sS'type'
p2057
S'album'
p2058
sS'format'
p2059
S'URI'
p2060
sbag1
(g2
g3
Ntp2061
Rp2062
(dp2063
g2055
S'5weBUVSSnduHrhCTr3ajMs'
p2064
sg2057
S'track'
p2065
sg2059
g2060
sbag1
(g2
g3
Ntp2066
Rp2067
(dp2068
S'hash'
p2069
S'33YLYgvtvj2RTab6aOUNpb'
p2070
sS'type'
p2071
S'track'
p2072
sS'format'
p2073
S'URI'
p2074
sbag1
(g2
g3
Ntp2075
Rp2076
(dp2077
g2069
S'5U1As4DaeKJlWlLnOp4XdK'
p2078
sg2071
S'track'
p2079
sg2073
g2074
sbag1
(g2
g3
Ntp2080
Rp2081
(dp2082
g2069
S'5U1As4DaeKJlWlLnOp4XdK'
p2083
sg2071
S'track'
p2084
sg2073
g2074
sbag1
(g2
g3
Ntp2085
Rp2086
(dp2087
g2069
S'5U1As4DaeKJlWlLnOp4bajs'
p2088
sg2071
S'track'
p2089
sg2073
g2074
sbag1
(g2
g3
Ntp2090
Rp2091
(dp2092
S'hash'
p2093
S'53mXlfuRwgddSjap2T9Pp2'
p2094
sS'type'
p2095
S'track'
p2096
sS'format'
p2097
S'URL'
p2098
sbag1
(g2
g3
Ntp2099
Rp2100
(dp2101
g2093
S'53mXlfuRwgddSjap2T9Pp2'
p2102
sg2095
S'track'
p2103
sg2097
g2098
sbag1
(g2
g3
Ntp2104
Rp2105
(dp2106
g2093
S'4YNrhM3JM9To1mlRkzfFSM'
p2107
sg2095
S'track'
p2108
sg2097
g2098
sbag1
(g2
g3
Ntp2109
Rp2110
(dp2111
g2093
S'4pl4VW1I0gJy3O7m8JsthF'
p2112
sg2095
S'track'
p2113
sg2097
S'URI'
p2114
sbag1
(g2
g3
Ntp2115
Rp2116
(dp2117
g2093
S'33YLYgvtvj2RTab6aOUNpb'
p2118
sg2095
S'track'
p2119
sg2097
g2114
sbag1
(g2
g3
Ntp2120
Rp2121
(dp2122
g2093
S'6CVOG7Y69uSd5rvPqf9SId'
p2123
sg2095
S'track'
p2124
sg2097
g2098
sbag1
(g2
g3
Ntp2125
Rp2126
(dp2127
S'hash'
p2128
S'2rEfdSliLTpXA5fSzuqWbx'
p2129
sS'type'
p2130
S'track'
p2131
sS'format'
p2132
S'URI'
p2133
sbag1
(g2
g3
Ntp2134
Rp2135
(dp2136
S'hash'
p2137
S'4YABmQpgeMUqhr8iDhf6tM'
p2138
sS'type'
p2139
S'track'
p2140
sS'format'
p2141
S'URI'
p2142
sbag1
(g2
g3
Ntp2143
Rp2144
(dp2145
g2137
S'6ZvdBuv1ZUHlTCFrGfwdAr'
p2146
sg2139
S'album'
p2147
sg2141
S'URL'
p2148
sbag1
(g2
g3
Ntp2149
Rp2150
(dp2151
g2137
S'4xPH6o0ioAkjvW7G78lD74'
p2152
sg2139
S'track'
p2153
sg2141
g2148
sbag1
(g2
g3
Ntp2154
Rp2155
(dp2156
S'hash'
p2157
S'1ISqRLJdAQ8JJVKPu55fcU'
p2158
sS'type'
p2159
S'track'
p2160
sS'format'
p2161
S'URL'
p2162
sbag1
(g2
g3
Ntp2163
Rp2164
(dp2165
g2157
S'kottizen'
p2166
sg2159
S'user'
p2167
sg2161
g2162
sbag1
(g2
g3
Ntp2168
Rp2169
(dp2170
g2157
S'rohmann'
p2171
sg2159
S'user'
p2172
sg2161
g2162
sbag1
(g2
g3
Ntp2173
Rp2174
(dp2175
g2157
S'2NRFvNVeJ7GVQ46WW8lUbx'
p2176
sg2159
S'track'
p2177
sg2161
g2162
sbag1
(g2
g3
Ntp2178
Rp2179
(dp2180
g2157
S'0KYVxbgqJ3jLvBadFt4V97'
p2181
sg2159
S'track'
p2182
sg2161
S'URI'
p2183
sbag1
(g2
g3
Ntp2184
Rp2185
(dp2186
g2157
S'33YLYgvtvj2RTab6aOUNpb'
p2187
sg2159
S'track'
p2188
sg2161
g2183
sbag1
(g2
g3
Ntp2189
Rp2190
(dp2191
g2157
S'5dWAxZ2fOYSsBg8YJgztaJ'
p2192
sg2159
S'track'
p2193
sg2161
g2183
sbag1
(g2
g3
Ntp2194
Rp2195
(dp2196
g2157
S'7LU1ZdT88MMTDMI3gOSyNF'
p2197
sg2159
S'track'
p2198
sg2161
g2183
sbag1
(g2
g3
Ntp2199
Rp2200
(dp2201
g2157
S'0IEInuSJNidChMXDbCZ6Uj'
p2202
sg2159
S'track'
p2203
sg2161
g2162
sbag1
(g2
g3
Ntp2204
Rp2205
(dp2206
S'hash'
p2207
S'0wmYi4kjK0xcy0iGL33TZn'
p2208
sS'type'
p2209
S'track'
p2210
sS'format'
p2211
S'URI'
p2212
sbag1
(g2
g3
Ntp2213
Rp2214
(dp2215
g2207
S'1gsT5GesFZ2qkDkgPxMUA1'
p2216
sg2209
S'artist'
p2217
sg2211
g2212
sbag1
(g2
g3
Ntp2218
Rp2219
(dp2220
g2207
S'5QV9xrmThxw9W5VNDDcNPT'
p2221
sg2209
S'track'
p2222
sg2211
g2212
sbag1
(g2
g3
Ntp2223
Rp2224
(dp2225
g2207
S'31w4heagrif0Bsuk5n8Yy6'
p2226
sg2209
S'track'
p2227
sg2211
g2212
sbag1
(g2
g3
Ntp2228
Rp2229
(dp2230
g2207
S'7N1D81SBokq0emvvIli6cs'
p2231
sg2209
S'track'
p2232
sg2211
g2212
sbag1
(g2
g3
Ntp2233
Rp2234
(dp2235
g2207
S'7GFO34WEP3ITHPOv6jnqvc'
p2236
sg2209
S'track'
p2237
sg2211
g2212
sbag1
(g2
g3
Ntp2238
Rp2239
(dp2240
g2207
S'0BeSh2Z6JsBXTgtXBCpnIY'
p2241
sg2209
S'artist'
p2242
sg2211
g2212
sbag1
(g2
g3
Ntp2243
Rp2244
(dp2245
g2207
S'2OD90ycJvYEvNgEzSn02s5'
p2246
sg2209
S'track'
p2247
sg2211
g2212
sbag1
(g2
g3
Ntp2248
Rp2249
(dp2250
g2207
S'6Ql3syWFnik0bADa7FiuFE'
p2251
sg2209
S'track'
p2252
sg2211
S'URL'
p2253
sbag1
(g2
g3
Ntp2254
Rp2255
(dp2256
g2207
S'5A7pkjf25GS6ZcbtVUtjvp'
p2257
sg2209
S'track'
p2258
sg2211
g2212
sbag1
(g2
g3
Ntp2259
Rp2260
(dp2261
g2207
S'1li0jGGRIaMaNNRBV8JXZ4'
p2262
sg2209
S'track'
p2263
sg2211
g2253
sbag1
(g2
g3
Ntp2264
Rp2265
(dp2266
g2207
S'4S2cEPNDY90VJPJ8IP0yv9'
p2267
sg2209
S'album'
p2268
sg2211
g2212
sbag1
(g2
g3
Ntp2269
Rp2270
(dp2271
S'hash'
p2272
S'0J0rFQDKn8v8EfAoRJ9Ojs'
p2273
sS'type'
p2274
S'album'
p2275
sS'format'
p2276
S'URL'
p2277
sbag1
(g2
g3
Ntp2278
Rp2279
(dp2280
S'hash'
p2281
S'4aZSisNDZxHVHsR9NwqCSR'
p2282
sS'type'
p2283
S'track'
p2284
sS'format'
p2285
S'URL'
p2286
sbag1
(g2
g3
Ntp2287
Rp2288
(dp2289
g2281
S'morgothrond'
p2290
sg2283
S'user'
p2291
sg2285
g2286
sbag1
(g2
g3
Ntp2292
Rp2293
(dp2294
g2281
S'2yA8AY4vNHtKe92yHHI9rl'
p2295
sg2283
S'track'
p2296
sg2285
S'URI'
p2297
sbag1
(g2
g3
Ntp2298
Rp2299
(dp2300
g2281
S'3TihD9Enj8HanUHhPK2241'
p2301
sg2283
S'track'
p2302
sg2285
g2286
sbag1
(g2
g3
Ntp2303
Rp2304
(dp2305
g2281
S'5dO5dVxkmBoe5rNlP3w8lV'
p2306
sg2283
S'track'
p2307
sg2285
g2286
sbag1
(g2
g3
Ntp2308
Rp2309
(dp2310
g2281
S'5dO5dVxkmBoe5rNlP3w8lV'
p2311
sg2283
S'track'
p2312
sg2285
g2286
sbag1
(g2
g3
Ntp2313
Rp2314
(dp2315
g2281
S'44hCGbjdPul3vxwrcyNsHv'
p2316
sg2283
S'album'
p2317
sg2285
g2286
sbag1
(g2
g3
Ntp2318
Rp2319
(dp2320
g2281
S'5oz6dAa79WsdTIkCn9jKNN'
p2321
sg2283
S'track'
p2322
sg2285
g2297
sbag1
(g2
g3
Ntp2323
Rp2324
(dp2325
g2281
S'4mw86zm4QZIL8SksdyE6OU'
p2326
sg2283
S'artist'
p2327
sg2285
g2297
sbag1
(g2
g3
Ntp2328
Rp2329
(dp2330
S'hash'
p2331
S'5imUS9dQyCbAjUEJJ9QyWC'
p2332
sS'type'
p2333
S'artist'
p2334
sS'format'
p2335
S'URL'
p2336
sbag1
(g2
g3
Ntp2337
Rp2338
(dp2339
g2331
S'63qbAHgq72L9YuyiAl3xTg'
p2340
sg2333
S'track'
p2341
sg2335
g2336
sbag1
(g2
g3
Ntp2342
Rp2343
(dp2344
g2331
S'38bIZtMEER5k7Iuzvq0IxS'
p2345
sg2333
S'track'
p2346
sg2335
g2336
sbag1
(g2
g3
Ntp2347
Rp2348
(dp2349
g2331
S'4B5roUX172hhwBuxoPwhYW'
p2350
sg2333
S'track'
p2351
sg2335
g2336
sbag1
(g2
g3
Ntp2352
Rp2353
(dp2354
S'hash'
p2355
S'4KEp2Is1yhJ1fDxMBxW306'
p2356
sS'type'
p2357
S'track'
p2358
sS'format'
p2359
S'URI'
p2360
sbag1
(g2
g3
Ntp2361
Rp2362
(dp2363
S'hash'
p2364
S'1KoXv7PgxXXhNtqppdLuvz'
p2365
sS'type'
p2366
S'track'
p2367
sS'format'
p2368
S'URI'
p2369
sbag1
(g2
g3
Ntp2370
Rp2371
(dp2372
S'hash'
p2373
S'5oAGIZXPiROVX4Ij30JNl6'
p2374
sS'type'
p2375
S'track'
p2376
sS'format'
p2377
S'URI'
p2378
sbag1
(g2
g3
Ntp2379
Rp2380
(dp2381
g2373
S'3oB03BklBHcPhPKIiTE9wT'
p2382
sg2375
S'track'
p2383
sg2377
S'URL'
p2384
sbag1
(g2
g3
Ntp2385
Rp2386
(dp2387
g2373
S'6swYIpC6qlq5X9TbhkQiKX'
p2388
sg2375
S'track'
p2389
sg2377
g2378
sbag1
(g2
g3
Ntp2390
Rp2391
(dp2392
g2373
S'1tiAYXbklLHh1zVxfjT5zV'
p2393
sg2375
S'track'
p2394
sg2377
g2378
sbag1
(g2
g3
Ntp2395
Rp2396
(dp2397
S'hash'
p2398
S'6jGVf0VOfpqDClkimD2OiE'
p2399
sS'type'
p2400
S'track'
p2401
sS'format'
p2402
S'URL'
p2403
sbag1
(g2
g3
Ntp2404
Rp2405
(dp2406
S'hash'
p2407
S'2kAftQ0WpnmoRxBbqFCd3A'
p2408
sS'type'
p2409
S'track'
p2410
sS'format'
p2411
S'URL'
p2412
sbag1
(g2
g3
Ntp2413
Rp2414
(dp2415
S'hash'
p2416
S'6awzSyqmTGte3drKdsp8oh'
p2417
sS'type'
p2418
S'track'
p2419
sS'format'
p2420
S'URI'
p2421
sbag1
(g2
g3
Ntp2422
Rp2423
(dp2424
g2416
S'7kseXviKM8k0MaaEDRUkym'
p2425
sg2418
S'track'
p2426
sg2420
S'URL'
p2427
sbag1
(g2
g3
Ntp2428
Rp2429
(dp2430
S'hash'
p2431
S'gasko'
p2432
sS'type'
p2433
S'user'
p2434
sS'format'
p2435
S'URL'
p2436
sbag1
(g2
g3
Ntp2437
Rp2438
(dp2439
g2431
S'1G1EnQAxfIOnsFuoqKAPiE'
p2440
sg2433
S'track'
p2441
sg2435
g2436
sbag1
(g2
g3
Ntp2442
Rp2443
(dp2444
g2431
S'3ZQmQfeyoKnkqcjmKo2M06'
p2445
sg2433
S'track'
p2446
sg2435
g2436
sbag1
(g2
g3
Ntp2447
Rp2448
(dp2449
g2431
S'6Yc6CcpmXvuq8qhjZUjfOX'
p2450
sg2433
S'track'
p2451
sg2435
g2436
sbag1
(g2
g3
Ntp2452
Rp2453
(dp2454
S'hash'
p2455
S'466ZkSMPnS0oaWynGU9eS7'
p2456
sS'type'
p2457
S'track'
p2458
sS'format'
p2459
S'URL'
p2460
sbag1
(g2
g3
Ntp2461
Rp2462
(dp2463
g2455
S'7CP8zOPjBqKMEy5srj5eig'
p2464
sg2457
S'track'
p2465
sg2459
g2460
sbag1
(g2
g3
Ntp2466
Rp2467
(dp2468
g2455
S'7qjKgC94B30FRoOcHnMrfx'
p2469
sg2457
S'track'
p2470
sg2459
g2460
sbag1
(g2
g3
Ntp2471
Rp2472
(dp2473
S'hash'
p2474
S'7ehXSFlAsbadnSM93Pj4jT'
p2475
sS'type'
p2476
S'track'
p2477
sS'format'
p2478
S'URL'
p2479
sbag1
(g2
g3
Ntp2480
Rp2481
(dp2482
g2474
S'6zm9NR9RTLn8jTH9S8cb2S'
p2483
sg2476
S'track'
p2484
sg2478
S'URI'
p2485
sbag1
(g2
g3
Ntp2486
Rp2487
(dp2488
S'hash'
p2489
S'6lR1NdeP9ZDJYnmFIdTBj6'
p2490
sS'type'
p2491
S'track'
p2492
sS'format'
p2493
S'URI'
p2494
sbag1
(g2
g3
Ntp2495
Rp2496
(dp2497
g2489
S'6lR1NdeP9ZDJYnmFIdTBj6'
p2498
sg2491
S'track'
p2499
sg2493
g2494
sbag1
(g2
g3
Ntp2500
Rp2501
(dp2502
g2489
S'6IhA3S0fKyMeODeowq16pL'
p2503
sg2491
S'album'
p2504
sg2493
g2494
sbag1
(g2
g3
Ntp2505
Rp2506
(dp2507
g2489
S'5gbxzSqABThINGDb7vIiwe'
p2508
sg2491
S'track'
p2509
sg2493
g2494
sbag1
(g2
g3
Ntp2510
Rp2511
(dp2512
g2489
S'zelix'
p2513
sg2491
S'user'
p2514
sg2493
g2494
sbag1
(g2
g3
Ntp2515
Rp2516
(dp2517
g2489
S'5h9b0JIzMaE9xSe76vRVda'
p2518
sg2491
S'track'
p2519
sg2493
g2494
sbag1
(g2
g3
Ntp2520
Rp2521
(dp2522
S'hash'
p2523
S'1Kjo4Fl85lt5GFgf4FEXYP'
p2524
sS'type'
p2525
S'track'
p2526
sS'format'
p2527
S'URI'
p2528
sbag1
(g2
g3
Ntp2529
Rp2530
(dp2531
g2523
S'5Chvs2hsJcGowLm4PgigEl'
p2532
sg2525
S'album'
p2533
sg2527
g2528
sbag1
(g2
g3
Ntp2534
Rp2535
(dp2536
S'hash'
p2537
S'1cQkL8cmL6D1l3Mltp6USE'
p2538
sS'type'
p2539
S'track'
p2540
sS'format'
p2541
S'URL'
p2542
sbag1
(g2
g3
Ntp2543
Rp2544
(dp2545
g2537
S'7KhY0xbMeVT0m5M5ebvAZS'
p2546
sg2539
S'track'
p2547
sg2541
S'URI'
p2548
sbag1
(g2
g3
Ntp2549
Rp2550
(dp2551
S'hash'
p2552
S'4Sqc0kPuZpfI0T2TZBu8JT'
p2553
sS'type'
p2554
S'track'
p2555
sS'format'
p2556
S'URL'
p2557
sbag1
(g2
g3
Ntp2558
Rp2559
(dp2560
g2552
S'hacker_112'
p2561
sg2554
S'user'
p2562
sg2556
g2557
sbag1
(g2
g3
Ntp2563
Rp2564
(dp2565
g2552
S'2XzrFQRh2M9p3lYIkuv79l'
p2566
sg2554
S'track'
p2567
sg2556
g2557
sbag1
(g2
g3
Ntp2568
Rp2569
(dp2570
g2552
S'3a6EMokY3UGWJBUIxMP5KF'
p2571
sg2554
S'album'
p2572
sg2556
g2557
sbag1
(g2
g3
Ntp2573
Rp2574
(dp2575
g2552
S'4djQer5GXm8EyIZAoAcdkQ'
p2576
sg2554
S'track'
p2577
sg2556
g2557
sbag1
(g2
g3
Ntp2578
Rp2579
(dp2580
S'hash'
p2581
S'53mXlfuRwgddSjap2T9Pp2'
p2582
sS'type'
p2583
S'track'
p2584
sS'format'
p2585
S'URL'
p2586
sbag1
(g2
g3
Ntp2587
Rp2588
(dp2589
g2581
S'4BK1LadNZtQiRrRkqk6C1P'
p2590
sg2583
S'track'
p2591
sg2585
g2586
sbag1
(g2
g3
Ntp2592
Rp2593
(dp2594
g2581
S'1ieq2YaXJBzyJ33fOYvG8W'
p2595
sg2583
S'track'
p2596
sg2585
g2586
sba.